
AVRASM ver. 2.1.30  D:\Flash Sony Backup\Dynamic scaling 2\16(fuzzy)\List\Project.asm Fri May 28 12:27:31 2021

D:\Flash Sony Backup\Dynamic scaling 2\16(fuzzy)\List\Project.asm(1087): warning: Register r5 already defined by the .DEF directive
D:\Flash Sony Backup\Dynamic scaling 2\16(fuzzy)\List\Project.asm(1088): warning: Register r4 already defined by the .DEF directive
D:\Flash Sony Backup\Dynamic scaling 2\16(fuzzy)\List\Project.asm(1089): warning: Register r7 already defined by the .DEF directive
D:\Flash Sony Backup\Dynamic scaling 2\16(fuzzy)\List\Project.asm(1090): warning: Register r6 already defined by the .DEF directive
D:\Flash Sony Backup\Dynamic scaling 2\16(fuzzy)\List\Project.asm(1091): warning: Register r9 already defined by the .DEF directive
D:\Flash Sony Backup\Dynamic scaling 2\16(fuzzy)\List\Project.asm(1092): warning: Register r8 already defined by the .DEF directive
                 
                 
                 ;CodeVisionAVR C Compiler V3.12 Advanced
                 ;(C) Copyright 1998-2014 Pavel Haiduc, HP InfoTech s.r.l.
                 ;http://www.hpinfotech.com
                 
                 ;Build configuration    : Release
                 ;Chip type              : ATmega32A
                 ;Program type           : Application
                 ;Clock frequency        : 8.000000 MHz
                 ;Memory model           : Small
                 ;Optimize for           : Size
                 ;(s)printf features     : float, width, precision
                 ;(s)scanf features      : int, width
                 ;External RAM size      : 0
                 ;Data Stack size        : 512 byte(s)
                 ;Heap size              : 0 byte(s)
                 ;Promote 'char' to 'int': Yes
                 ;'char' is unsigned     : Yes
                 ;8 bit enums            : Yes
                 ;Global 'const' stored in FLASH: Yes
                 ;Enhanced function parameter passing: Yes
                 ;Enhanced core instructions: On
                 ;Automatic register allocation for global variables: On
                 ;Smart register allocation: On
                 
                 	#define _MODEL_SMALL_
                 
                 	#pragma AVRPART ADMIN PART_NAME ATmega32A
                 	#pragma AVRPART MEMORY PROG_FLASH 32768
                 	#pragma AVRPART MEMORY EEPROM 1024
                 	#pragma AVRPART MEMORY INT_SRAM SIZE 2048
                 	#pragma AVRPART MEMORY INT_SRAM START_ADDR 0x60
                 
                 	#define CALL_SUPPORTED 1
                 
                 	.LISTMAC
                 	.EQU UDRE=0x5
                 	.EQU RXC=0x7
                 	.EQU USR=0xB
                 	.EQU UDR=0xC
                 	.EQU SPSR=0xE
                 	.EQU SPDR=0xF
                 	.EQU EERE=0x0
                 	.EQU EEWE=0x1
                 	.EQU EEMWE=0x2
                 	.EQU EECR=0x1C
                 	.EQU EEDR=0x1D
                 	.EQU EEARL=0x1E
                 	.EQU EEARH=0x1F
                 	.EQU WDTCR=0x21
                 	.EQU MCUCR=0x35
                 	.EQU SPL=0x3D
                 	.EQU SPH=0x3E
                 	.EQU SREG=0x3F
                 
                 	.DEF R0X0=R0
                 	.DEF R0X1=R1
                 	.DEF R0X2=R2
                 	.DEF R0X3=R3
                 	.DEF R0X4=R4
                 	.DEF R0X5=R5
                 	.DEF R0X6=R6
                 	.DEF R0X7=R7
                 	.DEF R0X8=R8
                 	.DEF R0X9=R9
                 	.DEF R0XA=R10
                 	.DEF R0XB=R11
                 	.DEF R0XC=R12
                 	.DEF R0XD=R13
                 	.DEF R0XE=R14
                 	.DEF R0XF=R15
                 	.DEF R0X10=R16
                 	.DEF R0X11=R17
                 	.DEF R0X12=R18
                 	.DEF R0X13=R19
                 	.DEF R0X14=R20
                 	.DEF R0X15=R21
                 	.DEF R0X16=R22
                 	.DEF R0X17=R23
                 	.DEF R0X18=R24
                 	.DEF R0X19=R25
                 	.DEF R0X1A=R26
                 	.DEF R0X1B=R27
                 	.DEF R0X1C=R28
                 	.DEF R0X1D=R29
                 	.DEF R0X1E=R30
                 	.DEF R0X1F=R31
                 
                 	.EQU __SRAM_START=0x0060
                 	.EQU __SRAM_END=0x085F
                 	.EQU __DSTACK_SIZE=0x0200
                 	.EQU __HEAP_SIZE=0x0000
                 	.EQU __CLEAR_SRAM_SIZE=__SRAM_END-__SRAM_START+1
                 
                 	.MACRO __CPD1N
                 	CPI  R30,LOW(@0)
                 	LDI  R26,HIGH(@0)
                 	CPC  R31,R26
                 	LDI  R26,BYTE3(@0)
                 	CPC  R22,R26
                 	LDI  R26,BYTE4(@0)
                 	CPC  R23,R26
                 	.ENDM
                 
                 	.MACRO __CPD2N
                 	CPI  R26,LOW(@0)
                 	LDI  R30,HIGH(@0)
                 	CPC  R27,R30
                 	LDI  R30,BYTE3(@0)
                 	CPC  R24,R30
                 	LDI  R30,BYTE4(@0)
                 	CPC  R25,R30
                 	.ENDM
                 
                 	.MACRO __CPWRR
                 	CP   R@0,R@2
                 	CPC  R@1,R@3
                 	.ENDM
                 
                 	.MACRO __CPWRN
                 	CPI  R@0,LOW(@2)
                 	LDI  R30,HIGH(@2)
                 	CPC  R@1,R30
                 	.ENDM
                 
                 	.MACRO __ADDB1MN
                 	SUBI R30,LOW(-@0-(@1))
                 	.ENDM
                 
                 	.MACRO __ADDB2MN
                 	SUBI R26,LOW(-@0-(@1))
                 	.ENDM
                 
                 	.MACRO __ADDW1MN
                 	SUBI R30,LOW(-@0-(@1))
                 	SBCI R31,HIGH(-@0-(@1))
                 	.ENDM
                 
                 	.MACRO __ADDW2MN
                 	SUBI R26,LOW(-@0-(@1))
                 	SBCI R27,HIGH(-@0-(@1))
                 	.ENDM
                 
                 	.MACRO __ADDW1FN
                 	SUBI R30,LOW(-2*@0-(@1))
                 	SBCI R31,HIGH(-2*@0-(@1))
                 	.ENDM
                 
                 	.MACRO __ADDD1FN
                 	SUBI R30,LOW(-2*@0-(@1))
                 	SBCI R31,HIGH(-2*@0-(@1))
                 	SBCI R22,BYTE3(-2*@0-(@1))
                 	.ENDM
                 
                 	.MACRO __ADDD1N
                 	SUBI R30,LOW(-@0)
                 	SBCI R31,HIGH(-@0)
                 	SBCI R22,BYTE3(-@0)
                 	SBCI R23,BYTE4(-@0)
                 	.ENDM
                 
                 	.MACRO __ADDD2N
                 	SUBI R26,LOW(-@0)
                 	SBCI R27,HIGH(-@0)
                 	SBCI R24,BYTE3(-@0)
                 	SBCI R25,BYTE4(-@0)
                 	.ENDM
                 
                 	.MACRO __SUBD1N
                 	SUBI R30,LOW(@0)
                 	SBCI R31,HIGH(@0)
                 	SBCI R22,BYTE3(@0)
                 	SBCI R23,BYTE4(@0)
                 	.ENDM
                 
                 	.MACRO __SUBD2N
                 	SUBI R26,LOW(@0)
                 	SBCI R27,HIGH(@0)
                 	SBCI R24,BYTE3(@0)
                 	SBCI R25,BYTE4(@0)
                 	.ENDM
                 
                 	.MACRO __ANDBMNN
                 	LDS  R30,@0+(@1)
                 	ANDI R30,LOW(@2)
                 	STS  @0+(@1),R30
                 	.ENDM
                 
                 	.MACRO __ANDWMNN
                 	LDS  R30,@0+(@1)
                 	ANDI R30,LOW(@2)
                 	STS  @0+(@1),R30
                 	LDS  R30,@0+(@1)+1
                 	ANDI R30,HIGH(@2)
                 	STS  @0+(@1)+1,R30
                 	.ENDM
                 
                 	.MACRO __ANDD1N
                 	ANDI R30,LOW(@0)
                 	ANDI R31,HIGH(@0)
                 	ANDI R22,BYTE3(@0)
                 	ANDI R23,BYTE4(@0)
                 	.ENDM
                 
                 	.MACRO __ANDD2N
                 	ANDI R26,LOW(@0)
                 	ANDI R27,HIGH(@0)
                 	ANDI R24,BYTE3(@0)
                 	ANDI R25,BYTE4(@0)
                 	.ENDM
                 
                 	.MACRO __ORBMNN
                 	LDS  R30,@0+(@1)
                 	ORI  R30,LOW(@2)
                 	STS  @0+(@1),R30
                 	.ENDM
                 
                 	.MACRO __ORWMNN
                 	LDS  R30,@0+(@1)
                 	ORI  R30,LOW(@2)
                 	STS  @0+(@1),R30
                 	LDS  R30,@0+(@1)+1
                 	ORI  R30,HIGH(@2)
                 	STS  @0+(@1)+1,R30
                 	.ENDM
                 
                 	.MACRO __ORD1N
                 	ORI  R30,LOW(@0)
                 	ORI  R31,HIGH(@0)
                 	ORI  R22,BYTE3(@0)
                 	ORI  R23,BYTE4(@0)
                 	.ENDM
                 
                 	.MACRO __ORD2N
                 	ORI  R26,LOW(@0)
                 	ORI  R27,HIGH(@0)
                 	ORI  R24,BYTE3(@0)
                 	ORI  R25,BYTE4(@0)
                 	.ENDM
                 
                 	.MACRO __DELAY_USB
                 	LDI  R24,LOW(@0)
                 __DELAY_USB_LOOP:
                 	DEC  R24
                 	BRNE __DELAY_USB_LOOP
                 	.ENDM
                 
                 	.MACRO __DELAY_USW
                 	LDI  R24,LOW(@0)
                 	LDI  R25,HIGH(@0)
                 __DELAY_USW_LOOP:
                 	SBIW R24,1
                 	BRNE __DELAY_USW_LOOP
                 	.ENDM
                 
                 	.MACRO __GETD1S
                 	LDD  R30,Y+@0
                 	LDD  R31,Y+@0+1
                 	LDD  R22,Y+@0+2
                 	LDD  R23,Y+@0+3
                 	.ENDM
                 
                 	.MACRO __GETD2S
                 	LDD  R26,Y+@0
                 	LDD  R27,Y+@0+1
                 	LDD  R24,Y+@0+2
                 	LDD  R25,Y+@0+3
                 	.ENDM
                 
                 	.MACRO __PUTD1S
                 	STD  Y+@0,R30
                 	STD  Y+@0+1,R31
                 	STD  Y+@0+2,R22
                 	STD  Y+@0+3,R23
                 	.ENDM
                 
                 	.MACRO __PUTD2S
                 	STD  Y+@0,R26
                 	STD  Y+@0+1,R27
                 	STD  Y+@0+2,R24
                 	STD  Y+@0+3,R25
                 	.ENDM
                 
                 	.MACRO __PUTDZ2
                 	STD  Z+@0,R26
                 	STD  Z+@0+1,R27
                 	STD  Z+@0+2,R24
                 	STD  Z+@0+3,R25
                 	.ENDM
                 
                 	.MACRO __CLRD1S
                 	STD  Y+@0,R30
                 	STD  Y+@0+1,R30
                 	STD  Y+@0+2,R30
                 	STD  Y+@0+3,R30
                 	.ENDM
                 
                 	.MACRO __POINTB1MN
                 	LDI  R30,LOW(@0+(@1))
                 	.ENDM
                 
                 	.MACRO __POINTW1MN
                 	LDI  R30,LOW(@0+(@1))
                 	LDI  R31,HIGH(@0+(@1))
                 	.ENDM
                 
                 	.MACRO __POINTD1M
                 	LDI  R30,LOW(@0)
                 	LDI  R31,HIGH(@0)
                 	LDI  R22,BYTE3(@0)
                 	LDI  R23,BYTE4(@0)
                 	.ENDM
                 
                 	.MACRO __POINTW1FN
                 	LDI  R30,LOW(2*@0+(@1))
                 	LDI  R31,HIGH(2*@0+(@1))
                 	.ENDM
                 
                 	.MACRO __POINTD1FN
                 	LDI  R30,LOW(2*@0+(@1))
                 	LDI  R31,HIGH(2*@0+(@1))
                 	LDI  R22,BYTE3(2*@0+(@1))
                 	LDI  R23,BYTE4(2*@0+(@1))
                 	.ENDM
                 
                 	.MACRO __POINTB2MN
                 	LDI  R26,LOW(@0+(@1))
                 	.ENDM
                 
                 	.MACRO __POINTW2MN
                 	LDI  R26,LOW(@0+(@1))
                 	LDI  R27,HIGH(@0+(@1))
                 	.ENDM
                 
                 	.MACRO __POINTW2FN
                 	LDI  R26,LOW(2*@0+(@1))
                 	LDI  R27,HIGH(2*@0+(@1))
                 	.ENDM
                 
                 	.MACRO __POINTD2FN
                 	LDI  R26,LOW(2*@0+(@1))
                 	LDI  R27,HIGH(2*@0+(@1))
                 	LDI  R24,BYTE3(2*@0+(@1))
                 	LDI  R25,BYTE4(2*@0+(@1))
                 	.ENDM
                 
                 	.MACRO __POINTBRM
                 	LDI  R@0,LOW(@1)
                 	.ENDM
                 
                 	.MACRO __POINTWRM
                 	LDI  R@0,LOW(@2)
                 	LDI  R@1,HIGH(@2)
                 	.ENDM
                 
                 	.MACRO __POINTBRMN
                 	LDI  R@0,LOW(@1+(@2))
                 	.ENDM
                 
                 	.MACRO __POINTWRMN
                 	LDI  R@0,LOW(@2+(@3))
                 	LDI  R@1,HIGH(@2+(@3))
                 	.ENDM
                 
                 	.MACRO __POINTWRFN
                 	LDI  R@0,LOW(@2*2+(@3))
                 	LDI  R@1,HIGH(@2*2+(@3))
                 	.ENDM
                 
                 	.MACRO __GETD1N
                 	LDI  R30,LOW(@0)
                 	LDI  R31,HIGH(@0)
                 	LDI  R22,BYTE3(@0)
                 	LDI  R23,BYTE4(@0)
                 	.ENDM
                 
                 	.MACRO __GETD2N
                 	LDI  R26,LOW(@0)
                 	LDI  R27,HIGH(@0)
                 	LDI  R24,BYTE3(@0)
                 	LDI  R25,BYTE4(@0)
                 	.ENDM
                 
                 	.MACRO __GETB1MN
                 	LDS  R30,@0+(@1)
                 	.ENDM
                 
                 	.MACRO __GETB1HMN
                 	LDS  R31,@0+(@1)
                 	.ENDM
                 
                 	.MACRO __GETW1MN
                 	LDS  R30,@0+(@1)
                 	LDS  R31,@0+(@1)+1
                 	.ENDM
                 
                 	.MACRO __GETD1MN
                 	LDS  R30,@0+(@1)
                 	LDS  R31,@0+(@1)+1
                 	LDS  R22,@0+(@1)+2
                 	LDS  R23,@0+(@1)+3
                 	.ENDM
                 
                 	.MACRO __GETBRMN
                 	LDS  R@0,@1+(@2)
                 	.ENDM
                 
                 	.MACRO __GETWRMN
                 	LDS  R@0,@2+(@3)
                 	LDS  R@1,@2+(@3)+1
                 	.ENDM
                 
                 	.MACRO __GETWRZ
                 	LDD  R@0,Z+@2
                 	LDD  R@1,Z+@2+1
                 	.ENDM
                 
                 	.MACRO __GETD2Z
                 	LDD  R26,Z+@0
                 	LDD  R27,Z+@0+1
                 	LDD  R24,Z+@0+2
                 	LDD  R25,Z+@0+3
                 	.ENDM
                 
                 	.MACRO __GETB2MN
                 	LDS  R26,@0+(@1)
                 	.ENDM
                 
                 	.MACRO __GETW2MN
                 	LDS  R26,@0+(@1)
                 	LDS  R27,@0+(@1)+1
                 	.ENDM
                 
                 	.MACRO __GETD2MN
                 	LDS  R26,@0+(@1)
                 	LDS  R27,@0+(@1)+1
                 	LDS  R24,@0+(@1)+2
                 	LDS  R25,@0+(@1)+3
                 	.ENDM
                 
                 	.MACRO __PUTB1MN
                 	STS  @0+(@1),R30
                 	.ENDM
                 
                 	.MACRO __PUTW1MN
                 	STS  @0+(@1),R30
                 	STS  @0+(@1)+1,R31
                 	.ENDM
                 
                 	.MACRO __PUTD1MN
                 	STS  @0+(@1),R30
                 	STS  @0+(@1)+1,R31
                 	STS  @0+(@1)+2,R22
                 	STS  @0+(@1)+3,R23
                 	.ENDM
                 
                 	.MACRO __PUTB1EN
                 	LDI  R26,LOW(@0+(@1))
                 	LDI  R27,HIGH(@0+(@1))
                 	CALL __EEPROMWRB
                 	.ENDM
                 
                 	.MACRO __PUTW1EN
                 	LDI  R26,LOW(@0+(@1))
                 	LDI  R27,HIGH(@0+(@1))
                 	CALL __EEPROMWRW
                 	.ENDM
                 
                 	.MACRO __PUTD1EN
                 	LDI  R26,LOW(@0+(@1))
                 	LDI  R27,HIGH(@0+(@1))
                 	CALL __EEPROMWRD
                 	.ENDM
                 
                 	.MACRO __PUTBR0MN
                 	STS  @0+(@1),R0
                 	.ENDM
                 
                 	.MACRO __PUTBMRN
                 	STS  @0+(@1),R@2
                 	.ENDM
                 
                 	.MACRO __PUTWMRN
                 	STS  @0+(@1),R@2
                 	STS  @0+(@1)+1,R@3
                 	.ENDM
                 
                 	.MACRO __PUTBZR
                 	STD  Z+@1,R@0
                 	.ENDM
                 
                 	.MACRO __PUTWZR
                 	STD  Z+@2,R@0
                 	STD  Z+@2+1,R@1
                 	.ENDM
                 
                 	.MACRO __GETW1R
                 	MOV  R30,R@0
                 	MOV  R31,R@1
                 	.ENDM
                 
                 	.MACRO __GETW2R
                 	MOV  R26,R@0
                 	MOV  R27,R@1
                 	.ENDM
                 
                 	.MACRO __GETWRN
                 	LDI  R@0,LOW(@2)
                 	LDI  R@1,HIGH(@2)
                 	.ENDM
                 
                 	.MACRO __PUTW1R
                 	MOV  R@0,R30
                 	MOV  R@1,R31
                 	.ENDM
                 
                 	.MACRO __PUTW2R
                 	MOV  R@0,R26
                 	MOV  R@1,R27
                 	.ENDM
                 
                 	.MACRO __ADDWRN
                 	SUBI R@0,LOW(-@2)
                 	SBCI R@1,HIGH(-@2)
                 	.ENDM
                 
                 	.MACRO __ADDWRR
                 	ADD  R@0,R@2
                 	ADC  R@1,R@3
                 	.ENDM
                 
                 	.MACRO __SUBWRN
                 	SUBI R@0,LOW(@2)
                 	SBCI R@1,HIGH(@2)
                 	.ENDM
                 
                 	.MACRO __SUBWRR
                 	SUB  R@0,R@2
                 	SBC  R@1,R@3
                 	.ENDM
                 
                 	.MACRO __ANDWRN
                 	ANDI R@0,LOW(@2)
                 	ANDI R@1,HIGH(@2)
                 	.ENDM
                 
                 	.MACRO __ANDWRR
                 	AND  R@0,R@2
                 	AND  R@1,R@3
                 	.ENDM
                 
                 	.MACRO __ORWRN
                 	ORI  R@0,LOW(@2)
                 	ORI  R@1,HIGH(@2)
                 	.ENDM
                 
                 	.MACRO __ORWRR
                 	OR   R@0,R@2
                 	OR   R@1,R@3
                 	.ENDM
                 
                 	.MACRO __EORWRR
                 	EOR  R@0,R@2
                 	EOR  R@1,R@3
                 	.ENDM
                 
                 	.MACRO __GETWRS
                 	LDD  R@0,Y+@2
                 	LDD  R@1,Y+@2+1
                 	.ENDM
                 
                 	.MACRO __PUTBSR
                 	STD  Y+@1,R@0
                 	.ENDM
                 
                 	.MACRO __PUTWSR
                 	STD  Y+@2,R@0
                 	STD  Y+@2+1,R@1
                 	.ENDM
                 
                 	.MACRO __MOVEWRR
                 	MOV  R@0,R@2
                 	MOV  R@1,R@3
                 	.ENDM
                 
                 	.MACRO __INWR
                 	IN   R@0,@2
                 	IN   R@1,@2+1
                 	.ENDM
                 
                 	.MACRO __OUTWR
                 	OUT  @2+1,R@1
                 	OUT  @2,R@0
                 	.ENDM
                 
                 	.MACRO __CALL1MN
                 	LDS  R30,@0+(@1)
                 	LDS  R31,@0+(@1)+1
                 	ICALL
                 	.ENDM
                 
                 	.MACRO __CALL1FN
                 	LDI  R30,LOW(2*@0+(@1))
                 	LDI  R31,HIGH(2*@0+(@1))
                 	CALL __GETW1PF
                 	ICALL
                 	.ENDM
                 
                 	.MACRO __CALL2EN
                 	PUSH R26
                 	PUSH R27
                 	LDI  R26,LOW(@0+(@1))
                 	LDI  R27,HIGH(@0+(@1))
                 	CALL __EEPROMRDW
                 	POP  R27
                 	POP  R26
                 	ICALL
                 	.ENDM
                 
                 	.MACRO __CALL2EX
                 	SUBI R26,LOW(-@0)
                 	SBCI R27,HIGH(-@0)
                 	CALL __EEPROMRDD
                 	ICALL
                 	.ENDM
                 
                 	.MACRO __GETW1STACK
                 	IN   R30,SPL
                 	IN   R31,SPH
                 	ADIW R30,@0+1
                 	LD   R0,Z+
                 	LD   R31,Z
                 	MOV  R30,R0
                 	.ENDM
                 
                 	.MACRO __GETD1STACK
                 	IN   R30,SPL
                 	IN   R31,SPH
                 	ADIW R30,@0+1
                 	LD   R0,Z+
                 	LD   R1,Z+
                 	LD   R22,Z
                 	MOVW R30,R0
                 	.ENDM
                 
                 	.MACRO __NBST
                 	BST  R@0,@1
                 	IN   R30,SREG
                 	LDI  R31,0x40
                 	EOR  R30,R31
                 	OUT  SREG,R30
                 	.ENDM
                 
                 
                 	.MACRO __PUTB1SN
                 	LDD  R26,Y+@0
                 	LDD  R27,Y+@0+1
                 	SUBI R26,LOW(-@1)
                 	SBCI R27,HIGH(-@1)
                 	ST   X,R30
                 	.ENDM
                 
                 	.MACRO __PUTW1SN
                 	LDD  R26,Y+@0
                 	LDD  R27,Y+@0+1
                 	SUBI R26,LOW(-@1)
                 	SBCI R27,HIGH(-@1)
                 	ST   X+,R30
                 	ST   X,R31
                 	.ENDM
                 
                 	.MACRO __PUTD1SN
                 	LDD  R26,Y+@0
                 	LDD  R27,Y+@0+1
                 	SUBI R26,LOW(-@1)
                 	SBCI R27,HIGH(-@1)
                 	CALL __PUTDP1
                 	.ENDM
                 
                 	.MACRO __PUTB1SNS
                 	LDD  R26,Y+@0
                 	LDD  R27,Y+@0+1
                 	ADIW R26,@1
                 	ST   X,R30
                 	.ENDM
                 
                 	.MACRO __PUTW1SNS
                 	LDD  R26,Y+@0
                 	LDD  R27,Y+@0+1
                 	ADIW R26,@1
                 	ST   X+,R30
                 	ST   X,R31
                 	.ENDM
                 
                 	.MACRO __PUTD1SNS
                 	LDD  R26,Y+@0
                 	LDD  R27,Y+@0+1
                 	ADIW R26,@1
                 	CALL __PUTDP1
                 	.ENDM
                 
                 	.MACRO __PUTB1PMN
                 	LDS  R26,@0
                 	LDS  R27,@0+1
                 	SUBI R26,LOW(-@1)
                 	SBCI R27,HIGH(-@1)
                 	ST   X,R30
                 	.ENDM
                 
                 	.MACRO __PUTW1PMN
                 	LDS  R26,@0
                 	LDS  R27,@0+1
                 	SUBI R26,LOW(-@1)
                 	SBCI R27,HIGH(-@1)
                 	ST   X+,R30
                 	ST   X,R31
                 	.ENDM
                 
                 	.MACRO __PUTD1PMN
                 	LDS  R26,@0
                 	LDS  R27,@0+1
                 	SUBI R26,LOW(-@1)
                 	SBCI R27,HIGH(-@1)
                 	CALL __PUTDP1
                 	.ENDM
                 
                 	.MACRO __PUTB1PMNS
                 	LDS  R26,@0
                 	LDS  R27,@0+1
                 	ADIW R26,@1
                 	ST   X,R30
                 	.ENDM
                 
                 	.MACRO __PUTW1PMNS
                 	LDS  R26,@0
                 	LDS  R27,@0+1
                 	ADIW R26,@1
                 	ST   X+,R30
                 	ST   X,R31
                 	.ENDM
                 
                 	.MACRO __PUTD1PMNS
                 	LDS  R26,@0
                 	LDS  R27,@0+1
                 	ADIW R26,@1
                 	CALL __PUTDP1
                 	.ENDM
                 
                 	.MACRO __PUTB1RN
                 	MOVW R26,R@0
                 	SUBI R26,LOW(-@1)
                 	SBCI R27,HIGH(-@1)
                 	ST   X,R30
                 	.ENDM
                 
                 	.MACRO __PUTW1RN
                 	MOVW R26,R@0
                 	SUBI R26,LOW(-@1)
                 	SBCI R27,HIGH(-@1)
                 	ST   X+,R30
                 	ST   X,R31
                 	.ENDM
                 
                 	.MACRO __PUTD1RN
                 	MOVW R26,R@0
                 	SUBI R26,LOW(-@1)
                 	SBCI R27,HIGH(-@1)
                 	CALL __PUTDP1
                 	.ENDM
                 
                 	.MACRO __PUTB1RNS
                 	MOVW R26,R@0
                 	ADIW R26,@1
                 	ST   X,R30
                 	.ENDM
                 
                 	.MACRO __PUTW1RNS
                 	MOVW R26,R@0
                 	ADIW R26,@1
                 	ST   X+,R30
                 	ST   X,R31
                 	.ENDM
                 
                 	.MACRO __PUTD1RNS
                 	MOVW R26,R@0
                 	ADIW R26,@1
                 	CALL __PUTDP1
                 	.ENDM
                 
                 	.MACRO __PUTB1RON
                 	MOV  R26,R@0
                 	MOV  R27,R@1
                 	SUBI R26,LOW(-@2)
                 	SBCI R27,HIGH(-@2)
                 	ST   X,R30
                 	.ENDM
                 
                 	.MACRO __PUTW1RON
                 	MOV  R26,R@0
                 	MOV  R27,R@1
                 	SUBI R26,LOW(-@2)
                 	SBCI R27,HIGH(-@2)
                 	ST   X+,R30
                 	ST   X,R31
                 	.ENDM
                 
                 	.MACRO __PUTD1RON
                 	MOV  R26,R@0
                 	MOV  R27,R@1
                 	SUBI R26,LOW(-@2)
                 	SBCI R27,HIGH(-@2)
                 	CALL __PUTDP1
                 	.ENDM
                 
                 	.MACRO __PUTB1RONS
                 	MOV  R26,R@0
                 	MOV  R27,R@1
                 	ADIW R26,@2
                 	ST   X,R30
                 	.ENDM
                 
                 	.MACRO __PUTW1RONS
                 	MOV  R26,R@0
                 	MOV  R27,R@1
                 	ADIW R26,@2
                 	ST   X+,R30
                 	ST   X,R31
                 	.ENDM
                 
                 	.MACRO __PUTD1RONS
                 	MOV  R26,R@0
                 	MOV  R27,R@1
                 	ADIW R26,@2
                 	CALL __PUTDP1
                 	.ENDM
                 
                 
                 	.MACRO __GETB1SX
                 	MOVW R30,R28
                 	SUBI R30,LOW(-@0)
                 	SBCI R31,HIGH(-@0)
                 	LD   R30,Z
                 	.ENDM
                 
                 	.MACRO __GETB1HSX
                 	MOVW R30,R28
                 	SUBI R30,LOW(-@0)
                 	SBCI R31,HIGH(-@0)
                 	LD   R31,Z
                 	.ENDM
                 
                 	.MACRO __GETW1SX
                 	MOVW R30,R28
                 	SUBI R30,LOW(-@0)
                 	SBCI R31,HIGH(-@0)
                 	LD   R0,Z+
                 	LD   R31,Z
                 	MOV  R30,R0
                 	.ENDM
                 
                 	.MACRO __GETD1SX
                 	MOVW R30,R28
                 	SUBI R30,LOW(-@0)
                 	SBCI R31,HIGH(-@0)
                 	LD   R0,Z+
                 	LD   R1,Z+
                 	LD   R22,Z+
                 	LD   R23,Z
                 	MOVW R30,R0
                 	.ENDM
                 
                 	.MACRO __GETB2SX
                 	MOVW R26,R28
                 	SUBI R26,LOW(-@0)
                 	SBCI R27,HIGH(-@0)
                 	LD   R26,X
                 	.ENDM
                 
                 	.MACRO __GETW2SX
                 	MOVW R26,R28
                 	SUBI R26,LOW(-@0)
                 	SBCI R27,HIGH(-@0)
                 	LD   R0,X+
                 	LD   R27,X
                 	MOV  R26,R0
                 	.ENDM
                 
                 	.MACRO __GETD2SX
                 	MOVW R26,R28
                 	SUBI R26,LOW(-@0)
                 	SBCI R27,HIGH(-@0)
                 	LD   R0,X+
                 	LD   R1,X+
                 	LD   R24,X+
                 	LD   R25,X
                 	MOVW R26,R0
                 	.ENDM
                 
                 	.MACRO __GETBRSX
                 	MOVW R30,R28
                 	SUBI R30,LOW(-@1)
                 	SBCI R31,HIGH(-@1)
                 	LD   R@0,Z
                 	.ENDM
                 
                 	.MACRO __GETWRSX
                 	MOVW R30,R28
                 	SUBI R30,LOW(-@2)
                 	SBCI R31,HIGH(-@2)
                 	LD   R@0,Z+
                 	LD   R@1,Z
                 	.ENDM
                 
                 	.MACRO __GETBRSX2
                 	MOVW R26,R28
                 	SUBI R26,LOW(-@1)
                 	SBCI R27,HIGH(-@1)
                 	LD   R@0,X
                 	.ENDM
                 
                 	.MACRO __GETWRSX2
                 	MOVW R26,R28
                 	SUBI R26,LOW(-@2)
                 	SBCI R27,HIGH(-@2)
                 	LD   R@0,X+
                 	LD   R@1,X
                 	.ENDM
                 
                 	.MACRO __LSLW8SX
                 	MOVW R30,R28
                 	SUBI R30,LOW(-@0)
                 	SBCI R31,HIGH(-@0)
                 	LD   R31,Z
                 	CLR  R30
                 	.ENDM
                 
                 	.MACRO __PUTB1SX
                 	MOVW R26,R28
                 	SUBI R26,LOW(-@0)
                 	SBCI R27,HIGH(-@0)
                 	ST   X,R30
                 	.ENDM
                 
                 	.MACRO __PUTW1SX
                 	MOVW R26,R28
                 	SUBI R26,LOW(-@0)
                 	SBCI R27,HIGH(-@0)
                 	ST   X+,R30
                 	ST   X,R31
                 	.ENDM
                 
                 	.MACRO __PUTD1SX
                 	MOVW R26,R28
                 	SUBI R26,LOW(-@0)
                 	SBCI R27,HIGH(-@0)
                 	ST   X+,R30
                 	ST   X+,R31
                 	ST   X+,R22
                 	ST   X,R23
                 	.ENDM
                 
                 	.MACRO __CLRW1SX
                 	MOVW R26,R28
                 	SUBI R26,LOW(-@0)
                 	SBCI R27,HIGH(-@0)
                 	ST   X+,R30
                 	ST   X,R30
                 	.ENDM
                 
                 	.MACRO __CLRD1SX
                 	MOVW R26,R28
                 	SUBI R26,LOW(-@0)
                 	SBCI R27,HIGH(-@0)
                 	ST   X+,R30
                 	ST   X+,R30
                 	ST   X+,R30
                 	ST   X,R30
                 	.ENDM
                 
                 	.MACRO __PUTB2SX
                 	MOVW R30,R28
                 	SUBI R30,LOW(-@0)
                 	SBCI R31,HIGH(-@0)
                 	ST   Z,R26
                 	.ENDM
                 
                 	.MACRO __PUTW2SX
                 	MOVW R30,R28
                 	SUBI R30,LOW(-@0)
                 	SBCI R31,HIGH(-@0)
                 	ST   Z+,R26
                 	ST   Z,R27
                 	.ENDM
                 
                 	.MACRO __PUTD2SX
                 	MOVW R30,R28
                 	SUBI R30,LOW(-@0)
                 	SBCI R31,HIGH(-@0)
                 	ST   Z+,R26
                 	ST   Z+,R27
                 	ST   Z+,R24
                 	ST   Z,R25
                 	.ENDM
                 
                 	.MACRO __PUTBSRX
                 	MOVW R30,R28
                 	SUBI R30,LOW(-@1)
                 	SBCI R31,HIGH(-@1)
                 	ST   Z,R@0
                 	.ENDM
                 
                 	.MACRO __PUTWSRX
                 	MOVW R30,R28
                 	SUBI R30,LOW(-@2)
                 	SBCI R31,HIGH(-@2)
                 	ST   Z+,R@0
                 	ST   Z,R@1
                 	.ENDM
                 
                 	.MACRO __PUTB1SNX
                 	MOVW R26,R28
                 	SUBI R26,LOW(-@0)
                 	SBCI R27,HIGH(-@0)
                 	LD   R0,X+
                 	LD   R27,X
                 	MOV  R26,R0
                 	SUBI R26,LOW(-@1)
                 	SBCI R27,HIGH(-@1)
                 	ST   X,R30
                 	.ENDM
                 
                 	.MACRO __PUTW1SNX
                 	MOVW R26,R28
                 	SUBI R26,LOW(-@0)
                 	SBCI R27,HIGH(-@0)
                 	LD   R0,X+
                 	LD   R27,X
                 	MOV  R26,R0
                 	SUBI R26,LOW(-@1)
                 	SBCI R27,HIGH(-@1)
                 	ST   X+,R30
                 	ST   X,R31
                 	.ENDM
                 
                 	.MACRO __PUTD1SNX
                 	MOVW R26,R28
                 	SUBI R26,LOW(-@0)
                 	SBCI R27,HIGH(-@0)
                 	LD   R0,X+
                 	LD   R27,X
                 	MOV  R26,R0
                 	SUBI R26,LOW(-@1)
                 	SBCI R27,HIGH(-@1)
                 	ST   X+,R30
                 	ST   X+,R31
                 	ST   X+,R22
                 	ST   X,R23
                 	.ENDM
                 
                 	.MACRO __MULBRR
                 	MULS R@0,R@1
                 	MOVW R30,R0
                 	.ENDM
                 
                 	.MACRO __MULBRRU
                 	MUL  R@0,R@1
                 	MOVW R30,R0
                 	.ENDM
                 
                 	.MACRO __MULBRR0
                 	MULS R@0,R@1
                 	.ENDM
                 
                 	.MACRO __MULBRRU0
                 	MUL  R@0,R@1
                 	.ENDM
                 
                 	.MACRO __MULBNWRU
                 	LDI  R26,@2
                 	MUL  R26,R@0
                 	MOVW R30,R0
                 	MUL  R26,R@1
                 	ADD  R31,R0
                 	.ENDM
                 
                 ;NAME DEFINITIONS FOR GLOBAL VARIABLES ALLOCATED TO REGISTERS
                 	.DEF _rx_wr_index=R5
                 	.DEF _rx_rd_index=R4
                 	.DEF _rx_counter=R7
                 	.DEF __lcd_x=R6
                 	.DEF __lcd_y=R9
                 	.DEF __lcd_maxx=R8
                 
                 	.CSEG
                 	.ORG 0x00
                 
                 ;START OF CODE MARKER
                 __START_OF_CODE:
                 
                 ;INTERRUPT VECTORS
000000 940c 1089 	JMP  __RESET
000002 940c 0000 	JMP  0x00
000004 940c 0000 	JMP  0x00
000006 940c 10db 	JMP  _ext_int2_isr
000008 940c 0000 	JMP  0x00
00000a 940c 0000 	JMP  0x00
00000c 940c 0000 	JMP  0x00
00000e 940c 0000 	JMP  0x00
000010 940c 0000 	JMP  0x00
000012 940c 0000 	JMP  0x00
000014 940c 0000 	JMP  0x00
000016 940c 0000 	JMP  0x00
000018 940c 0000 	JMP  0x00
00001a 940c 10b8 	JMP  _usart_rx_isr
00001c 940c 0000 	JMP  0x00
00001e 940c 0000 	JMP  0x00
000020 940c 0000 	JMP  0x00
000022 940c 0000 	JMP  0x00
000024 940c 0000 	JMP  0x00
000026 940c 0000 	JMP  0x00
000028 940c 0000 	JMP  0x00
                 
                 _fuzzy:
00002a 000b
00002b 000b
00002c 000b
00002d 000b      	.DB  0xB,0x0,0xB,0x0,0xB,0x0,0xB,0x0
00002e 000b
00002f 000b
000030 000b
000031 000b      	.DB  0xB,0x0,0xB,0x0,0xB,0x0,0xB,0x0
000032 000b
000033 000c
000034 000c
000035 000d      	.DB  0xB,0x0,0xC,0x0,0xC,0x0,0xD,0x0
000036 000c
000037 000c
000038 000b
000039 000c      	.DB  0xC,0x0,0xC,0x0,0xB,0x0,0xC,0x0
00003a 000c
00003b 000d
00003c 000e
00003d 000d      	.DB  0xC,0x0,0xD,0x0,0xE,0x0,0xD,0x0
00003e 000b
00003f 0011
000040 001e
000041 001e      	.DB  0xB,0x0,0x11,0x0,0x1E,0x0,0x1E,0x0
000042 001e
000043 001e
000044 001e
000045 002c      	.DB  0x1E,0x0,0x1E,0x0,0x1E,0x0,0x2C,0x0
000046 0033
000047 0039
000048 003d
000049 0041      	.DB  0x33,0x0,0x39,0x0,0x3D,0x0,0x41,0x0
00004a 0046
00004b 0046
00004c 0046
00004d 0046      	.DB  0x46,0x0,0x46,0x0,0x46,0x0,0x46,0x0
00004e 0046
00004f 0046
000050 0046
000051 0046      	.DB  0x46,0x0,0x46,0x0,0x46,0x0,0x46,0x0
000052 0046
000053 000b
000054 000b
000055 000b      	.DB  0x46,0x0,0xB,0x0,0xB,0x0,0xB,0x0
000056 000b
000057 000b
000058 000b
000059 000b      	.DB  0xB,0x0,0xB,0x0,0xB,0x0,0xB,0x0
00005a 000b
00005b 000b
00005c 000c
00005d 000c      	.DB  0xB,0x0,0xB,0x0,0xC,0x0,0xC,0x0
00005e 000d
00005f 000c
000060 000c
000061 000b      	.DB  0xD,0x0,0xC,0x0,0xC,0x0,0xB,0x0
000062 000c
000063 000c
000064 000d
000065 000e      	.DB  0xC,0x0,0xC,0x0,0xD,0x0,0xE,0x0
000066 000d
000067 000b
000068 0011
000069 001e      	.DB  0xD,0x0,0xB,0x0,0x11,0x0,0x1E,0x0
00006a 001e
00006b 001e
00006c 001e
00006d 001e      	.DB  0x1E,0x0,0x1E,0x0,0x1E,0x0,0x1E,0x0
00006e 002c
00006f 0033
000070 0039
000071 003d      	.DB  0x2C,0x0,0x33,0x0,0x39,0x0,0x3D,0x0
000072 0041
000073 0046
000074 0046
000075 0046      	.DB  0x41,0x0,0x46,0x0,0x46,0x0,0x46,0x0
000076 0046
000077 0046
000078 0046
000079 0046      	.DB  0x46,0x0,0x46,0x0,0x46,0x0,0x46,0x0
00007a 0046
00007b 0046
00007c 000b
00007d 000b      	.DB  0x46,0x0,0x46,0x0,0xB,0x0,0xB,0x0
00007e 000b
00007f 000b
000080 000b
000081 000b      	.DB  0xB,0x0,0xB,0x0,0xB,0x0,0xB,0x0
000082 000b
000083 000b
000084 000b
000085 000c      	.DB  0xB,0x0,0xB,0x0,0xB,0x0,0xC,0x0
000086 000c
000087 000d
000088 000c
000089 000c      	.DB  0xC,0x0,0xD,0x0,0xC,0x0,0xC,0x0
00008a 000b
00008b 000c
00008c 000c
00008d 000d      	.DB  0xB,0x0,0xC,0x0,0xC,0x0,0xD,0x0
00008e 000e
00008f 000d
000090 000b
000091 0011      	.DB  0xE,0x0,0xD,0x0,0xB,0x0,0x11,0x0
000092 001e
000093 001e
000094 001e
000095 001e      	.DB  0x1E,0x0,0x1E,0x0,0x1E,0x0,0x1E,0x0
000096 001e
000097 002c
000098 0033
000099 0039      	.DB  0x1E,0x0,0x2C,0x0,0x33,0x0,0x39,0x0
00009a 003d
00009b 0041
00009c 0046
00009d 0046      	.DB  0x3D,0x0,0x41,0x0,0x46,0x0,0x46,0x0
00009e 0046
00009f 0046
0000a0 0046
0000a1 0046      	.DB  0x46,0x0,0x46,0x0,0x46,0x0,0x46,0x0
0000a2 0046
0000a3 0046
0000a4 0046
0000a5 000b      	.DB  0x46,0x0,0x46,0x0,0x46,0x0,0xB,0x0
0000a6 000b
0000a7 000b
0000a8 000b
0000a9 000b      	.DB  0xB,0x0,0xB,0x0,0xB,0x0,0xB,0x0
0000aa 000b
0000ab 000b
0000ac 000b
0000ad 000b      	.DB  0xB,0x0,0xB,0x0,0xB,0x0,0xB,0x0
0000ae 000c
0000af 000c
0000b0 000d
0000b1 000c      	.DB  0xC,0x0,0xC,0x0,0xD,0x0,0xC,0x0
0000b2 000c
0000b3 000b
0000b4 000c
0000b5 000c      	.DB  0xC,0x0,0xB,0x0,0xC,0x0,0xC,0x0
0000b6 000d
0000b7 000e
0000b8 000d
0000b9 000b      	.DB  0xD,0x0,0xE,0x0,0xD,0x0,0xB,0x0
0000ba 0011
0000bb 001e
0000bc 001e
0000bd 001e      	.DB  0x11,0x0,0x1E,0x0,0x1E,0x0,0x1E,0x0
0000be 001e
0000bf 001e
0000c0 002c
0000c1 0033      	.DB  0x1E,0x0,0x1E,0x0,0x2C,0x0,0x33,0x0
0000c2 0039
0000c3 003d
0000c4 0041
0000c5 0046      	.DB  0x39,0x0,0x3D,0x0,0x41,0x0,0x46,0x0
0000c6 0046
0000c7 0046
0000c8 0046
0000c9 0046      	.DB  0x46,0x0,0x46,0x0,0x46,0x0,0x46,0x0
0000ca 0046
0000cb 0046
0000cc 0046
0000cd 0046      	.DB  0x46,0x0,0x46,0x0,0x46,0x0,0x46,0x0
0000ce 000b
0000cf 000b
0000d0 000b
0000d1 000b      	.DB  0xB,0x0,0xB,0x0,0xB,0x0,0xB,0x0
0000d2 000b
0000d3 000b
0000d4 000b
0000d5 000b      	.DB  0xB,0x0,0xB,0x0,0xB,0x0,0xB,0x0
0000d6 000b
0000d7 000c
0000d8 000c
0000d9 000d      	.DB  0xB,0x0,0xC,0x0,0xC,0x0,0xD,0x0
0000da 000c
0000db 000c
0000dc 000b
0000dd 000c      	.DB  0xC,0x0,0xC,0x0,0xB,0x0,0xC,0x0
0000de 000c
0000df 000d
0000e0 000e
0000e1 000d      	.DB  0xC,0x0,0xD,0x0,0xE,0x0,0xD,0x0
0000e2 000b
0000e3 0011
0000e4 001e
0000e5 001e      	.DB  0xB,0x0,0x11,0x0,0x1E,0x0,0x1E,0x0
0000e6 001e
0000e7 001e
0000e8 001e
0000e9 002c      	.DB  0x1E,0x0,0x1E,0x0,0x1E,0x0,0x2C,0x0
0000ea 0033
0000eb 0039
0000ec 003d
0000ed 0041      	.DB  0x33,0x0,0x39,0x0,0x3D,0x0,0x41,0x0
0000ee 0046
0000ef 0046
0000f0 0046
0000f1 0046      	.DB  0x46,0x0,0x46,0x0,0x46,0x0,0x46,0x0
0000f2 0046
0000f3 0046
0000f4 0046
0000f5 0046      	.DB  0x46,0x0,0x46,0x0,0x46,0x0,0x46,0x0
0000f6 0046
0000f7 000b
0000f8 000b
0000f9 000b      	.DB  0x46,0x0,0xB,0x0,0xB,0x0,0xB,0x0
0000fa 000b
0000fb 000b
0000fc 000b
0000fd 000b      	.DB  0xB,0x0,0xB,0x0,0xB,0x0,0xB,0x0
0000fe 000b
0000ff 000b
000100 000c
000101 000c      	.DB  0xB,0x0,0xB,0x0,0xC,0x0,0xC,0x0
000102 000d
000103 000c
000104 000c
000105 000b      	.DB  0xD,0x0,0xC,0x0,0xC,0x0,0xB,0x0
000106 000c
000107 000c
000108 000d
000109 000e      	.DB  0xC,0x0,0xC,0x0,0xD,0x0,0xE,0x0
00010a 000d
00010b 000b
00010c 0011
00010d 001e      	.DB  0xD,0x0,0xB,0x0,0x11,0x0,0x1E,0x0
00010e 001e
00010f 001e
000110 001e
000111 001e      	.DB  0x1E,0x0,0x1E,0x0,0x1E,0x0,0x1E,0x0
000112 002c
000113 0033
000114 0039
000115 003d      	.DB  0x2C,0x0,0x33,0x0,0x39,0x0,0x3D,0x0
000116 0041
000117 0046
000118 0046
000119 0046      	.DB  0x41,0x0,0x46,0x0,0x46,0x0,0x46,0x0
00011a 0046
00011b 0046
00011c 0046
00011d 0046      	.DB  0x46,0x0,0x46,0x0,0x46,0x0,0x46,0x0
00011e 0046
00011f 0046
000120 000b
000121 000b      	.DB  0x46,0x0,0x46,0x0,0xB,0x0,0xB,0x0
000122 000b
000123 000b
000124 000b
000125 000b      	.DB  0xB,0x0,0xB,0x0,0xB,0x0,0xB,0x0
000126 000b
000127 000b
000128 000b
000129 000c      	.DB  0xB,0x0,0xB,0x0,0xB,0x0,0xC,0x0
00012a 000c
00012b 000d
00012c 000c
00012d 000c      	.DB  0xC,0x0,0xD,0x0,0xC,0x0,0xC,0x0
00012e 000b
00012f 000c
000130 000c
000131 000d      	.DB  0xB,0x0,0xC,0x0,0xC,0x0,0xD,0x0
000132 000e
000133 000d
000134 000b
000135 0011      	.DB  0xE,0x0,0xD,0x0,0xB,0x0,0x11,0x0
000136 001e
000137 001e
000138 001e
000139 001e      	.DB  0x1E,0x0,0x1E,0x0,0x1E,0x0,0x1E,0x0
00013a 001e
00013b 002c
00013c 0033
00013d 0039      	.DB  0x1E,0x0,0x2C,0x0,0x33,0x0,0x39,0x0
00013e 003d
00013f 0041
000140 0046
000141 0046      	.DB  0x3D,0x0,0x41,0x0,0x46,0x0,0x46,0x0
000142 0046
000143 0046
000144 0046
000145 0046      	.DB  0x46,0x0,0x46,0x0,0x46,0x0,0x46,0x0
000146 0046
000147 0046
000148 0046
000149 000b      	.DB  0x46,0x0,0x46,0x0,0x46,0x0,0xB,0x0
00014a 000b
00014b 000b
00014c 000b
00014d 000b      	.DB  0xB,0x0,0xB,0x0,0xB,0x0,0xB,0x0
00014e 000b
00014f 000b
000150 000b
000151 000b      	.DB  0xB,0x0,0xB,0x0,0xB,0x0,0xB,0x0
000152 000c
000153 000c
000154 000d
000155 000c      	.DB  0xC,0x0,0xC,0x0,0xD,0x0,0xC,0x0
000156 000c
000157 000b
000158 000c
000159 000c      	.DB  0xC,0x0,0xB,0x0,0xC,0x0,0xC,0x0
00015a 000d
00015b 000e
00015c 000d
00015d 000b      	.DB  0xD,0x0,0xE,0x0,0xD,0x0,0xB,0x0
00015e 0011
00015f 001e
000160 001e
000161 001e      	.DB  0x11,0x0,0x1E,0x0,0x1E,0x0,0x1E,0x0
000162 001e
000163 001e
000164 002c
000165 0033      	.DB  0x1E,0x0,0x1E,0x0,0x2C,0x0,0x33,0x0
000166 0039
000167 003d
000168 0041
000169 0046      	.DB  0x39,0x0,0x3D,0x0,0x41,0x0,0x46,0x0
00016a 0046
00016b 0046
00016c 0046
00016d 0046      	.DB  0x46,0x0,0x46,0x0,0x46,0x0,0x46,0x0
00016e 0046
00016f 0046
000170 0046
000171 0046      	.DB  0x46,0x0,0x46,0x0,0x46,0x0,0x46,0x0
000172 000b
000173 000b
000174 000b
000175 000b      	.DB  0xB,0x0,0xB,0x0,0xB,0x0,0xB,0x0
000176 000b
000177 000b
000178 000b
000179 000b      	.DB  0xB,0x0,0xB,0x0,0xB,0x0,0xB,0x0
00017a 000b
00017b 000c
00017c 000c
00017d 000d      	.DB  0xB,0x0,0xC,0x0,0xC,0x0,0xD,0x0
00017e 000c
00017f 000c
000180 000b
000181 000c      	.DB  0xC,0x0,0xC,0x0,0xB,0x0,0xC,0x0
000182 000c
000183 000d
000184 000e
000185 000d      	.DB  0xC,0x0,0xD,0x0,0xE,0x0,0xD,0x0
000186 000b
000187 0011
000188 001e
000189 001e      	.DB  0xB,0x0,0x11,0x0,0x1E,0x0,0x1E,0x0
00018a 001e
00018b 001e
00018c 001e
00018d 002c      	.DB  0x1E,0x0,0x1E,0x0,0x1E,0x0,0x2C,0x0
00018e 0033
00018f 0039
000190 003d
000191 0041      	.DB  0x33,0x0,0x39,0x0,0x3D,0x0,0x41,0x0
000192 0046
000193 0046
000194 0046
000195 0046      	.DB  0x46,0x0,0x46,0x0,0x46,0x0,0x46,0x0
000196 0046
000197 0046
000198 0046
000199 0046      	.DB  0x46,0x0,0x46,0x0,0x46,0x0,0x46,0x0
00019a 0046
00019b 000b
00019c 000b
00019d 000b      	.DB  0x46,0x0,0xB,0x0,0xB,0x0,0xB,0x0
00019e 000b
00019f 000b
0001a0 000b
0001a1 000b      	.DB  0xB,0x0,0xB,0x0,0xB,0x0,0xB,0x0
0001a2 000b
0001a3 000b
0001a4 000c
0001a5 000c      	.DB  0xB,0x0,0xB,0x0,0xC,0x0,0xC,0x0
0001a6 000d
0001a7 000c
0001a8 000c
0001a9 000b      	.DB  0xD,0x0,0xC,0x0,0xC,0x0,0xB,0x0
0001aa 000c
0001ab 000c
0001ac 000d
0001ad 000e      	.DB  0xC,0x0,0xC,0x0,0xD,0x0,0xE,0x0
0001ae 000d
0001af 000b
0001b0 0011
0001b1 001e      	.DB  0xD,0x0,0xB,0x0,0x11,0x0,0x1E,0x0
0001b2 001e
0001b3 001e
0001b4 001e
0001b5 001e      	.DB  0x1E,0x0,0x1E,0x0,0x1E,0x0,0x1E,0x0
0001b6 002c
0001b7 0033
0001b8 0039
0001b9 003d      	.DB  0x2C,0x0,0x33,0x0,0x39,0x0,0x3D,0x0
0001ba 0041
0001bb 0046
0001bc 0046
0001bd 0046      	.DB  0x41,0x0,0x46,0x0,0x46,0x0,0x46,0x0
0001be 0046
0001bf 0046
0001c0 0046
0001c1 0046      	.DB  0x46,0x0,0x46,0x0,0x46,0x0,0x46,0x0
0001c2 0046
0001c3 0046
0001c4 000b
0001c5 000b      	.DB  0x46,0x0,0x46,0x0,0xB,0x0,0xB,0x0
0001c6 000b
0001c7 000b
0001c8 000b
0001c9 000b      	.DB  0xB,0x0,0xB,0x0,0xB,0x0,0xB,0x0
0001ca 000b
0001cb 000b
0001cc 000b
0001cd 000c      	.DB  0xB,0x0,0xB,0x0,0xB,0x0,0xC,0x0
0001ce 000c
0001cf 000d
0001d0 000c
0001d1 000c      	.DB  0xC,0x0,0xD,0x0,0xC,0x0,0xC,0x0
0001d2 000b
0001d3 000c
0001d4 000c
0001d5 000d      	.DB  0xB,0x0,0xC,0x0,0xC,0x0,0xD,0x0
0001d6 000e
0001d7 000d
0001d8 000b
0001d9 0011      	.DB  0xE,0x0,0xD,0x0,0xB,0x0,0x11,0x0
0001da 001e
0001db 001e
0001dc 001e
0001dd 001e      	.DB  0x1E,0x0,0x1E,0x0,0x1E,0x0,0x1E,0x0
0001de 001e
0001df 002c
0001e0 0033
0001e1 0039      	.DB  0x1E,0x0,0x2C,0x0,0x33,0x0,0x39,0x0
0001e2 003d
0001e3 0041
0001e4 0046
0001e5 0046      	.DB  0x3D,0x0,0x41,0x0,0x46,0x0,0x46,0x0
0001e6 0046
0001e7 0046
0001e8 0046
0001e9 0046      	.DB  0x46,0x0,0x46,0x0,0x46,0x0,0x46,0x0
0001ea 0046
0001eb 0046
0001ec 0046
0001ed 000c      	.DB  0x46,0x0,0x46,0x0,0x46,0x0,0xC,0x0
0001ee 000c
0001ef 000c
0001f0 000c
0001f1 000c      	.DB  0xC,0x0,0xC,0x0,0xC,0x0,0xC,0x0
0001f2 000c
0001f3 000c
0001f4 000c
0001f5 000c      	.DB  0xC,0x0,0xC,0x0,0xC,0x0,0xC,0x0
0001f6 000c
0001f7 000c
0001f8 000d
0001f9 000c      	.DB  0xC,0x0,0xC,0x0,0xD,0x0,0xC,0x0
0001fa 000c
0001fb 000c
0001fc 000c
0001fd 000c      	.DB  0xC,0x0,0xC,0x0,0xC,0x0,0xC,0x0
0001fe 000d
0001ff 000e
000200 000d
000201 000c      	.DB  0xD,0x0,0xE,0x0,0xD,0x0,0xC,0x0
000202 0011
000203 001e
000204 001e
000205 001e      	.DB  0x11,0x0,0x1E,0x0,0x1E,0x0,0x1E,0x0
000206 001e
000207 001e
000208 002c
000209 0033      	.DB  0x1E,0x0,0x1E,0x0,0x2C,0x0,0x33,0x0
00020a 0039
00020b 003d
00020c 0041
00020d 0046      	.DB  0x39,0x0,0x3D,0x0,0x41,0x0,0x46,0x0
00020e 0046
00020f 0046
000210 0046
000211 0046      	.DB  0x46,0x0,0x46,0x0,0x46,0x0,0x46,0x0
000212 0046
000213 0046
000214 0046
000215 0046      	.DB  0x46,0x0,0x46,0x0,0x46,0x0,0x46,0x0
000216 000c
000217 000c
000218 000c
000219 000c      	.DB  0xC,0x0,0xC,0x0,0xC,0x0,0xC,0x0
00021a 000c
00021b 000c
00021c 000c
00021d 000c      	.DB  0xC,0x0,0xC,0x0,0xC,0x0,0xC,0x0
00021e 000c
00021f 000c
000220 000c
000221 000d      	.DB  0xC,0x0,0xC,0x0,0xC,0x0,0xD,0x0
000222 000c
000223 000c
000224 000c
000225 000c      	.DB  0xC,0x0,0xC,0x0,0xC,0x0,0xC,0x0
000226 000c
000227 000d
000228 000e
000229 000d      	.DB  0xC,0x0,0xD,0x0,0xE,0x0,0xD,0x0
00022a 000c
00022b 0011
00022c 001e
00022d 001e      	.DB  0xC,0x0,0x11,0x0,0x1E,0x0,0x1E,0x0
00022e 001e
00022f 001e
000230 001e
000231 002c      	.DB  0x1E,0x0,0x1E,0x0,0x1E,0x0,0x2C,0x0
000232 0033
000233 0039
000234 003d
000235 0041      	.DB  0x33,0x0,0x39,0x0,0x3D,0x0,0x41,0x0
000236 0046
000237 0046
000238 0046
000239 0046      	.DB  0x46,0x0,0x46,0x0,0x46,0x0,0x46,0x0
00023a 0046
00023b 0046
00023c 0046
00023d 0046      	.DB  0x46,0x0,0x46,0x0,0x46,0x0,0x46,0x0
00023e 0046
00023f 000c
000240 000c
000241 000c      	.DB  0x46,0x0,0xC,0x0,0xC,0x0,0xC,0x0
000242 000c
000243 000c
000244 000c
000245 000c      	.DB  0xC,0x0,0xC,0x0,0xC,0x0,0xC,0x0
000246 000c
000247 000c
000248 000c
000249 000c      	.DB  0xC,0x0,0xC,0x0,0xC,0x0,0xC,0x0
00024a 000d
00024b 000c
00024c 000c
00024d 000c      	.DB  0xD,0x0,0xC,0x0,0xC,0x0,0xC,0x0
00024e 000c
00024f 000c
000250 000d
000251 000e      	.DB  0xC,0x0,0xC,0x0,0xD,0x0,0xE,0x0
000252 000d
000253 000c
000254 0011
000255 001e      	.DB  0xD,0x0,0xC,0x0,0x11,0x0,0x1E,0x0
000256 001e
000257 001e
000258 001e
000259 001e      	.DB  0x1E,0x0,0x1E,0x0,0x1E,0x0,0x1E,0x0
00025a 002c
00025b 0033
00025c 0039
00025d 003d      	.DB  0x2C,0x0,0x33,0x0,0x39,0x0,0x3D,0x0
00025e 0042
00025f 0047
000260 0047
000261 0047      	.DB  0x42,0x0,0x47,0x0,0x47,0x0,0x47,0x0
000262 0047
000263 0047
000264 0047
000265 0047      	.DB  0x47,0x0,0x47,0x0,0x47,0x0,0x47,0x0
000266 0047
000267 0047
000268 000c
000269 000c      	.DB  0x47,0x0,0x47,0x0,0xC,0x0,0xC,0x0
00026a 000c
00026b 000c
00026c 000c
00026d 000c      	.DB  0xC,0x0,0xC,0x0,0xC,0x0,0xC,0x0
00026e 000c
00026f 000c
000270 000c
000271 000c      	.DB  0xC,0x0,0xC,0x0,0xC,0x0,0xC,0x0
000272 000c
000273 000d
000274 000c
000275 000c      	.DB  0xC,0x0,0xD,0x0,0xC,0x0,0xC,0x0
000276 000c
000277 000c
000278 000c
000279 000d      	.DB  0xC,0x0,0xC,0x0,0xC,0x0,0xD,0x0
00027a 000e
00027b 000d
00027c 000c
00027d 0011      	.DB  0xE,0x0,0xD,0x0,0xC,0x0,0x11,0x0
00027e 001e
00027f 001e
000280 001e
000281 001e      	.DB  0x1E,0x0,0x1E,0x0,0x1E,0x0,0x1E,0x0
000282 001e
000283 002c
000284 0033
000285 0039      	.DB  0x1E,0x0,0x2C,0x0,0x33,0x0,0x39,0x0
000286 003d
000287 0042
000288 0047
000289 0047      	.DB  0x3D,0x0,0x42,0x0,0x47,0x0,0x47,0x0
00028a 0047
00028b 0047
00028c 0047
00028d 0047      	.DB  0x47,0x0,0x47,0x0,0x47,0x0,0x47,0x0
00028e 0047
00028f 0047
000290 0047
000291 000c      	.DB  0x47,0x0,0x47,0x0,0x47,0x0,0xC,0x0
000292 000c
000293 000c
000294 000c
000295 000c      	.DB  0xC,0x0,0xC,0x0,0xC,0x0,0xC,0x0
000296 000c
000297 000c
000298 000c
000299 000c      	.DB  0xC,0x0,0xC,0x0,0xC,0x0,0xC,0x0
00029a 000c
00029b 000c
00029c 000d
00029d 000c      	.DB  0xC,0x0,0xC,0x0,0xD,0x0,0xC,0x0
00029e 000c
00029f 000c
0002a0 000c
0002a1 000c      	.DB  0xC,0x0,0xC,0x0,0xC,0x0,0xC,0x0
0002a2 000d
0002a3 000e
0002a4 000d
0002a5 000c      	.DB  0xD,0x0,0xE,0x0,0xD,0x0,0xC,0x0
0002a6 0011
0002a7 001e
0002a8 001e
0002a9 001e      	.DB  0x11,0x0,0x1E,0x0,0x1E,0x0,0x1E,0x0
0002aa 001e
0002ab 001e
0002ac 002d
0002ad 0033      	.DB  0x1E,0x0,0x1E,0x0,0x2D,0x0,0x33,0x0
0002ae 0039
0002af 003d
0002b0 0042
0002b1 0047      	.DB  0x39,0x0,0x3D,0x0,0x42,0x0,0x47,0x0
0002b2 0047
0002b3 0047
0002b4 0047
0002b5 0047      	.DB  0x47,0x0,0x47,0x0,0x47,0x0,0x47,0x0
0002b6 0047
0002b7 0047
0002b8 0047
0002b9 0047      	.DB  0x47,0x0,0x47,0x0,0x47,0x0,0x47,0x0
0002ba 000d
0002bb 000d
0002bc 000d
0002bd 000d      	.DB  0xD,0x0,0xD,0x0,0xD,0x0,0xD,0x0
0002be 000d
0002bf 000d
0002c0 000d
0002c1 000d      	.DB  0xD,0x0,0xD,0x0,0xD,0x0,0xD,0x0
0002c2 000d
0002c3 000d
0002c4 000d
0002c5 000d      	.DB  0xD,0x0,0xD,0x0,0xD,0x0,0xD,0x0
0002c6 000d
0002c7 000d
0002c8 000d
0002c9 000d      	.DB  0xD,0x0,0xD,0x0,0xD,0x0,0xD,0x0
0002ca 000d
0002cb 000d
0002cc 000e
0002cd 000d      	.DB  0xD,0x0,0xD,0x0,0xE,0x0,0xD,0x0
0002ce 000d
0002cf 0011
0002d0 001e
0002d1 001e      	.DB  0xD,0x0,0x11,0x0,0x1E,0x0,0x1E,0x0
0002d2 001e
0002d3 001e
0002d4 001e
0002d5 002d      	.DB  0x1E,0x0,0x1E,0x0,0x1E,0x0,0x2D,0x0
0002d6 0034
0002d7 0039
0002d8 003d
0002d9 0043      	.DB  0x34,0x0,0x39,0x0,0x3D,0x0,0x43,0x0
0002da 0048
0002db 0048
0002dc 0048
0002dd 0048      	.DB  0x48,0x0,0x48,0x0,0x48,0x0,0x48,0x0
0002de 0048
0002df 0048
0002e0 0048
0002e1 0048      	.DB  0x48,0x0,0x48,0x0,0x48,0x0,0x48,0x0
0002e2 0048
0002e3 000d
0002e4 000d
0002e5 000d      	.DB  0x48,0x0,0xD,0x0,0xD,0x0,0xD,0x0
0002e6 000d
0002e7 000d
0002e8 000d
0002e9 000d      	.DB  0xD,0x0,0xD,0x0,0xD,0x0,0xD,0x0
0002ea 000d
0002eb 000d
0002ec 000d
0002ed 000d      	.DB  0xD,0x0,0xD,0x0,0xD,0x0,0xD,0x0
0002ee 000d
0002ef 000d
0002f0 000d
0002f1 000d      	.DB  0xD,0x0,0xD,0x0,0xD,0x0,0xD,0x0
0002f2 000d
0002f3 000d
0002f4 000d
0002f5 000e      	.DB  0xD,0x0,0xD,0x0,0xD,0x0,0xE,0x0
0002f6 000d
0002f7 000d
0002f8 0011
0002f9 001e      	.DB  0xD,0x0,0xD,0x0,0x11,0x0,0x1E,0x0
0002fa 001e
0002fb 001e
0002fc 001e
0002fd 001e      	.DB  0x1E,0x0,0x1E,0x0,0x1E,0x0,0x1E,0x0
0002fe 002e
0002ff 0035
000300 0039
000301 003e      	.DB  0x2E,0x0,0x35,0x0,0x39,0x0,0x3E,0x0
000302 0043
000303 0049
000304 0049
000305 0049      	.DB  0x43,0x0,0x49,0x0,0x49,0x0,0x49,0x0
000306 0049
000307 0049
000308 0049
000309 0049      	.DB  0x49,0x0,0x49,0x0,0x49,0x0,0x49,0x0
00030a 0049
00030b 0049
00030c 000d
00030d 000d      	.DB  0x49,0x0,0x49,0x0,0xD,0x0,0xD,0x0
00030e 000d
00030f 000d
000310 000d
000311 000d      	.DB  0xD,0x0,0xD,0x0,0xD,0x0,0xD,0x0
000312 000d
000313 000d
000314 000d
000315 000d      	.DB  0xD,0x0,0xD,0x0,0xD,0x0,0xD,0x0
000316 000d
000317 000d
000318 000d
000319 000d      	.DB  0xD,0x0,0xD,0x0,0xD,0x0,0xD,0x0
00031a 000d
00031b 000d
00031c 000d
00031d 000d      	.DB  0xD,0x0,0xD,0x0,0xD,0x0,0xD,0x0
00031e 000e
00031f 000d
000320 000d
000321 0011      	.DB  0xE,0x0,0xD,0x0,0xD,0x0,0x11,0x0
000322 001e
000323 001e
000324 001e
000325 001e      	.DB  0x1E,0x0,0x1E,0x0,0x1E,0x0,0x1E,0x0
000326 001e
000327 002e
000328 0035
000329 0039      	.DB  0x1E,0x0,0x2E,0x0,0x35,0x0,0x39,0x0
00032a 003e
00032b 0043
00032c 0049
00032d 0049      	.DB  0x3E,0x0,0x43,0x0,0x49,0x0,0x49,0x0
00032e 0049
00032f 0049
000330 0049
000331 0049      	.DB  0x49,0x0,0x49,0x0,0x49,0x0,0x49,0x0
000332 0049
000333 0049
000334 0049
000335 000d      	.DB  0x49,0x0,0x49,0x0,0x49,0x0,0xD,0x0
000336 000d
000337 000d
000338 000d
000339 000d      	.DB  0xD,0x0,0xD,0x0,0xD,0x0,0xD,0x0
00033a 000d
00033b 000d
00033c 000d
00033d 000d      	.DB  0xD,0x0,0xD,0x0,0xD,0x0,0xD,0x0
00033e 000d
00033f 000d
000340 000d
000341 000d      	.DB  0xD,0x0,0xD,0x0,0xD,0x0,0xD,0x0
000342 000d
000343 000d
000344 000d
000345 000d      	.DB  0xD,0x0,0xD,0x0,0xD,0x0,0xD,0x0
000346 000d
000347 000e
000348 000d
000349 000d      	.DB  0xD,0x0,0xE,0x0,0xD,0x0,0xD,0x0
00034a 0011
00034b 001e
00034c 001e
00034d 001e      	.DB  0x11,0x0,0x1E,0x0,0x1E,0x0,0x1E,0x0
00034e 001e
00034f 001e
000350 002d
000351 0034      	.DB  0x1E,0x0,0x1E,0x0,0x2D,0x0,0x34,0x0
000352 0039
000353 003d
000354 0043
000355 0048      	.DB  0x39,0x0,0x3D,0x0,0x43,0x0,0x48,0x0
000356 0048
000357 0048
000358 0048
000359 0048      	.DB  0x48,0x0,0x48,0x0,0x48,0x0,0x48,0x0
00035a 0048
00035b 0048
00035c 0048
00035d 0048      	.DB  0x48,0x0,0x48,0x0,0x48,0x0,0x48,0x0
00035e 000c
00035f 000c
000360 000c
000361 000c      	.DB  0xC,0x0,0xC,0x0,0xC,0x0,0xC,0x0
000362 000c
000363 000c
000364 000c
000365 000c      	.DB  0xC,0x0,0xC,0x0,0xC,0x0,0xC,0x0
000366 000c
000367 000c
000368 000c
000369 000d      	.DB  0xC,0x0,0xC,0x0,0xC,0x0,0xD,0x0
00036a 000c
00036b 000c
00036c 000c
00036d 000c      	.DB  0xC,0x0,0xC,0x0,0xC,0x0,0xC,0x0
00036e 000c
00036f 000d
000370 000e
000371 000d      	.DB  0xC,0x0,0xD,0x0,0xE,0x0,0xD,0x0
000372 000c
000373 0011
000374 001e
000375 001e      	.DB  0xC,0x0,0x11,0x0,0x1E,0x0,0x1E,0x0
000376 001e
000377 001e
000378 001e
000379 002d      	.DB  0x1E,0x0,0x1E,0x0,0x1E,0x0,0x2D,0x0
00037a 0033
00037b 0039
00037c 003d
00037d 0042      	.DB  0x33,0x0,0x39,0x0,0x3D,0x0,0x42,0x0
00037e 0047
00037f 0047
000380 0047
000381 0047      	.DB  0x47,0x0,0x47,0x0,0x47,0x0,0x47,0x0
000382 0047
000383 0047
000384 0047
000385 0047      	.DB  0x47,0x0,0x47,0x0,0x47,0x0,0x47,0x0
000386 0047
000387 000c
000388 000c
000389 000c      	.DB  0x47,0x0,0xC,0x0,0xC,0x0,0xC,0x0
00038a 000c
00038b 000c
00038c 000c
00038d 000c      	.DB  0xC,0x0,0xC,0x0,0xC,0x0,0xC,0x0
00038e 000c
00038f 000c
000390 000c
000391 000c      	.DB  0xC,0x0,0xC,0x0,0xC,0x0,0xC,0x0
000392 000d
000393 000c
000394 000c
000395 000c      	.DB  0xD,0x0,0xC,0x0,0xC,0x0,0xC,0x0
000396 000c
000397 000c
000398 000d
000399 000e      	.DB  0xC,0x0,0xC,0x0,0xD,0x0,0xE,0x0
00039a 000d
00039b 000c
00039c 0011
00039d 001e      	.DB  0xD,0x0,0xC,0x0,0x11,0x0,0x1E,0x0
00039e 001e
00039f 001e
0003a0 001e
0003a1 001e      	.DB  0x1E,0x0,0x1E,0x0,0x1E,0x0,0x1E,0x0
0003a2 002c
0003a3 0033
0003a4 0039
0003a5 003d      	.DB  0x2C,0x0,0x33,0x0,0x39,0x0,0x3D,0x0
0003a6 0042
0003a7 0047
0003a8 0047
0003a9 0047      	.DB  0x42,0x0,0x47,0x0,0x47,0x0,0x47,0x0
0003aa 0047
0003ab 0047
0003ac 0047
0003ad 0047      	.DB  0x47,0x0,0x47,0x0,0x47,0x0,0x47,0x0
0003ae 0047
0003af 0047
0003b0 000c
0003b1 000c      	.DB  0x47,0x0,0x47,0x0,0xC,0x0,0xC,0x0
0003b2 000c
0003b3 000c
0003b4 000c
0003b5 000c      	.DB  0xC,0x0,0xC,0x0,0xC,0x0,0xC,0x0
0003b6 000c
0003b7 000c
0003b8 000c
0003b9 000c      	.DB  0xC,0x0,0xC,0x0,0xC,0x0,0xC,0x0
0003ba 000c
0003bb 000d
0003bc 000c
0003bd 000c      	.DB  0xC,0x0,0xD,0x0,0xC,0x0,0xC,0x0
0003be 000c
0003bf 000c
0003c0 000c
0003c1 000d      	.DB  0xC,0x0,0xC,0x0,0xC,0x0,0xD,0x0
0003c2 000e
0003c3 000d
0003c4 000c
0003c5 0011      	.DB  0xE,0x0,0xD,0x0,0xC,0x0,0x11,0x0
0003c6 001e
0003c7 001e
0003c8 001e
0003c9 001e      	.DB  0x1E,0x0,0x1E,0x0,0x1E,0x0,0x1E,0x0
0003ca 001e
0003cb 002c
0003cc 0033
0003cd 0039      	.DB  0x1E,0x0,0x2C,0x0,0x33,0x0,0x39,0x0
0003ce 003d
0003cf 0042
0003d0 0047
0003d1 0047      	.DB  0x3D,0x0,0x42,0x0,0x47,0x0,0x47,0x0
0003d2 0047
0003d3 0047
0003d4 0047
0003d5 0047      	.DB  0x47,0x0,0x47,0x0,0x47,0x0,0x47,0x0
0003d6 0047
0003d7 0047
0003d8 0047
0003d9 000c      	.DB  0x47,0x0,0x47,0x0,0x47,0x0,0xC,0x0
0003da 000c
0003db 000c
0003dc 000c
0003dd 000c      	.DB  0xC,0x0,0xC,0x0,0xC,0x0,0xC,0x0
0003de 000c
0003df 000c
0003e0 000c
0003e1 000c      	.DB  0xC,0x0,0xC,0x0,0xC,0x0,0xC,0x0
0003e2 000c
0003e3 000c
0003e4 000d
0003e5 000c      	.DB  0xC,0x0,0xC,0x0,0xD,0x0,0xC,0x0
0003e6 000c
0003e7 000c
0003e8 000c
0003e9 000c      	.DB  0xC,0x0,0xC,0x0,0xC,0x0,0xC,0x0
0003ea 000d
0003eb 000e
0003ec 000d
0003ed 000c      	.DB  0xD,0x0,0xE,0x0,0xD,0x0,0xC,0x0
0003ee 0011
0003ef 001e
0003f0 001e
0003f1 001e      	.DB  0x11,0x0,0x1E,0x0,0x1E,0x0,0x1E,0x0
0003f2 001e
0003f3 001e
0003f4 002c
0003f5 0033      	.DB  0x1E,0x0,0x1E,0x0,0x2C,0x0,0x33,0x0
0003f6 0039
0003f7 003d
0003f8 0041
0003f9 0046      	.DB  0x39,0x0,0x3D,0x0,0x41,0x0,0x46,0x0
0003fa 0046
0003fb 0046
0003fc 0046
0003fd 0046      	.DB  0x46,0x0,0x46,0x0,0x46,0x0,0x46,0x0
0003fe 0046
0003ff 0046
000400 0046
000401 0046      	.DB  0x46,0x0,0x46,0x0,0x46,0x0,0x46,0x0
000402 000c
000403 000c
000404 000c
000405 000c      	.DB  0xC,0x0,0xC,0x0,0xC,0x0,0xC,0x0
000406 000c
000407 000c
000408 000c
000409 000c      	.DB  0xC,0x0,0xC,0x0,0xC,0x0,0xC,0x0
00040a 000c
00040b 000c
00040c 000c
00040d 000d      	.DB  0xC,0x0,0xC,0x0,0xC,0x0,0xD,0x0
00040e 000c
00040f 000c
000410 000c
000411 000c      	.DB  0xC,0x0,0xC,0x0,0xC,0x0,0xC,0x0
000412 000c
000413 000d
000414 000e
000415 000d      	.DB  0xC,0x0,0xD,0x0,0xE,0x0,0xD,0x0
000416 000c
000417 0011
000418 001e
000419 001e      	.DB  0xC,0x0,0x11,0x0,0x1E,0x0,0x1E,0x0
00041a 001e
00041b 001e
00041c 001e
00041d 002c      	.DB  0x1E,0x0,0x1E,0x0,0x1E,0x0,0x2C,0x0
00041e 0033
00041f 0039
000420 003d
000421 0041      	.DB  0x33,0x0,0x39,0x0,0x3D,0x0,0x41,0x0
000422 0046
000423 0046
000424 0046
000425 0046      	.DB  0x46,0x0,0x46,0x0,0x46,0x0,0x46,0x0
000426 0046
000427 0046
000428 0046
000429 0046      	.DB  0x46,0x0,0x46,0x0,0x46,0x0,0x46,0x0
00042a 0046
00042b 000b
00042c 000b
00042d 000b      	.DB  0x46,0x0,0xB,0x0,0xB,0x0,0xB,0x0
00042e 000b
00042f 000b
000430 000b
000431 000b      	.DB  0xB,0x0,0xB,0x0,0xB,0x0,0xB,0x0
000432 000b
000433 000b
000434 000c
000435 000c      	.DB  0xB,0x0,0xB,0x0,0xC,0x0,0xC,0x0
000436 000d
000437 000c
000438 000c
000439 000b      	.DB  0xD,0x0,0xC,0x0,0xC,0x0,0xB,0x0
00043a 000c
00043b 000c
00043c 000d
00043d 000e      	.DB  0xC,0x0,0xC,0x0,0xD,0x0,0xE,0x0
00043e 000d
00043f 000b
000440 0011
000441 001e      	.DB  0xD,0x0,0xB,0x0,0x11,0x0,0x1E,0x0
000442 001e
000443 001e
000444 001e
000445 001e      	.DB  0x1E,0x0,0x1E,0x0,0x1E,0x0,0x1E,0x0
000446 002c
000447 0033
000448 0039
000449 003d      	.DB  0x2C,0x0,0x33,0x0,0x39,0x0,0x3D,0x0
00044a 0041
00044b 0046
00044c 0046
00044d 0046      	.DB  0x41,0x0,0x46,0x0,0x46,0x0,0x46,0x0
00044e 0046
00044f 0046
000450 0046
000451 0046      	.DB  0x46,0x0,0x46,0x0,0x46,0x0,0x46,0x0
000452 0046
000453 0046
000454 000c
000455 000c      	.DB  0x46,0x0,0x46,0x0,0xC,0x0,0xC,0x0
000456 000c
000457 000c
000458 000c
000459 000c      	.DB  0xC,0x0,0xC,0x0,0xC,0x0,0xC,0x0
00045a 000c
00045b 000c
00045c 000c
00045d 000d      	.DB  0xC,0x0,0xC,0x0,0xC,0x0,0xD,0x0
00045e 000e
00045f 000f
000460 000e
000461 000d      	.DB  0xE,0x0,0xF,0x0,0xE,0x0,0xD,0x0
000462 000d
000463 000d
000464 000e
000465 000f      	.DB  0xD,0x0,0xD,0x0,0xE,0x0,0xF,0x0
000466 0010
000467 0011
000468 000e
000469 0019      	.DB  0x10,0x0,0x11,0x0,0xE,0x0,0x19,0x0
00046a 0028
00046b 0026
00046c 0025
00046d 0024      	.DB  0x28,0x0,0x26,0x0,0x25,0x0,0x24,0x0
00046e 0024
00046f 002d
000470 0034
000471 0039      	.DB  0x24,0x0,0x2D,0x0,0x34,0x0,0x39,0x0
000472 003d
000473 0042
000474 0046
000475 0046      	.DB  0x3D,0x0,0x42,0x0,0x46,0x0,0x46,0x0
000476 0046
000477 0046
000478 0046
000479 0046      	.DB  0x46,0x0,0x46,0x0,0x46,0x0,0x46,0x0
00047a 0046
00047b 0046
00047c 0046
00047d 000c      	.DB  0x46,0x0,0x46,0x0,0x46,0x0,0xC,0x0
00047e 000c
00047f 000c
000480 000c
000481 000c      	.DB  0xC,0x0,0xC,0x0,0xC,0x0,0xC,0x0
000482 000c
000483 000c
000484 000c
000485 000c      	.DB  0xC,0x0,0xC,0x0,0xC,0x0,0xC,0x0
000486 000e
000487 000f
000488 0010
000489 000f      	.DB  0xE,0x0,0xF,0x0,0x10,0x0,0xF,0x0
00048a 000e
00048b 000e
00048c 000e
00048d 000f      	.DB  0xE,0x0,0xE,0x0,0xE,0x0,0xF,0x0
00048e 0010
00048f 0012
000490 0014
000491 0011      	.DB  0x10,0x0,0x12,0x0,0x14,0x0,0x11,0x0
000492 001e
000493 002d
000494 002a
000495 0029      	.DB  0x1E,0x0,0x2D,0x0,0x2A,0x0,0x29,0x0
000496 0028
000497 0028
000498 002e
000499 0035      	.DB  0x28,0x0,0x28,0x0,0x2E,0x0,0x35,0x0
00049a 0039
00049b 003e
00049c 0042
00049d 0046      	.DB  0x39,0x0,0x3E,0x0,0x42,0x0,0x46,0x0
00049e 0046
00049f 0046
0004a0 0046
0004a1 0046      	.DB  0x46,0x0,0x46,0x0,0x46,0x0,0x46,0x0
0004a2 0046
0004a3 0046
0004a4 0046
0004a5 0046      	.DB  0x46,0x0,0x46,0x0,0x46,0x0,0x46,0x0
0004a6 000c
0004a7 000c
0004a8 000c
0004a9 000c      	.DB  0xC,0x0,0xC,0x0,0xC,0x0,0xC,0x0
0004aa 000c
0004ab 000c
0004ac 000c
0004ad 000c      	.DB  0xC,0x0,0xC,0x0,0xC,0x0,0xC,0x0
0004ae 000c
0004af 000f
0004b0 0010
0004b1 0011      	.DB  0xC,0x0,0xF,0x0,0x10,0x0,0x11,0x0
0004b2 0010
0004b3 000f
0004b4 000f
0004b5 000f      	.DB  0x10,0x0,0xF,0x0,0xF,0x0,0xF,0x0
0004b6 0010
0004b7 0011
0004b8 0013
0004b9 0016      	.DB  0x10,0x0,0x11,0x0,0x13,0x0,0x16,0x0
0004ba 0013
0004bb 0021
0004bc 0031
0004bd 002e      	.DB  0x13,0x0,0x21,0x0,0x31,0x0,0x2E,0x0
0004be 002c
0004bf 002c
0004c0 002c
0004c1 0030      	.DB  0x2C,0x0,0x2C,0x0,0x2C,0x0,0x30,0x0
0004c2 0035
0004c3 003a
0004c4 003e
0004c5 0042      	.DB  0x35,0x0,0x3A,0x0,0x3E,0x0,0x42,0x0
0004c6 0047
0004c7 0047
0004c8 0047
0004c9 0047      	.DB  0x47,0x0,0x47,0x0,0x47,0x0,0x47,0x0
0004ca 0047
0004cb 0047
0004cc 0047
0004cd 0047      	.DB  0x47,0x0,0x47,0x0,0x47,0x0,0x47,0x0
0004ce 0047
0004cf 000c
0004d0 000c
0004d1 000c      	.DB  0x47,0x0,0xC,0x0,0xC,0x0,0xC,0x0
0004d2 000c
0004d3 000c
0004d4 000c
0004d5 000c      	.DB  0xC,0x0,0xC,0x0,0xC,0x0,0xC,0x0
0004d6 000c
0004d7 000c
0004d8 000f
0004d9 0011      	.DB  0xC,0x0,0xC,0x0,0xF,0x0,0x11,0x0
0004da 0012
0004db 0011
0004dc 0010
0004dd 0010      	.DB  0x12,0x0,0x11,0x0,0x10,0x0,0x10,0x0
0004de 0010
0004df 0011
0004e0 0012
0004e1 0014      	.DB  0x10,0x0,0x11,0x0,0x12,0x0,0x14,0x0
0004e2 0018
0004e3 0015
0004e4 0021
0004e5 0033      	.DB  0x18,0x0,0x15,0x0,0x21,0x0,0x33,0x0
0004e6 0030
0004e7 002e
0004e8 002e
0004e9 002e      	.DB  0x30,0x0,0x2E,0x0,0x2E,0x0,0x2E,0x0
0004ea 0032
0004eb 0036
0004ec 003a
0004ed 003e      	.DB  0x32,0x0,0x36,0x0,0x3A,0x0,0x3E,0x0
0004ee 0042
0004ef 0047
0004f0 0047
0004f1 0047      	.DB  0x42,0x0,0x47,0x0,0x47,0x0,0x47,0x0
0004f2 0047
0004f3 0047
0004f4 0047
0004f5 0047      	.DB  0x47,0x0,0x47,0x0,0x47,0x0,0x47,0x0
0004f6 0047
0004f7 0047
0004f8 000c
0004f9 000c      	.DB  0x47,0x0,0x47,0x0,0xC,0x0,0xC,0x0
0004fa 000c
0004fb 000c
0004fc 000c
0004fd 000c      	.DB  0xC,0x0,0xC,0x0,0xC,0x0,0xC,0x0
0004fe 000c
0004ff 000c
000500 000c
000501 000f      	.DB  0xC,0x0,0xC,0x0,0xC,0x0,0xF,0x0
000502 0012
000503 0013
000504 0012
000505 0012      	.DB  0x12,0x0,0x13,0x0,0x12,0x0,0x12,0x0
000506 0012
000507 0012
000508 0012
000509 0013      	.DB  0x12,0x0,0x12,0x0,0x12,0x0,0x13,0x0
00050a 0015
00050b 0019
00050c 0017
00050d 0022      	.DB  0x15,0x0,0x19,0x0,0x17,0x0,0x22,0x0
00050e 0035
00050f 0032
000510 0030
000511 0030      	.DB  0x35,0x0,0x32,0x0,0x30,0x0,0x30,0x0
000512 0030
000513 0033
000514 0037
000515 003b      	.DB  0x30,0x0,0x33,0x0,0x37,0x0,0x3B,0x0
000516 003e
000517 0042
000518 0047
000519 0047      	.DB  0x3E,0x0,0x42,0x0,0x47,0x0,0x47,0x0
00051a 0047
00051b 0047
00051c 0047
00051d 0047      	.DB  0x47,0x0,0x47,0x0,0x47,0x0,0x47,0x0
00051e 0047
00051f 0047
000520 0047
000521 000d      	.DB  0x47,0x0,0x47,0x0,0x47,0x0,0xD,0x0
000522 000d
000523 000d
000524 000d
000525 000d      	.DB  0xD,0x0,0xD,0x0,0xD,0x0,0xD,0x0
000526 000d
000527 000d
000528 000d
000529 000d      	.DB  0xD,0x0,0xD,0x0,0xD,0x0,0xD,0x0
00052a 0010
00052b 0012
00052c 0014
00052d 0013      	.DB  0x10,0x0,0x12,0x0,0x14,0x0,0x13,0x0
00052e 0013
00052f 0013
000530 0013
000531 0013      	.DB  0x13,0x0,0x13,0x0,0x13,0x0,0x13,0x0
000532 0014
000533 0015
000534 001a
000535 0019      	.DB  0x14,0x0,0x15,0x0,0x1A,0x0,0x19,0x0
000536 0023
000537 0035
000538 0033
000539 0032      	.DB  0x23,0x0,0x35,0x0,0x33,0x0,0x32,0x0
00053a 0032
00053b 0032
00053c 0035
00053d 0038      	.DB  0x32,0x0,0x32,0x0,0x35,0x0,0x38,0x0
00053e 003b
00053f 003f
000540 0043
000541 0048      	.DB  0x3B,0x0,0x3F,0x0,0x43,0x0,0x48,0x0
000542 0048
000543 0048
000544 0048
000545 0048      	.DB  0x48,0x0,0x48,0x0,0x48,0x0,0x48,0x0
000546 0048
000547 0048
000548 0048
000549 0048      	.DB  0x48,0x0,0x48,0x0,0x48,0x0,0x48,0x0
00054a 000d
00054b 000d
00054c 000d
00054d 000d      	.DB  0xD,0x0,0xD,0x0,0xD,0x0,0xD,0x0
00054e 000d
00054f 000d
000550 000d
000551 000d      	.DB  0xD,0x0,0xD,0x0,0xD,0x0,0xD,0x0
000552 000d
000553 0010
000554 0013
000555 0014      	.DB  0xD,0x0,0x10,0x0,0x13,0x0,0x14,0x0
000556 0014
000557 0014
000558 0014
000559 0014      	.DB  0x14,0x0,0x14,0x0,0x14,0x0,0x14,0x0
00055a 0014
00055b 0014
00055c 0015
00055d 001b      	.DB  0x14,0x0,0x14,0x0,0x15,0x0,0x1B,0x0
00055e 001b
00055f 0023
000560 0035
000561 0034      	.DB  0x1B,0x0,0x23,0x0,0x35,0x0,0x34,0x0
000562 0034
000563 0034
000564 0034
000565 0037      	.DB  0x34,0x0,0x34,0x0,0x34,0x0,0x37,0x0
000566 0039
000567 003b
000568 003f
000569 0043      	.DB  0x39,0x0,0x3B,0x0,0x3F,0x0,0x43,0x0
00056a 0049
00056b 0049
00056c 0049
00056d 0049      	.DB  0x49,0x0,0x49,0x0,0x49,0x0,0x49,0x0
00056e 0049
00056f 0049
000570 0049
000571 0049      	.DB  0x49,0x0,0x49,0x0,0x49,0x0,0x49,0x0
000572 0049
000573 000d
000574 000d
000575 000d      	.DB  0x49,0x0,0xD,0x0,0xD,0x0,0xD,0x0
000576 000d
000577 000d
000578 000d
000579 000d      	.DB  0xD,0x0,0xD,0x0,0xD,0x0,0xD,0x0
00057a 000d
00057b 000d
00057c 0010
00057d 0013      	.DB  0xD,0x0,0xD,0x0,0x10,0x0,0x13,0x0
00057e 0014
00057f 0015
000580 0015
000581 0015      	.DB  0x14,0x0,0x15,0x0,0x15,0x0,0x15,0x0
000582 0015
000583 0015
000584 0015
000585 0015      	.DB  0x15,0x0,0x15,0x0,0x15,0x0,0x15,0x0
000586 001c
000587 001c
000588 0024
000589 0035      	.DB  0x1C,0x0,0x1C,0x0,0x24,0x0,0x35,0x0
00058a 0035
00058b 0035
00058c 0035
00058d 0035      	.DB  0x35,0x0,0x35,0x0,0x35,0x0,0x35,0x0
00058e 0038
00058f 003a
000590 003c
000591 003f      	.DB  0x38,0x0,0x3A,0x0,0x3C,0x0,0x3F,0x0
000592 0044
000593 004a
000594 004a
000595 004a      	.DB  0x44,0x0,0x4A,0x0,0x4A,0x0,0x4A,0x0
000596 004a
000597 004a
000598 004a
000599 004a      	.DB  0x4A,0x0,0x4A,0x0,0x4A,0x0,0x4A,0x0
00059a 004a
00059b 004a
00059c 000d
00059d 000d      	.DB  0x4A,0x0,0x4A,0x0,0xD,0x0,0xD,0x0
00059e 000d
00059f 000d
0005a0 000d
0005a1 000d      	.DB  0xD,0x0,0xD,0x0,0xD,0x0,0xD,0x0
0005a2 000d
0005a3 000d
0005a4 000d
0005a5 0010      	.DB  0xD,0x0,0xD,0x0,0xD,0x0,0x10,0x0
0005a6 0012
0005a7 0014
0005a8 0016
0005a9 0016      	.DB  0x12,0x0,0x14,0x0,0x16,0x0,0x16,0x0
0005aa 0016
0005ab 0016
0005ac 0016
0005ad 0016      	.DB  0x16,0x0,0x16,0x0,0x16,0x0,0x16,0x0
0005ae 0015
0005af 001d
0005b0 001e
0005b1 0025      	.DB  0x15,0x0,0x1D,0x0,0x1E,0x0,0x25,0x0
0005b2 0035
0005b3 0036
0005b4 0037
0005b5 0037      	.DB  0x35,0x0,0x36,0x0,0x37,0x0,0x37,0x0
0005b6 0037
0005b7 0039
0005b8 003c
0005b9 003d      	.DB  0x37,0x0,0x39,0x0,0x3C,0x0,0x3D,0x0
0005ba 0040
0005bb 0045
0005bc 004b
0005bd 004b      	.DB  0x40,0x0,0x45,0x0,0x4B,0x0,0x4B,0x0
0005be 004b
0005bf 004b
0005c0 004b
0005c1 004b      	.DB  0x4B,0x0,0x4B,0x0,0x4B,0x0,0x4B,0x0
0005c2 004b
0005c3 004b
0005c4 004b
0005c5 000c      	.DB  0x4B,0x0,0x4B,0x0,0x4B,0x0,0xC,0x0
0005c6 000c
0005c7 000c
0005c8 000c
0005c9 000c      	.DB  0xC,0x0,0xC,0x0,0xC,0x0,0xC,0x0
0005ca 000c
0005cb 000c
0005cc 000c
0005cd 000c      	.DB  0xC,0x0,0xC,0x0,0xC,0x0,0xC,0x0
0005ce 000f
0005cf 0012
0005d0 0014
0005d1 0017      	.DB  0xF,0x0,0x12,0x0,0x14,0x0,0x17,0x0
0005d2 0017
0005d3 0017
0005d4 0017
0005d5 0017      	.DB  0x17,0x0,0x17,0x0,0x17,0x0,0x17,0x0
0005d6 0017
0005d7 0015
0005d8 001f
0005d9 0020      	.DB  0x17,0x0,0x15,0x0,0x1F,0x0,0x20,0x0
0005da 0027
0005db 0035
0005dc 0037
0005dd 0039      	.DB  0x27,0x0,0x35,0x0,0x37,0x0,0x39,0x0
0005de 0039
0005df 0039
0005e0 003b
0005e1 003d      	.DB  0x39,0x0,0x39,0x0,0x3B,0x0,0x3D,0x0
0005e2 003f
0005e3 0041
0005e4 0046
0005e5 004c      	.DB  0x3F,0x0,0x41,0x0,0x46,0x0,0x4C,0x0
0005e6 004c
0005e7 004c
0005e8 004c
0005e9 004c      	.DB  0x4C,0x0,0x4C,0x0,0x4C,0x0,0x4C,0x0
0005ea 004c
0005eb 004c
0005ec 004c
0005ed 004c      	.DB  0x4C,0x0,0x4C,0x0,0x4C,0x0,0x4C,0x0
0005ee 000c
0005ef 000c
0005f0 000c
0005f1 000c      	.DB  0xC,0x0,0xC,0x0,0xC,0x0,0xC,0x0
0005f2 000c
0005f3 000c
0005f4 000c
0005f5 000c      	.DB  0xC,0x0,0xC,0x0,0xC,0x0,0xC,0x0
0005f6 000c
0005f7 000f
0005f8 0012
0005f9 0014      	.DB  0xC,0x0,0xF,0x0,0x12,0x0,0x14,0x0
0005fa 0017
0005fb 0019
0005fc 0019
0005fd 0019      	.DB  0x17,0x0,0x19,0x0,0x19,0x0,0x19,0x0
0005fe 0018
0005ff 0018
000600 0016
000601 0020      	.DB  0x18,0x0,0x18,0x0,0x16,0x0,0x20,0x0
000602 0022
000603 0029
000604 0036
000605 0039      	.DB  0x22,0x0,0x29,0x0,0x36,0x0,0x39,0x0
000606 003a
000607 003a
000608 003a
000609 003d      	.DB  0x3A,0x0,0x3A,0x0,0x3A,0x0,0x3D,0x0
00060a 003f
00060b 0041
00060c 0043
00060d 0047      	.DB  0x3F,0x0,0x41,0x0,0x43,0x0,0x47,0x0
00060e 004e
00060f 004e
000610 004e
000611 004e      	.DB  0x4E,0x0,0x4E,0x0,0x4E,0x0,0x4E,0x0
000612 004e
000613 004e
000614 004e
000615 004e      	.DB  0x4E,0x0,0x4E,0x0,0x4E,0x0,0x4E,0x0
000616 004e
000617 000c
000618 000c
000619 000c      	.DB  0x4E,0x0,0xC,0x0,0xC,0x0,0xC,0x0
00061a 000c
00061b 000c
00061c 000c
00061d 000c      	.DB  0xC,0x0,0xC,0x0,0xC,0x0,0xC,0x0
00061e 000c
00061f 000c
000620 000f
000621 0012      	.DB  0xC,0x0,0xC,0x0,0xF,0x0,0x12,0x0
000622 0014
000623 0017
000624 001a
000625 001a      	.DB  0x14,0x0,0x17,0x0,0x1A,0x0,0x1A,0x0
000626 001a
000627 001a
000628 0019
000629 0018      	.DB  0x1A,0x0,0x1A,0x0,0x19,0x0,0x18,0x0
00062a 0022
00062b 0024
00062c 002b
00062d 0038      	.DB  0x22,0x0,0x24,0x0,0x2B,0x0,0x38,0x0
00062e 003b
00062f 003c
000630 003c
000631 003c      	.DB  0x3B,0x0,0x3C,0x0,0x3C,0x0,0x3C,0x0
000632 003e
000633 0040
000634 0043
000635 0045      	.DB  0x3E,0x0,0x40,0x0,0x43,0x0,0x45,0x0
000636 0049
000637 0050
000638 0050
000639 0050      	.DB  0x49,0x0,0x50,0x0,0x50,0x0,0x50,0x0
00063a 0050
00063b 0050
00063c 0050
00063d 0050      	.DB  0x50,0x0,0x50,0x0,0x50,0x0,0x50,0x0
00063e 0050
00063f 0050
000640 000c
000641 000c      	.DB  0x50,0x0,0x50,0x0,0xC,0x0,0xC,0x0
000642 000c
000643 000c
000644 000c
000645 000c      	.DB  0xC,0x0,0xC,0x0,0xC,0x0,0xC,0x0
000646 000c
000647 000c
000648 000c
000649 000f      	.DB  0xC,0x0,0xC,0x0,0xC,0x0,0xF,0x0
00064a 0012
00064b 0014
00064c 0017
00064d 001a      	.DB  0x12,0x0,0x14,0x0,0x17,0x0,0x1A,0x0
00064e 001b
00064f 001b
000650 001b
000651 001a      	.DB  0x1B,0x0,0x1B,0x0,0x1B,0x0,0x1A,0x0
000652 0019
000653 0025
000654 0027
000655 002e      	.DB  0x19,0x0,0x25,0x0,0x27,0x0,0x2E,0x0
000656 003b
000657 003d
000658 003e
000659 003e      	.DB  0x3B,0x0,0x3D,0x0,0x3E,0x0,0x3E,0x0
00065a 003e
00065b 0040
00065c 0043
00065d 0045      	.DB  0x3E,0x0,0x40,0x0,0x43,0x0,0x45,0x0
00065e 0048
00065f 004b
000660 0053
000661 0053      	.DB  0x48,0x0,0x4B,0x0,0x53,0x0,0x53,0x0
000662 0053
000663 0053
000664 0053
000665 0053      	.DB  0x53,0x0,0x53,0x0,0x53,0x0,0x53,0x0
000666 0053
000667 0053
000668 0053
000669 000c      	.DB  0x53,0x0,0x53,0x0,0x53,0x0,0xC,0x0
00066a 000c
00066b 000c
00066c 000c
00066d 000c      	.DB  0xC,0x0,0xC,0x0,0xC,0x0,0xC,0x0
00066e 000c
00066f 000c
000670 000c
000671 000c      	.DB  0xC,0x0,0xC,0x0,0xC,0x0,0xC,0x0
000672 000f
000673 0012
000674 0014
000675 0017      	.DB  0xF,0x0,0x12,0x0,0x14,0x0,0x17,0x0
000676 001a
000677 001d
000678 001c
000679 001c      	.DB  0x1A,0x0,0x1D,0x0,0x1C,0x0,0x1C,0x0
00067a 001c
00067b 001b
00067c 0027
00067d 0029      	.DB  0x1C,0x0,0x1B,0x0,0x27,0x0,0x29,0x0
00067e 0031
00067f 003f
000680 0040
000681 0040      	.DB  0x31,0x0,0x3F,0x0,0x40,0x0,0x40,0x0
000682 0041
000683 0041
000684 0043
000685 0045      	.DB  0x41,0x0,0x41,0x0,0x43,0x0,0x45,0x0
000686 0048
000687 004b
000688 004f
000689 0057      	.DB  0x48,0x0,0x4B,0x0,0x4F,0x0,0x57,0x0
00068a 0057
00068b 0057
00068c 0057
00068d 0057      	.DB  0x57,0x0,0x57,0x0,0x57,0x0,0x57,0x0
00068e 0057
00068f 0057
000690 0057
000691 0057      	.DB  0x57,0x0,0x57,0x0,0x57,0x0,0x57,0x0
000692 000b
000693 000b
000694 000b
000695 000b      	.DB  0xB,0x0,0xB,0x0,0xB,0x0,0xB,0x0
000696 000b
000697 000b
000698 000b
000699 000b      	.DB  0xB,0x0,0xB,0x0,0xB,0x0,0xB,0x0
00069a 000b
00069b 000f
00069c 0012
00069d 0014      	.DB  0xB,0x0,0xF,0x0,0x12,0x0,0x14,0x0
00069e 0017
00069f 001a
0006a0 001e
0006a1 001e      	.DB  0x17,0x0,0x1A,0x0,0x1E,0x0,0x1E,0x0
0006a2 001e
0006a3 001e
0006a4 001e
0006a5 0029      	.DB  0x1E,0x0,0x1E,0x0,0x1E,0x0,0x29,0x0
0006a6 002d
0006a7 0036
0006a8 0044
0006a9 0044      	.DB  0x2D,0x0,0x36,0x0,0x44,0x0,0x44,0x0
0006aa 0044
0006ab 0044
0006ac 0044
0006ad 0046      	.DB  0x44,0x0,0x44,0x0,0x44,0x0,0x46,0x0
0006ae 0049
0006af 004c
0006b0 004f
0006b1 0054      	.DB  0x49,0x0,0x4C,0x0,0x4F,0x0,0x54,0x0
0006b2 005b
0006b3 005b
0006b4 005b
0006b5 005b      	.DB  0x5B,0x0,0x5B,0x0,0x5B,0x0,0x5B,0x0
0006b6 005b
0006b7 005b
0006b8 005b
0006b9 005b      	.DB  0x5B,0x0,0x5B,0x0,0x5B,0x0,0x5B,0x0
0006ba 005b
0006bb 000c
0006bc 000c
0006bd 000c      	.DB  0x5B,0x0,0xC,0x0,0xC,0x0,0xC,0x0
0006be 000c
0006bf 000c
0006c0 000c
0006c1 000c      	.DB  0xC,0x0,0xC,0x0,0xC,0x0,0xC,0x0
0006c2 000c
0006c3 000c
0006c4 0010
0006c5 0013      	.DB  0xC,0x0,0xC,0x0,0x10,0x0,0x13,0x0
0006c6 0016
0006c7 0019
0006c8 001c
0006c9 001f      	.DB  0x16,0x0,0x19,0x0,0x1C,0x0,0x1F,0x0
0006ca 001f
0006cb 0020
0006cc 0020
0006cd 0020      	.DB  0x1F,0x0,0x20,0x0,0x20,0x0,0x20,0x0
0006ce 002d
0006cf 0030
0006d0 0037
0006d1 0045      	.DB  0x2D,0x0,0x30,0x0,0x37,0x0,0x45,0x0
0006d2 0045
0006d3 0045
0006d4 0045
0006d5 0045      	.DB  0x45,0x0,0x45,0x0,0x45,0x0,0x45,0x0
0006d6 0046
0006d7 0049
0006d8 004c
0006d9 004f      	.DB  0x46,0x0,0x49,0x0,0x4C,0x0,0x4F,0x0
0006da 0054
0006db 005b
0006dc 005b
0006dd 005b      	.DB  0x54,0x0,0x5B,0x0,0x5B,0x0,0x5B,0x0
0006de 005b
0006df 005b
0006e0 005b
0006e1 005b      	.DB  0x5B,0x0,0x5B,0x0,0x5B,0x0,0x5B,0x0
0006e2 005b
0006e3 005b
0006e4 000c
0006e5 000c      	.DB  0x5B,0x0,0x5B,0x0,0xC,0x0,0xC,0x0
0006e6 000c
0006e7 000c
0006e8 000c
0006e9 000c      	.DB  0xC,0x0,0xC,0x0,0xC,0x0,0xC,0x0
0006ea 000c
0006eb 000c
0006ec 000c
0006ed 0012      	.DB  0xC,0x0,0xC,0x0,0xC,0x0,0x12,0x0
0006ee 0014
0006ef 0017
0006f0 001a
0006f1 001d      	.DB  0x14,0x0,0x17,0x0,0x1A,0x0,0x1D,0x0
0006f2 0021
0006f3 0021
0006f4 0021
0006f5 0021      	.DB  0x21,0x0,0x21,0x0,0x21,0x0,0x21,0x0
0006f6 0022
0006f7 0030
0006f8 0033
0006f9 0039      	.DB  0x22,0x0,0x30,0x0,0x33,0x0,0x39,0x0
0006fa 0047
0006fb 0046
0006fc 0046
0006fd 0046      	.DB  0x47,0x0,0x46,0x0,0x46,0x0,0x46,0x0
0006fe 0046
0006ff 0046
000700 0049
000701 004c      	.DB  0x46,0x0,0x46,0x0,0x49,0x0,0x4C,0x0
000702 004f
000703 0054
000704 005b
000705 005b      	.DB  0x4F,0x0,0x54,0x0,0x5B,0x0,0x5B,0x0
000706 005b
000707 005b
000708 005b
000709 005b      	.DB  0x5B,0x0,0x5B,0x0,0x5B,0x0,0x5B,0x0
00070a 005b
00070b 005b
00070c 005b
00070d 000c      	.DB  0x5B,0x0,0x5B,0x0,0x5B,0x0,0xC,0x0
00070e 000c
00070f 000c
000710 000c
000711 000c      	.DB  0xC,0x0,0xC,0x0,0xC,0x0,0xC,0x0
000712 000c
000713 000c
000714 000c
000715 000c      	.DB  0xC,0x0,0xC,0x0,0xC,0x0,0xC,0x0
000716 0012
000717 0016
000718 0018
000719 001b      	.DB  0x12,0x0,0x16,0x0,0x18,0x0,0x1B,0x0
00071a 001e
00071b 0022
00071c 0022
00071d 0022      	.DB  0x1E,0x0,0x22,0x0,0x22,0x0,0x22,0x0
00071e 0022
00071f 0024
000720 0033
000721 0035      	.DB  0x22,0x0,0x24,0x0,0x33,0x0,0x35,0x0
000722 003b
000723 0048
000724 0047
000725 0047      	.DB  0x3B,0x0,0x48,0x0,0x47,0x0,0x47,0x0
000726 0047
000727 0047
000728 0047
000729 0049      	.DB  0x47,0x0,0x47,0x0,0x47,0x0,0x49,0x0
00072a 004c
00072b 004f
00072c 0054
00072d 005b      	.DB  0x4C,0x0,0x4F,0x0,0x54,0x0,0x5B,0x0
00072e 005b
00072f 005b
000730 005b
000731 005b      	.DB  0x5B,0x0,0x5B,0x0,0x5B,0x0,0x5B,0x0
000732 005b
000733 005b
000734 005b
000735 005b      	.DB  0x5B,0x0,0x5B,0x0,0x5B,0x0,0x5B,0x0
000736 000c
000737 000c
000738 000c
000739 000c      	.DB  0xC,0x0,0xC,0x0,0xC,0x0,0xC,0x0
00073a 000c
00073b 000c
00073c 000c
00073d 000c      	.DB  0xC,0x0,0xC,0x0,0xC,0x0,0xC,0x0
00073e 000c
00073f 0013
000740 0017
000741 0019      	.DB  0xC,0x0,0x13,0x0,0x17,0x0,0x19,0x0
000742 001c
000743 001f
000744 0023
000745 0023      	.DB  0x1C,0x0,0x1F,0x0,0x23,0x0,0x23,0x0
000746 0023
000747 0023
000748 0025
000749 0034      	.DB  0x23,0x0,0x23,0x0,0x25,0x0,0x34,0x0
00074a 0037
00074b 003c
00074c 0049
00074d 0048      	.DB  0x37,0x0,0x3C,0x0,0x49,0x0,0x48,0x0
00074e 0048
00074f 0048
000750 0048
000751 0048      	.DB  0x48,0x0,0x48,0x0,0x48,0x0,0x48,0x0
000752 0049
000753 004c
000754 004f
000755 0054      	.DB  0x49,0x0,0x4C,0x0,0x4F,0x0,0x54,0x0
000756 005b
000757 005b
000758 005b
000759 005b      	.DB  0x5B,0x0,0x5B,0x0,0x5B,0x0,0x5B,0x0
00075a 005b
00075b 005b
00075c 005b
00075d 005b      	.DB  0x5B,0x0,0x5B,0x0,0x5B,0x0,0x5B,0x0
00075e 005b
00075f 000c
000760 000c
000761 000c      	.DB  0x5B,0x0,0xC,0x0,0xC,0x0,0xC,0x0
000762 000c
000763 000c
000764 000c
000765 000c      	.DB  0xC,0x0,0xC,0x0,0xC,0x0,0xC,0x0
000766 000c
000767 000c
000768 0014
000769 0018      	.DB  0xC,0x0,0xC,0x0,0x14,0x0,0x18,0x0
00076a 001a
00076b 001d
00076c 0020
00076d 0023      	.DB  0x1A,0x0,0x1D,0x0,0x20,0x0,0x23,0x0
00076e 0023
00076f 0023
000770 0024
000771 0026      	.DB  0x23,0x0,0x23,0x0,0x24,0x0,0x26,0x0
000772 0036
000773 0038
000774 003d
000775 004b      	.DB  0x36,0x0,0x38,0x0,0x3D,0x0,0x4B,0x0
000776 0049
000777 0049
000778 0049
000779 0049      	.DB  0x49,0x0,0x49,0x0,0x49,0x0,0x49,0x0
00077a 0049
00077b 0049
00077c 004c
00077d 004f      	.DB  0x49,0x0,0x49,0x0,0x4C,0x0,0x4F,0x0
00077e 0054
00077f 005b
000780 005b
000781 005b      	.DB  0x54,0x0,0x5B,0x0,0x5B,0x0,0x5B,0x0
000782 005b
000783 005b
000784 005b
000785 005b      	.DB  0x5B,0x0,0x5B,0x0,0x5B,0x0,0x5B,0x0
000786 005b
000787 005b
000788 000d
000789 000d      	.DB  0x5B,0x0,0x5B,0x0,0xD,0x0,0xD,0x0
00078a 000d
00078b 000d
00078c 000d
00078d 000d      	.DB  0xD,0x0,0xD,0x0,0xD,0x0,0xD,0x0
00078e 000d
00078f 000d
000790 000d
000791 0014      	.DB  0xD,0x0,0xD,0x0,0xD,0x0,0x14,0x0
000792 0018
000793 001b
000794 001e
000795 0021      	.DB  0x18,0x0,0x1B,0x0,0x1E,0x0,0x21,0x0
000796 0024
000797 0024
000798 0024
000799 0025      	.DB  0x24,0x0,0x24,0x0,0x24,0x0,0x25,0x0
00079a 0026
00079b 0037
00079c 003a
00079d 003d      	.DB  0x26,0x0,0x37,0x0,0x3A,0x0,0x3D,0x0
00079e 004b
00079f 004a
0007a0 004a
0007a1 004a      	.DB  0x4B,0x0,0x4A,0x0,0x4A,0x0,0x4A,0x0
0007a2 004a
0007a3 004a
0007a4 004a
0007a5 004c      	.DB  0x4A,0x0,0x4A,0x0,0x4A,0x0,0x4C,0x0
0007a6 004f
0007a7 0054
0007a8 005b
0007a9 005b      	.DB  0x4F,0x0,0x54,0x0,0x5B,0x0,0x5B,0x0
0007aa 005b
0007ab 005b
0007ac 005b
0007ad 005b      	.DB  0x5B,0x0,0x5B,0x0,0x5B,0x0,0x5B,0x0
0007ae 005b
0007af 005b
0007b0 005b
0007b1 000d      	.DB  0x5B,0x0,0x5B,0x0,0x5B,0x0,0xD,0x0
0007b2 000d
0007b3 000d
0007b4 000d
0007b5 000d      	.DB  0xD,0x0,0xD,0x0,0xD,0x0,0xD,0x0
0007b6 000d
0007b7 000d
0007b8 000d
0007b9 000d      	.DB  0xD,0x0,0xD,0x0,0xD,0x0,0xD,0x0
0007ba 0015
0007bb 0019
0007bc 001c
0007bd 001e      	.DB  0x15,0x0,0x19,0x0,0x1C,0x0,0x1E,0x0
0007be 0021
0007bf 0025
0007c0 0025
0007c1 0025      	.DB  0x21,0x0,0x25,0x0,0x25,0x0,0x25,0x0
0007c2 0025
0007c3 0026
0007c4 0038
0007c5 003b      	.DB  0x25,0x0,0x26,0x0,0x38,0x0,0x3B,0x0
0007c6 003e
0007c7 004b
0007c8 004b
0007c9 004b      	.DB  0x3E,0x0,0x4B,0x0,0x4B,0x0,0x4B,0x0
0007ca 004b
0007cb 004b
0007cc 004b
0007cd 004b      	.DB  0x4B,0x0,0x4B,0x0,0x4B,0x0,0x4B,0x0
0007ce 004c
0007cf 004f
0007d0 0054
0007d1 005b      	.DB  0x4C,0x0,0x4F,0x0,0x54,0x0,0x5B,0x0
0007d2 005b
0007d3 005b
0007d4 005b
0007d5 005b      	.DB  0x5B,0x0,0x5B,0x0,0x5B,0x0,0x5B,0x0
0007d6 005b
0007d7 005b
0007d8 005b
0007d9 005b      	.DB  0x5B,0x0,0x5B,0x0,0x5B,0x0,0x5B,0x0
0007da 000d
0007db 000d
0007dc 000d
0007dd 000d      	.DB  0xD,0x0,0xD,0x0,0xD,0x0,0xD,0x0
0007de 000d
0007df 000d
0007e0 000d
0007e1 000d      	.DB  0xD,0x0,0xD,0x0,0xD,0x0,0xD,0x0
0007e2 000d
0007e3 0015
0007e4 0019
0007e5 001c      	.DB  0xD,0x0,0x15,0x0,0x19,0x0,0x1C,0x0
0007e6 001f
0007e7 0022
0007e8 0026
0007e9 0026      	.DB  0x1F,0x0,0x22,0x0,0x26,0x0,0x26,0x0
0007ea 0026
0007eb 0026
0007ec 0026
0007ed 0038      	.DB  0x26,0x0,0x26,0x0,0x26,0x0,0x38,0x0
0007ee 003c
0007ef 003e
0007f0 004b
0007f1 004c      	.DB  0x3C,0x0,0x3E,0x0,0x4B,0x0,0x4C,0x0
0007f2 004c
0007f3 004c
0007f4 004c
0007f5 004c      	.DB  0x4C,0x0,0x4C,0x0,0x4C,0x0,0x4C,0x0
0007f6 004c
0007f7 004c
0007f8 004f
0007f9 0054      	.DB  0x4C,0x0,0x4C,0x0,0x4F,0x0,0x54,0x0
0007fa 005b
0007fb 005b
0007fc 005b
0007fd 005b      	.DB  0x5B,0x0,0x5B,0x0,0x5B,0x0,0x5B,0x0
0007fe 005b
0007ff 005b
000800 005b
000801 005b      	.DB  0x5B,0x0,0x5B,0x0,0x5B,0x0,0x5B,0x0
000802 005b
000803 000d
000804 000d
000805 000d      	.DB  0x5B,0x0,0xD,0x0,0xD,0x0,0xD,0x0
000806 000d
000807 000d
000808 000d
000809 000d      	.DB  0xD,0x0,0xD,0x0,0xD,0x0,0xD,0x0
00080a 000d
00080b 000d
00080c 0014
00080d 0018      	.DB  0xD,0x0,0xD,0x0,0x14,0x0,0x18,0x0
00080e 001c
00080f 001f
000810 0023
000811 0027      	.DB  0x1C,0x0,0x1F,0x0,0x23,0x0,0x27,0x0
000812 0027
000813 0027
000814 0026
000815 0026      	.DB  0x27,0x0,0x27,0x0,0x26,0x0,0x26,0x0
000816 0039
000817 003d
000818 003f
000819 004b      	.DB  0x39,0x0,0x3D,0x0,0x3F,0x0,0x4B,0x0
00081a 004c
00081b 004e
00081c 004e
00081d 004e      	.DB  0x4C,0x0,0x4E,0x0,0x4E,0x0,0x4E,0x0
00081e 004e
00081f 004e
000820 004c
000821 004f      	.DB  0x4E,0x0,0x4E,0x0,0x4C,0x0,0x4F,0x0
000822 0054
000823 005b
000824 005b
000825 005b      	.DB  0x54,0x0,0x5B,0x0,0x5B,0x0,0x5B,0x0
000826 005b
000827 005b
000828 005b
000829 005b      	.DB  0x5B,0x0,0x5B,0x0,0x5B,0x0,0x5B,0x0
00082a 005b
00082b 005b
00082c 000c
00082d 000c      	.DB  0x5B,0x0,0x5B,0x0,0xC,0x0,0xC,0x0
00082e 000c
00082f 000c
000830 000c
000831 000c      	.DB  0xC,0x0,0xC,0x0,0xC,0x0,0xC,0x0
000832 000c
000833 000c
000834 000c
000835 0014      	.DB  0xC,0x0,0xC,0x0,0xC,0x0,0x14,0x0
000836 0018
000837 001c
000838 0020
000839 0023      	.DB  0x18,0x0,0x1C,0x0,0x20,0x0,0x23,0x0
00083a 0028
00083b 0028
00083c 0028
00083d 0027      	.DB  0x28,0x0,0x28,0x0,0x28,0x0,0x27,0x0
00083e 0026
00083f 0039
000840 003e
000841 0040      	.DB  0x26,0x0,0x39,0x0,0x3E,0x0,0x40,0x0
000842 004b
000843 004d
000844 004f
000845 004f      	.DB  0x4B,0x0,0x4D,0x0,0x4F,0x0,0x4F,0x0
000846 004f
000847 004f
000848 004f
000849 004d      	.DB  0x4F,0x0,0x4F,0x0,0x4F,0x0,0x4D,0x0
00084a 004f
00084b 0054
00084c 005b
00084d 005b      	.DB  0x4F,0x0,0x54,0x0,0x5B,0x0,0x5B,0x0
00084e 005b
00084f 005b
000850 005b
000851 005b      	.DB  0x5B,0x0,0x5B,0x0,0x5B,0x0,0x5B,0x0
000852 005b
000853 005b
000854 005b
000855 000c      	.DB  0x5B,0x0,0x5B,0x0,0x5B,0x0,0xC,0x0
000856 000c
000857 000c
000858 000c
000859 000c      	.DB  0xC,0x0,0xC,0x0,0xC,0x0,0xC,0x0
00085a 000c
00085b 000c
00085c 000c
00085d 000c      	.DB  0xC,0x0,0xC,0x0,0xC,0x0,0xC,0x0
00085e 0013
00085f 0017
000860 001c
000861 0020      	.DB  0x13,0x0,0x17,0x0,0x1C,0x0,0x20,0x0
000862 0024
000863 0028
000864 0028
000865 0028      	.DB  0x24,0x0,0x28,0x0,0x28,0x0,0x28,0x0
000866 0028
000867 0026
000868 003a
000869 003f      	.DB  0x28,0x0,0x26,0x0,0x3A,0x0,0x3F,0x0
00086a 0041
00086b 004c
00086c 004e
00086d 0050      	.DB  0x41,0x0,0x4C,0x0,0x4E,0x0,0x50,0x0
00086e 0051
00086f 0051
000870 0051
000871 0050      	.DB  0x51,0x0,0x51,0x0,0x51,0x0,0x50,0x0
000872 004e
000873 0050
000874 0054
000875 005b      	.DB  0x4E,0x0,0x50,0x0,0x54,0x0,0x5B,0x0
000876 005b
000877 005b
000878 005b
000879 005b      	.DB  0x5B,0x0,0x5B,0x0,0x5B,0x0,0x5B,0x0
00087a 005b
00087b 005b
00087c 005b
00087d 005b      	.DB  0x5B,0x0,0x5B,0x0,0x5B,0x0,0x5B,0x0
00087e 000c
00087f 000c
000880 000c
000881 000c      	.DB  0xC,0x0,0xC,0x0,0xC,0x0,0xC,0x0
000882 000c
000883 000c
000884 000c
000885 000c      	.DB  0xC,0x0,0xC,0x0,0xC,0x0,0xC,0x0
000886 000c
000887 0012
000888 0017
000889 001c      	.DB  0xC,0x0,0x12,0x0,0x17,0x0,0x1C,0x0
00088a 0020
00088b 0025
00088c 0029
00088d 0029      	.DB  0x20,0x0,0x25,0x0,0x29,0x0,0x29,0x0
00088e 0029
00088f 0029
000890 0027
000891 003b      	.DB  0x29,0x0,0x29,0x0,0x27,0x0,0x3B,0x0
000892 0040
000893 0042
000894 004d
000895 0050      	.DB  0x40,0x0,0x42,0x0,0x4D,0x0,0x50,0x0
000896 0052
000897 0053
000898 0053
000899 0053      	.DB  0x52,0x0,0x53,0x0,0x53,0x0,0x53,0x0
00089a 0052
00089b 0050
00089c 0052
00089d 0054      	.DB  0x52,0x0,0x50,0x0,0x52,0x0,0x54,0x0
00089e 005b
00089f 005b
0008a0 005b
0008a1 005b      	.DB  0x5B,0x0,0x5B,0x0,0x5B,0x0,0x5B,0x0
0008a2 005b
0008a3 005b
0008a4 005b
0008a5 005b      	.DB  0x5B,0x0,0x5B,0x0,0x5B,0x0,0x5B,0x0
0008a6 005b
0008a7 000c
0008a8 000c
0008a9 000c      	.DB  0x5B,0x0,0xC,0x0,0xC,0x0,0xC,0x0
0008aa 000c
0008ab 000c
0008ac 000c
0008ad 000c      	.DB  0xC,0x0,0xC,0x0,0xC,0x0,0xC,0x0
0008ae 000c
0008af 000c
0008b0 0012
0008b1 0017      	.DB  0xC,0x0,0xC,0x0,0x12,0x0,0x17,0x0
0008b2 001c
0008b3 0020
0008b4 0025
0008b5 002a      	.DB  0x1C,0x0,0x20,0x0,0x25,0x0,0x2A,0x0
0008b6 002a
0008b7 002a
0008b8 002a
0008b9 0029      	.DB  0x2A,0x0,0x2A,0x0,0x2A,0x0,0x29,0x0
0008ba 003c
0008bb 0041
0008bc 0043
0008bd 0050      	.DB  0x3C,0x0,0x41,0x0,0x43,0x0,0x50,0x0
0008be 0052
0008bf 0054
0008c0 0055
0008c1 0055      	.DB  0x52,0x0,0x54,0x0,0x55,0x0,0x55,0x0
0008c2 0055
0008c3 0054
0008c4 0052
0008c5 0054      	.DB  0x55,0x0,0x54,0x0,0x52,0x0,0x54,0x0
0008c6 0055
0008c7 005b
0008c8 005b
0008c9 005b      	.DB  0x55,0x0,0x5B,0x0,0x5B,0x0,0x5B,0x0
0008ca 005b
0008cb 005b
0008cc 005b
0008cd 005b      	.DB  0x5B,0x0,0x5B,0x0,0x5B,0x0,0x5B,0x0
0008ce 005b
0008cf 005b
0008d0 000c
0008d1 000c      	.DB  0x5B,0x0,0x5B,0x0,0xC,0x0,0xC,0x0
0008d2 000c
0008d3 000c
0008d4 000c
0008d5 000c      	.DB  0xC,0x0,0xC,0x0,0xC,0x0,0xC,0x0
0008d6 000c
0008d7 000c
0008d8 000c
0008d9 0012      	.DB  0xC,0x0,0xC,0x0,0xC,0x0,0x12,0x0
0008da 0017
0008db 001c
0008dc 0020
0008dd 0025      	.DB  0x17,0x0,0x1C,0x0,0x20,0x0,0x25,0x0
0008de 002c
0008df 002c
0008e0 002b
0008e1 002b      	.DB  0x2C,0x0,0x2C,0x0,0x2B,0x0,0x2B,0x0
0008e2 002b
0008e3 003e
0008e4 0043
0008e5 0045      	.DB  0x2B,0x0,0x3E,0x0,0x43,0x0,0x45,0x0
0008e6 0053
0008e7 0055
0008e8 0056
0008e9 0057      	.DB  0x53,0x0,0x55,0x0,0x56,0x0,0x57,0x0
0008ea 0058
0008eb 0057
0008ec 0056
0008ed 0055      	.DB  0x58,0x0,0x57,0x0,0x56,0x0,0x55,0x0
0008ee 0056
0008ef 0057
0008f0 005b
0008f1 005b      	.DB  0x56,0x0,0x57,0x0,0x5B,0x0,0x5B,0x0
0008f2 005b
0008f3 005b
0008f4 005b
0008f5 005b      	.DB  0x5B,0x0,0x5B,0x0,0x5B,0x0,0x5B,0x0
0008f6 005b
0008f7 005b
0008f8 005b
0008f9 000b      	.DB  0x5B,0x0,0x5B,0x0,0x5B,0x0,0xB,0x0
0008fa 000b
0008fb 000b
0008fc 000b
0008fd 000b      	.DB  0xB,0x0,0xB,0x0,0xB,0x0,0xB,0x0
0008fe 000b
0008ff 000b
000900 000b
000901 000b      	.DB  0xB,0x0,0xB,0x0,0xB,0x0,0xB,0x0
000902 0012
000903 0017
000904 001c
000905 0020      	.DB  0x12,0x0,0x17,0x0,0x1C,0x0,0x20,0x0
000906 0025
000907 002d
000908 002d
000909 002d      	.DB  0x25,0x0,0x2D,0x0,0x2D,0x0,0x2D,0x0
00090a 002d
00090b 002d
00090c 0040
00090d 0044      	.DB  0x2D,0x0,0x2D,0x0,0x40,0x0,0x44,0x0
00090e 0047
00090f 0059
000910 005a
000911 005a      	.DB  0x47,0x0,0x59,0x0,0x5A,0x0,0x5A,0x0
000912 005b
000913 005b
000914 005b
000915 005a      	.DB  0x5B,0x0,0x5B,0x0,0x5B,0x0,0x5A,0x0
000916 005a
000917 005a
000918 005b
000919 005b      	.DB  0x5A,0x0,0x5A,0x0,0x5B,0x0,0x5B,0x0
00091a 005b
00091b 005b
00091c 005b
00091d 005b      	.DB  0x5B,0x0,0x5B,0x0,0x5B,0x0,0x5B,0x0
00091e 005b
00091f 005b
000920 005b
000921 005b      	.DB  0x5B,0x0,0x5B,0x0,0x5B,0x0,0x5B,0x0
000922 0012
000923 0012
000924 0012
000925 0012      	.DB  0x12,0x0,0x12,0x0,0x12,0x0,0x12,0x0
000926 0012
000927 0012
000928 0012
000929 0012      	.DB  0x12,0x0,0x12,0x0,0x12,0x0,0x12,0x0
00092a 0012
00092b 0016
00092c 001b
00092d 001f      	.DB  0x12,0x0,0x16,0x0,0x1B,0x0,0x1F,0x0
00092e 0024
00092f 0029
000930 0031
000931 0031      	.DB  0x24,0x0,0x29,0x0,0x31,0x0,0x31,0x0
000932 0032
000933 0033
000934 0034
000935 0041      	.DB  0x32,0x0,0x33,0x0,0x34,0x0,0x41,0x0
000936 0045
000937 0047
000938 0059
000939 005a      	.DB  0x45,0x0,0x47,0x0,0x59,0x0,0x5A,0x0
00093a 005a
00093b 005b
00093c 005b
00093d 005b      	.DB  0x5A,0x0,0x5B,0x0,0x5B,0x0,0x5B,0x0
00093e 005a
00093f 005a
000940 005a
000941 005b      	.DB  0x5A,0x0,0x5A,0x0,0x5A,0x0,0x5B,0x0
000942 005b
000943 005b
000944 005b
000945 005b      	.DB  0x5B,0x0,0x5B,0x0,0x5B,0x0,0x5B,0x0
000946 005b
000947 005b
000948 005b
000949 005b      	.DB  0x5B,0x0,0x5B,0x0,0x5B,0x0,0x5B,0x0
00094a 005b
00094b 0017
00094c 0017
00094d 0017      	.DB  0x5B,0x0,0x17,0x0,0x17,0x0,0x17,0x0
00094e 0017
00094f 0017
000950 0017
000951 0017      	.DB  0x17,0x0,0x17,0x0,0x17,0x0,0x17,0x0
000952 0017
000953 0017
000954 001a
000955 001f      	.DB  0x17,0x0,0x17,0x0,0x1A,0x0,0x1F,0x0
000956 0023
000957 0027
000958 002c
000959 0035      	.DB  0x23,0x0,0x27,0x0,0x2C,0x0,0x35,0x0
00095a 0035
00095b 0036
00095c 0037
00095d 0039      	.DB  0x35,0x0,0x36,0x0,0x37,0x0,0x39,0x0
00095e 0042
00095f 0046
000960 0047
000961 0059      	.DB  0x42,0x0,0x46,0x0,0x47,0x0,0x59,0x0
000962 005a
000963 005a
000964 005b
000965 005b      	.DB  0x5A,0x0,0x5A,0x0,0x5B,0x0,0x5B,0x0
000966 005b
000967 005a
000968 005a
000969 005a      	.DB  0x5B,0x0,0x5A,0x0,0x5A,0x0,0x5A,0x0
00096a 005b
00096b 005b
00096c 005b
00096d 005b      	.DB  0x5B,0x0,0x5B,0x0,0x5B,0x0,0x5B,0x0
00096e 005b
00096f 005b
000970 005b
000971 005b      	.DB  0x5B,0x0,0x5B,0x0,0x5B,0x0,0x5B,0x0
000972 005b
000973 005b
000974 001c
000975 001c      	.DB  0x5B,0x0,0x5B,0x0,0x1C,0x0,0x1C,0x0
000976 001c
000977 001c
000978 001c
000979 001c      	.DB  0x1C,0x0,0x1C,0x0,0x1C,0x0,0x1C,0x0
00097a 001c
00097b 001c
00097c 001c
00097d 001e      	.DB  0x1C,0x0,0x1C,0x0,0x1C,0x0,0x1E,0x0
00097e 0021
00097f 0025
000980 002a
000981 002f      	.DB  0x21,0x0,0x25,0x0,0x2A,0x0,0x2F,0x0
000982 0038
000983 0038
000984 0039
000985 003a      	.DB  0x38,0x0,0x38,0x0,0x39,0x0,0x3A,0x0
000986 003d
000987 0043
000988 0047
000989 0047      	.DB  0x3D,0x0,0x43,0x0,0x47,0x0,0x47,0x0
00098a 0059
00098b 005a
00098c 005a
00098d 005a      	.DB  0x59,0x0,0x5A,0x0,0x5A,0x0,0x5A,0x0
00098e 005a
00098f 005a
000990 005a
000991 005a      	.DB  0x5A,0x0,0x5A,0x0,0x5A,0x0,0x5A,0x0
000992 005a
000993 005b
000994 005b
000995 005b      	.DB  0x5A,0x0,0x5B,0x0,0x5B,0x0,0x5B,0x0
000996 005b
000997 005b
000998 005b
000999 005b      	.DB  0x5B,0x0,0x5B,0x0,0x5B,0x0,0x5B,0x0
00099a 005b
00099b 005b
00099c 005b
00099d 0020      	.DB  0x5B,0x0,0x5B,0x0,0x5B,0x0,0x20,0x0
00099e 0020
00099f 0020
0009a0 0020
0009a1 0020      	.DB  0x20,0x0,0x20,0x0,0x20,0x0,0x20,0x0
0009a2 0020
0009a3 0020
0009a4 0020
0009a5 0020      	.DB  0x20,0x0,0x20,0x0,0x20,0x0,0x20,0x0
0009a6 0022
0009a7 0024
0009a8 0028
0009a9 002c      	.DB  0x22,0x0,0x24,0x0,0x28,0x0,0x2C,0x0
0009aa 0032
0009ab 003b
0009ac 003b
0009ad 003b      	.DB  0x32,0x0,0x3B,0x0,0x3B,0x0,0x3B,0x0
0009ae 003d
0009af 0040
0009b0 0045
0009b1 0048      	.DB  0x3D,0x0,0x40,0x0,0x45,0x0,0x48,0x0
0009b2 0048
0009b3 0059
0009b4 005a
0009b5 005a      	.DB  0x48,0x0,0x59,0x0,0x5A,0x0,0x5A,0x0
0009b6 005a
0009b7 005a
0009b8 005a
0009b9 005a      	.DB  0x5A,0x0,0x5A,0x0,0x5A,0x0,0x5A,0x0
0009ba 005a
0009bb 005a
0009bc 005b
0009bd 005b      	.DB  0x5A,0x0,0x5A,0x0,0x5B,0x0,0x5B,0x0
0009be 005b
0009bf 005b
0009c0 005b
0009c1 005b      	.DB  0x5B,0x0,0x5B,0x0,0x5B,0x0,0x5B,0x0
0009c2 005b
0009c3 005b
0009c4 005b
0009c5 005b      	.DB  0x5B,0x0,0x5B,0x0,0x5B,0x0,0x5B,0x0
0009c6 0024
0009c7 0024
0009c8 0024
0009c9 0024      	.DB  0x24,0x0,0x24,0x0,0x24,0x0,0x24,0x0
0009ca 0024
0009cb 0024
0009cc 0024
0009cd 0024      	.DB  0x24,0x0,0x24,0x0,0x24,0x0,0x24,0x0
0009ce 0024
0009cf 0025
0009d0 0026
0009d1 002a      	.DB  0x24,0x0,0x25,0x0,0x26,0x0,0x2A,0x0
0009d2 002e
0009d3 0034
0009d4 003d
0009d5 003d      	.DB  0x2E,0x0,0x34,0x0,0x3D,0x0,0x3D,0x0
0009d6 003d
0009d7 003f
0009d8 0042
0009d9 0046      	.DB  0x3D,0x0,0x3F,0x0,0x42,0x0,0x46,0x0
0009da 0049
0009db 0049
0009dc 0059
0009dd 005a      	.DB  0x49,0x0,0x49,0x0,0x59,0x0,0x5A,0x0
0009de 005a
0009df 005a
0009e0 005a
0009e1 005a      	.DB  0x5A,0x0,0x5A,0x0,0x5A,0x0,0x5A,0x0
0009e2 005a
0009e3 005a
0009e4 005a
0009e5 005b      	.DB  0x5A,0x0,0x5A,0x0,0x5A,0x0,0x5B,0x0
0009e6 005b
0009e7 005b
0009e8 005b
0009e9 005b      	.DB  0x5B,0x0,0x5B,0x0,0x5B,0x0,0x5B,0x0
0009ea 005b
0009eb 005b
0009ec 005b
0009ed 005b      	.DB  0x5B,0x0,0x5B,0x0,0x5B,0x0,0x5B,0x0
0009ee 005b
0009ef 0027
0009f0 0027
0009f1 0027      	.DB  0x5B,0x0,0x27,0x0,0x27,0x0,0x27,0x0
0009f2 0027
0009f3 0027
0009f4 0027
0009f5 0027      	.DB  0x27,0x0,0x27,0x0,0x27,0x0,0x27,0x0
0009f6 0027
0009f7 0027
0009f8 0028
0009f9 0029      	.DB  0x27,0x0,0x27,0x0,0x28,0x0,0x29,0x0
0009fa 002b
0009fb 002f
0009fc 0036
0009fd 003f      	.DB  0x2B,0x0,0x2F,0x0,0x36,0x0,0x3F,0x0
0009fe 003f
0009ff 003f
000a00 0041
000a01 0044      	.DB  0x3F,0x0,0x3F,0x0,0x41,0x0,0x44,0x0
000a02 0047
000a03 004a
000a04 004a
000a05 0059      	.DB  0x47,0x0,0x4A,0x0,0x4A,0x0,0x59,0x0
000a06 005a
000a07 005a
000a08 005a
000a09 005a      	.DB  0x5A,0x0,0x5A,0x0,0x5A,0x0,0x5A,0x0
000a0a 005a
000a0b 005a
000a0c 005a
000a0d 005a      	.DB  0x5A,0x0,0x5A,0x0,0x5A,0x0,0x5A,0x0
000a0e 005b
000a0f 005b
000a10 005b
000a11 005b      	.DB  0x5B,0x0,0x5B,0x0,0x5B,0x0,0x5B,0x0
000a12 005b
000a13 005b
000a14 005b
000a15 005b      	.DB  0x5B,0x0,0x5B,0x0,0x5B,0x0,0x5B,0x0
000a16 005b
000a17 005b
000a18 002b
000a19 002b      	.DB  0x5B,0x0,0x5B,0x0,0x2B,0x0,0x2B,0x0
000a1a 002b
000a1b 002b
000a1c 002b
000a1d 002b      	.DB  0x2B,0x0,0x2B,0x0,0x2B,0x0,0x2B,0x0
000a1e 002b
000a1f 002b
000a20 002b
000a21 002b      	.DB  0x2B,0x0,0x2B,0x0,0x2B,0x0,0x2B,0x0
000a22 002c
000a23 002c
000a24 0031
000a25 0038      	.DB  0x2C,0x0,0x2C,0x0,0x31,0x0,0x38,0x0
000a26 0042
000a27 0042
000a28 0042
000a29 0042      	.DB  0x42,0x0,0x42,0x0,0x42,0x0,0x42,0x0
000a2a 0046
000a2b 0048
000a2c 004b
000a2d 004b      	.DB  0x46,0x0,0x48,0x0,0x4B,0x0,0x4B,0x0
000a2e 0059
000a2f 005a
000a30 005a
000a31 005a      	.DB  0x59,0x0,0x5A,0x0,0x5A,0x0,0x5A,0x0
000a32 005a
000a33 005a
000a34 005a
000a35 005a      	.DB  0x5A,0x0,0x5A,0x0,0x5A,0x0,0x5A,0x0
000a36 005a
000a37 005b
000a38 005b
000a39 005b      	.DB  0x5A,0x0,0x5B,0x0,0x5B,0x0,0x5B,0x0
000a3a 005b
000a3b 005b
000a3c 005b
000a3d 005b      	.DB  0x5B,0x0,0x5B,0x0,0x5B,0x0,0x5B,0x0
000a3e 005b
000a3f 005b
000a40 005b
000a41 002e      	.DB  0x5B,0x0,0x5B,0x0,0x5B,0x0,0x2E,0x0
000a42 002e
000a43 002e
000a44 002e
000a45 002e      	.DB  0x2E,0x0,0x2E,0x0,0x2E,0x0,0x2E,0x0
000a46 002e
000a47 002e
000a48 002e
000a49 002e      	.DB  0x2E,0x0,0x2E,0x0,0x2E,0x0,0x2E,0x0
000a4a 002e
000a4b 002e
000a4c 002e
000a4d 0033      	.DB  0x2E,0x0,0x2E,0x0,0x2E,0x0,0x33,0x0
000a4e 0039
000a4f 0043
000a50 0043
000a51 0043      	.DB  0x39,0x0,0x43,0x0,0x43,0x0,0x43,0x0
000a52 0044
000a53 0047
000a54 0048
000a55 004c      	.DB  0x44,0x0,0x47,0x0,0x48,0x0,0x4C,0x0
000a56 004c
000a57 005a
000a58 005a
000a59 005a      	.DB  0x4C,0x0,0x5A,0x0,0x5A,0x0,0x5A,0x0
000a5a 005a
000a5b 005a
000a5c 005a
000a5d 005a      	.DB  0x5A,0x0,0x5A,0x0,0x5A,0x0,0x5A,0x0
000a5e 005a
000a5f 005a
000a60 005b
000a61 005b      	.DB  0x5A,0x0,0x5A,0x0,0x5B,0x0,0x5B,0x0
000a62 005b
000a63 005b
000a64 005b
000a65 005b      	.DB  0x5B,0x0,0x5B,0x0,0x5B,0x0,0x5B,0x0
000a66 005b
000a67 005b
000a68 005b
000a69 005b      	.DB  0x5B,0x0,0x5B,0x0,0x5B,0x0,0x5B,0x0
000a6a 0030
000a6b 0030
000a6c 0030
000a6d 0030      	.DB  0x30,0x0,0x30,0x0,0x30,0x0,0x30,0x0
000a6e 0030
000a6f 0030
000a70 0030
000a71 0030      	.DB  0x30,0x0,0x30,0x0,0x30,0x0,0x30,0x0
000a72 0030
000a73 0031
000a74 0031
000a75 0031      	.DB  0x30,0x0,0x31,0x0,0x31,0x0,0x31,0x0
000a76 0034
000a77 003a
000a78 0043
000a79 0043      	.DB  0x34,0x0,0x3A,0x0,0x43,0x0,0x43,0x0
000a7a 0043
000a7b 0045
000a7c 0048
000a7d 0049      	.DB  0x43,0x0,0x45,0x0,0x48,0x0,0x49,0x0
000a7e 004c
000a7f 004d
000a80 005a
000a81 005a      	.DB  0x4C,0x0,0x4D,0x0,0x5A,0x0,0x5A,0x0
000a82 005a
000a83 005a
000a84 005a
000a85 005a      	.DB  0x5A,0x0,0x5A,0x0,0x5A,0x0,0x5A,0x0
000a86 005a
000a87 005a
000a88 005a
000a89 005b      	.DB  0x5A,0x0,0x5A,0x0,0x5A,0x0,0x5B,0x0
000a8a 005b
000a8b 005b
000a8c 005b
000a8d 005b      	.DB  0x5B,0x0,0x5B,0x0,0x5B,0x0,0x5B,0x0
000a8e 005b
000a8f 005b
000a90 005b
000a91 005b      	.DB  0x5B,0x0,0x5B,0x0,0x5B,0x0,0x5B,0x0
000a92 005b
000a93 0033
000a94 0033
000a95 0033      	.DB  0x5B,0x0,0x33,0x0,0x33,0x0,0x33,0x0
000a96 0033
000a97 0033
000a98 0033
000a99 0033      	.DB  0x33,0x0,0x33,0x0,0x33,0x0,0x33,0x0
000a9a 0033
000a9b 0033
000a9c 0033
000a9d 0033      	.DB  0x33,0x0,0x33,0x0,0x33,0x0,0x33,0x0
000a9e 0034
000a9f 0035
000aa0 003b
000aa1 0044      	.DB  0x34,0x0,0x35,0x0,0x3B,0x0,0x44,0x0
000aa2 0044
000aa3 0044
000aa4 0046
000aa5 0049      	.DB  0x44,0x0,0x44,0x0,0x46,0x0,0x49,0x0
000aa6 004a
000aa7 004c
000aa8 004d
000aa9 005a      	.DB  0x4A,0x0,0x4C,0x0,0x4D,0x0,0x5A,0x0
000aaa 005a
000aab 005a
000aac 005a
000aad 005a      	.DB  0x5A,0x0,0x5A,0x0,0x5A,0x0,0x5A,0x0
000aae 005a
000aaf 005a
000ab0 005a
000ab1 005a      	.DB  0x5A,0x0,0x5A,0x0,0x5A,0x0,0x5A,0x0
000ab2 005b
000ab3 005b
000ab4 005b
000ab5 005b      	.DB  0x5B,0x0,0x5B,0x0,0x5B,0x0,0x5B,0x0
000ab6 005b
000ab7 005b
000ab8 005b
000ab9 005b      	.DB  0x5B,0x0,0x5B,0x0,0x5B,0x0,0x5B,0x0
000aba 005b
000abb 005b
000abc 0036
000abd 0036      	.DB  0x5B,0x0,0x5B,0x0,0x36,0x0,0x36,0x0
000abe 0036
000abf 0036
000ac0 0036
000ac1 0036      	.DB  0x36,0x0,0x36,0x0,0x36,0x0,0x36,0x0
000ac2 0036
000ac3 0036
000ac4 0036
000ac5 0035      	.DB  0x36,0x0,0x36,0x0,0x36,0x0,0x35,0x0
000ac6 0035
000ac7 0036
000ac8 0037
000ac9 003c      	.DB  0x35,0x0,0x36,0x0,0x37,0x0,0x3C,0x0
000aca 0044
000acb 0044
000acc 0045
000acd 0047      	.DB  0x44,0x0,0x44,0x0,0x45,0x0,0x47,0x0
000ace 004a
000acf 004b
000ad0 004d
000ad1 004e      	.DB  0x4A,0x0,0x4B,0x0,0x4D,0x0,0x4E,0x0
000ad2 005a
000ad3 005a
000ad4 005a
000ad5 005a      	.DB  0x5A,0x0,0x5A,0x0,0x5A,0x0,0x5A,0x0
000ad6 005a
000ad7 005a
000ad8 005a
000ad9 005a      	.DB  0x5A,0x0,0x5A,0x0,0x5A,0x0,0x5A,0x0
000ada 005a
000adb 005b
000adc 005b
000add 005b      	.DB  0x5A,0x0,0x5B,0x0,0x5B,0x0,0x5B,0x0
000ade 005b
000adf 005b
000ae0 005b
000ae1 005b      	.DB  0x5B,0x0,0x5B,0x0,0x5B,0x0,0x5B,0x0
000ae2 005b
000ae3 005b
000ae4 005b
000ae5 0038      	.DB  0x5B,0x0,0x5B,0x0,0x5B,0x0,0x38,0x0
000ae6 0038
000ae7 0038
000ae8 0038
000ae9 0038      	.DB  0x38,0x0,0x38,0x0,0x38,0x0,0x38,0x0
000aea 0038
000aeb 0038
000aec 0038
000aed 0038      	.DB  0x38,0x0,0x38,0x0,0x38,0x0,0x38,0x0
000aee 0038
000aef 0038
000af0 0039
000af1 003a      	.DB  0x38,0x0,0x38,0x0,0x39,0x0,0x3A,0x0
000af2 003d
000af3 0045
000af4 0045
000af5 0046      	.DB  0x3D,0x0,0x45,0x0,0x45,0x0,0x46,0x0
000af6 0047
000af7 004b
000af8 004b
000af9 004d      	.DB  0x47,0x0,0x4B,0x0,0x4B,0x0,0x4D,0x0
000afa 004e
000afb 005a
000afc 005a
000afd 005a      	.DB  0x4E,0x0,0x5A,0x0,0x5A,0x0,0x5A,0x0
000afe 005a
000aff 005a
000b00 005a
000b01 005a      	.DB  0x5A,0x0,0x5A,0x0,0x5A,0x0,0x5A,0x0
000b02 005a
000b03 005a
000b04 005b
000b05 005b      	.DB  0x5A,0x0,0x5A,0x0,0x5B,0x0,0x5B,0x0
000b06 005b
000b07 005b
000b08 005b
000b09 005b      	.DB  0x5B,0x0,0x5B,0x0,0x5B,0x0,0x5B,0x0
000b0a 005b
000b0b 005b
000b0c 005b
000b0d 005b      	.DB  0x5B,0x0,0x5B,0x0,0x5B,0x0,0x5B,0x0
000b0e 003a
000b0f 003a
000b10 003a
000b11 003a      	.DB  0x3A,0x0,0x3A,0x0,0x3A,0x0,0x3A,0x0
000b12 003a
000b13 003a
000b14 003a
000b15 003a      	.DB  0x3A,0x0,0x3A,0x0,0x3A,0x0,0x3A,0x0
000b16 003a
000b17 003a
000b18 003a
000b19 003b      	.DB  0x3A,0x0,0x3A,0x0,0x3A,0x0,0x3B,0x0
000b1a 003c
000b1b 003e
000b1c 0045
000b1d 0045      	.DB  0x3C,0x0,0x3E,0x0,0x45,0x0,0x45,0x0
000b1e 0046
000b1f 0048
000b20 004b
000b21 004c      	.DB  0x46,0x0,0x48,0x0,0x4B,0x0,0x4C,0x0
000b22 004d
000b23 004f
000b24 005b
000b25 005b      	.DB  0x4D,0x0,0x4F,0x0,0x5B,0x0,0x5B,0x0
000b26 005b
000b27 005b
000b28 005b
000b29 005b      	.DB  0x5B,0x0,0x5B,0x0,0x5B,0x0,0x5B,0x0
000b2a 005b
000b2b 005b
000b2c 005b
000b2d 005b      	.DB  0x5B,0x0,0x5B,0x0,0x5B,0x0,0x5B,0x0
000b2e 005b
000b2f 005b
000b30 005b
000b31 005b      	.DB  0x5B,0x0,0x5B,0x0,0x5B,0x0,0x5B,0x0
000b32 005b
000b33 005b
000b34 005b
000b35 005b      	.DB  0x5B,0x0,0x5B,0x0,0x5B,0x0,0x5B,0x0
000b36 005b
000b37 003d
000b38 003d
000b39 003d      	.DB  0x5B,0x0,0x3D,0x0,0x3D,0x0,0x3D,0x0
000b3a 003d
000b3b 003d
000b3c 003d
000b3d 003d      	.DB  0x3D,0x0,0x3D,0x0,0x3D,0x0,0x3D,0x0
000b3e 003d
000b3f 003d
000b40 003c
000b41 003d      	.DB  0x3D,0x0,0x3D,0x0,0x3C,0x0,0x3D,0x0
000b42 003d
000b43 003f
000b44 0041
000b45 0046      	.DB  0x3D,0x0,0x3F,0x0,0x41,0x0,0x46,0x0
000b46 0046
000b47 0047
000b48 0049
000b49 004c      	.DB  0x46,0x0,0x47,0x0,0x49,0x0,0x4C,0x0
000b4a 004c
000b4b 004d
000b4c 004f
000b4d 005b      	.DB  0x4C,0x0,0x4D,0x0,0x4F,0x0,0x5B,0x0
000b4e 005b
000b4f 005b
000b50 005b
000b51 005b      	.DB  0x5B,0x0,0x5B,0x0,0x5B,0x0,0x5B,0x0
000b52 005b
000b53 005b
000b54 005b
000b55 005b      	.DB  0x5B,0x0,0x5B,0x0,0x5B,0x0,0x5B,0x0
000b56 005b
000b57 005b
000b58 005b
000b59 005b      	.DB  0x5B,0x0,0x5B,0x0,0x5B,0x0,0x5B,0x0
000b5a 005b
000b5b 005b
000b5c 005b
000b5d 005b      	.DB  0x5B,0x0,0x5B,0x0,0x5B,0x0,0x5B,0x0
000b5e 005b
000b5f 005b
000b60 003f
000b61 003f      	.DB  0x5B,0x0,0x5B,0x0,0x3F,0x0,0x3F,0x0
000b62 003f
000b63 003f
000b64 003f
000b65 003f      	.DB  0x3F,0x0,0x3F,0x0,0x3F,0x0,0x3F,0x0
000b66 003f
000b67 003f
000b68 003f
000b69 003f      	.DB  0x3F,0x0,0x3F,0x0,0x3F,0x0,0x3F,0x0
000b6a 003f
000b6b 0040
000b6c 0041
000b6d 0043      	.DB  0x3F,0x0,0x40,0x0,0x41,0x0,0x43,0x0
000b6e 0046
000b6f 0046
000b70 0047
000b71 0049      	.DB  0x46,0x0,0x46,0x0,0x47,0x0,0x49,0x0
000b72 004c
000b73 004c
000b74 004e
000b75 0050      	.DB  0x4C,0x0,0x4C,0x0,0x4E,0x0,0x50,0x0
000b76 005b
000b77 005b
000b78 005b
000b79 005b      	.DB  0x5B,0x0,0x5B,0x0,0x5B,0x0,0x5B,0x0
000b7a 005b
000b7b 005b
000b7c 005b
000b7d 005b      	.DB  0x5B,0x0,0x5B,0x0,0x5B,0x0,0x5B,0x0
000b7e 005b
000b7f 005b
000b80 005b
000b81 005b      	.DB  0x5B,0x0,0x5B,0x0,0x5B,0x0,0x5B,0x0
000b82 005b
000b83 005b
000b84 005b
000b85 005b      	.DB  0x5B,0x0,0x5B,0x0,0x5B,0x0,0x5B,0x0
000b86 005b
000b87 005b
000b88 005b
000b89 003f      	.DB  0x5B,0x0,0x5B,0x0,0x5B,0x0,0x3F,0x0
000b8a 003f
000b8b 003f
000b8c 003f
000b8d 003f      	.DB  0x3F,0x0,0x3F,0x0,0x3F,0x0,0x3F,0x0
000b8e 003f
000b8f 003f
000b90 003f
000b91 003f      	.DB  0x3F,0x0,0x3F,0x0,0x3F,0x0,0x3F,0x0
000b92 003f
000b93 003f
000b94 0040
000b95 0041      	.DB  0x3F,0x0,0x3F,0x0,0x40,0x0,0x41,0x0
000b96 0043
000b97 0046
000b98 0046
000b99 0047      	.DB  0x43,0x0,0x46,0x0,0x46,0x0,0x47,0x0
000b9a 0049
000b9b 004c
000b9c 004c
000b9d 004e      	.DB  0x49,0x0,0x4C,0x0,0x4C,0x0,0x4E,0x0
000b9e 0050
000b9f 005b
000ba0 005b
000ba1 005b      	.DB  0x50,0x0,0x5B,0x0,0x5B,0x0,0x5B,0x0
000ba2 005b
000ba3 005b
000ba4 005b
000ba5 005b      	.DB  0x5B,0x0,0x5B,0x0,0x5B,0x0,0x5B,0x0
000ba6 005b
000ba7 005b
000ba8 005b
000ba9 005b      	.DB  0x5B,0x0,0x5B,0x0,0x5B,0x0,0x5B,0x0
000baa 005b
000bab 005b
000bac 005b
000bad 005b      	.DB  0x5B,0x0,0x5B,0x0,0x5B,0x0,0x5B,0x0
000bae 005b
000baf 005b
000bb0 005b
000bb1 005b      	.DB  0x5B,0x0,0x5B,0x0,0x5B,0x0,0x5B,0x0
000bb2 003f
000bb3 003f
000bb4 003f
000bb5 003f      	.DB  0x3F,0x0,0x3F,0x0,0x3F,0x0,0x3F,0x0
000bb6 003f
000bb7 003f
000bb8 003f
000bb9 003f      	.DB  0x3F,0x0,0x3F,0x0,0x3F,0x0,0x3F,0x0
000bba 003f
000bbb 003f
000bbc 003f
000bbd 0040      	.DB  0x3F,0x0,0x3F,0x0,0x3F,0x0,0x40,0x0
000bbe 0041
000bbf 0043
000bc0 0046
000bc1 0046      	.DB  0x41,0x0,0x43,0x0,0x46,0x0,0x46,0x0
000bc2 0047
000bc3 0049
000bc4 004c
000bc5 004c      	.DB  0x47,0x0,0x49,0x0,0x4C,0x0,0x4C,0x0
000bc6 004e
000bc7 0050
000bc8 005b
000bc9 005b      	.DB  0x4E,0x0,0x50,0x0,0x5B,0x0,0x5B,0x0
000bca 005b
000bcb 005b
000bcc 005b
000bcd 005b      	.DB  0x5B,0x0,0x5B,0x0,0x5B,0x0,0x5B,0x0
000bce 005b
000bcf 005b
000bd0 005b
000bd1 005b      	.DB  0x5B,0x0,0x5B,0x0,0x5B,0x0,0x5B,0x0
000bd2 005b
000bd3 005b
000bd4 005b
000bd5 005b      	.DB  0x5B,0x0,0x5B,0x0,0x5B,0x0,0x5B,0x0
000bd6 005b
000bd7 005b
000bd8 005b
000bd9 005b      	.DB  0x5B,0x0,0x5B,0x0,0x5B,0x0,0x5B,0x0
000bda 005b
000bdb 003f
000bdc 003f
000bdd 003f      	.DB  0x5B,0x0,0x3F,0x0,0x3F,0x0,0x3F,0x0
000bde 003f
000bdf 003f
000be0 003f
000be1 003f      	.DB  0x3F,0x0,0x3F,0x0,0x3F,0x0,0x3F,0x0
000be2 003f
000be3 003f
000be4 003f
000be5 003f      	.DB  0x3F,0x0,0x3F,0x0,0x3F,0x0,0x3F,0x0
000be6 0040
000be7 0041
000be8 0043
000be9 0046      	.DB  0x40,0x0,0x41,0x0,0x43,0x0,0x46,0x0
000bea 0046
000beb 0047
000bec 0049
000bed 004c      	.DB  0x46,0x0,0x47,0x0,0x49,0x0,0x4C,0x0
000bee 004c
000bef 004e
000bf0 0050
000bf1 005b      	.DB  0x4C,0x0,0x4E,0x0,0x50,0x0,0x5B,0x0
000bf2 005b
000bf3 005b
000bf4 005b
000bf5 005b      	.DB  0x5B,0x0,0x5B,0x0,0x5B,0x0,0x5B,0x0
000bf6 005b
000bf7 005b
000bf8 005b
000bf9 005b      	.DB  0x5B,0x0,0x5B,0x0,0x5B,0x0,0x5B,0x0
000bfa 005b
000bfb 005b
000bfc 005b
000bfd 005b      	.DB  0x5B,0x0,0x5B,0x0,0x5B,0x0,0x5B,0x0
000bfe 005b
000bff 005b
000c00 005b
000c01 005b      	.DB  0x5B,0x0,0x5B,0x0,0x5B,0x0,0x5B,0x0
000c02 005b
000c03 005b
000c04 003f
000c05 003f      	.DB  0x5B,0x0,0x5B,0x0,0x3F,0x0,0x3F,0x0
000c06 003f
000c07 003f
000c08 003f
000c09 003f      	.DB  0x3F,0x0,0x3F,0x0,0x3F,0x0,0x3F,0x0
000c0a 003f
000c0b 003f
000c0c 003f
000c0d 003f      	.DB  0x3F,0x0,0x3F,0x0,0x3F,0x0,0x3F,0x0
000c0e 003f
000c0f 0040
000c10 0041
000c11 0043      	.DB  0x3F,0x0,0x40,0x0,0x41,0x0,0x43,0x0
000c12 0046
000c13 0046
000c14 0047
000c15 0049      	.DB  0x46,0x0,0x46,0x0,0x47,0x0,0x49,0x0
000c16 004c
000c17 004c
000c18 004e
000c19 0050      	.DB  0x4C,0x0,0x4C,0x0,0x4E,0x0,0x50,0x0
000c1a 005b
000c1b 005b
000c1c 005b
000c1d 005b      	.DB  0x5B,0x0,0x5B,0x0,0x5B,0x0,0x5B,0x0
000c1e 005b
000c1f 005b
000c20 005b
000c21 005b      	.DB  0x5B,0x0,0x5B,0x0,0x5B,0x0,0x5B,0x0
000c22 005b
000c23 005b
000c24 005b
000c25 005b      	.DB  0x5B,0x0,0x5B,0x0,0x5B,0x0,0x5B,0x0
000c26 005b
000c27 005b
000c28 005b
000c29 005b      	.DB  0x5B,0x0,0x5B,0x0,0x5B,0x0,0x5B,0x0
000c2a 005b
000c2b 005b
000c2c 005b
000c2d 003f      	.DB  0x5B,0x0,0x5B,0x0,0x5B,0x0,0x3F,0x0
000c2e 003f
000c2f 003f
000c30 003f
000c31 003f      	.DB  0x3F,0x0,0x3F,0x0,0x3F,0x0,0x3F,0x0
000c32 003f
000c33 003f
000c34 003f
000c35 003f      	.DB  0x3F,0x0,0x3F,0x0,0x3F,0x0,0x3F,0x0
000c36 003f
000c37 003f
000c38 0040
000c39 0041      	.DB  0x3F,0x0,0x3F,0x0,0x40,0x0,0x41,0x0
000c3a 0043
000c3b 0046
000c3c 0046
000c3d 0047      	.DB  0x43,0x0,0x46,0x0,0x46,0x0,0x47,0x0
000c3e 0049
000c3f 004c
000c40 004c
000c41 004e      	.DB  0x49,0x0,0x4C,0x0,0x4C,0x0,0x4E,0x0
000c42 0050
000c43 005b
000c44 005b
000c45 005b      	.DB  0x50,0x0,0x5B,0x0,0x5B,0x0,0x5B,0x0
000c46 005b
000c47 005b
000c48 005b
000c49 005b      	.DB  0x5B,0x0,0x5B,0x0,0x5B,0x0,0x5B,0x0
000c4a 005b
000c4b 005b
000c4c 005b
000c4d 005b      	.DB  0x5B,0x0,0x5B,0x0,0x5B,0x0,0x5B,0x0
000c4e 005b
000c4f 005b
000c50 005b
000c51 005b      	.DB  0x5B,0x0,0x5B,0x0,0x5B,0x0,0x5B,0x0
000c52 005b
000c53 005b
000c54 005b
000c55 005b      	.DB  0x5B,0x0,0x5B,0x0,0x5B,0x0,0x5B,0x0
000c56 003f
000c57 003f
000c58 003f
000c59 003f      	.DB  0x3F,0x0,0x3F,0x0,0x3F,0x0,0x3F,0x0
000c5a 003f
000c5b 003f
000c5c 003f
000c5d 003f      	.DB  0x3F,0x0,0x3F,0x0,0x3F,0x0,0x3F,0x0
000c5e 003f
000c5f 003f
000c60 003f
000c61 0040      	.DB  0x3F,0x0,0x3F,0x0,0x3F,0x0,0x40,0x0
000c62 0041
000c63 0043
000c64 0046
000c65 0046      	.DB  0x41,0x0,0x43,0x0,0x46,0x0,0x46,0x0
000c66 0047
000c67 0049
000c68 004c
000c69 004c      	.DB  0x47,0x0,0x49,0x0,0x4C,0x0,0x4C,0x0
000c6a 004e
000c6b 0050
000c6c 005b
000c6d 005b      	.DB  0x4E,0x0,0x50,0x0,0x5B,0x0,0x5B,0x0
000c6e 005b
000c6f 005b
000c70 005b
000c71 005b      	.DB  0x5B,0x0,0x5B,0x0,0x5B,0x0,0x5B,0x0
000c72 005b
000c73 005b
000c74 005b
000c75 005b      	.DB  0x5B,0x0,0x5B,0x0,0x5B,0x0,0x5B,0x0
000c76 005b
000c77 005b
000c78 005b
000c79 005b      	.DB  0x5B,0x0,0x5B,0x0,0x5B,0x0,0x5B,0x0
000c7a 005b
000c7b 005b
000c7c 005b
000c7d 005b      	.DB  0x5B,0x0,0x5B,0x0,0x5B,0x0,0x5B,0x0
000c7e 005b
000c7f 003f
000c80 003f
000c81 003f      	.DB  0x5B,0x0,0x3F,0x0,0x3F,0x0,0x3F,0x0
000c82 003f
000c83 003f
000c84 003f
000c85 003f      	.DB  0x3F,0x0,0x3F,0x0,0x3F,0x0,0x3F,0x0
000c86 003f
000c87 003f
000c88 003f
000c89 003f      	.DB  0x3F,0x0,0x3F,0x0,0x3F,0x0,0x3F,0x0
000c8a 0040
000c8b 0041
000c8c 0043
000c8d 0046      	.DB  0x40,0x0,0x41,0x0,0x43,0x0,0x46,0x0
000c8e 0046
000c8f 0047
000c90 0049
000c91 004c      	.DB  0x46,0x0,0x47,0x0,0x49,0x0,0x4C,0x0
000c92 004c
000c93 004e
000c94 0050
000c95 005b      	.DB  0x4C,0x0,0x4E,0x0,0x50,0x0,0x5B,0x0
000c96 005b
000c97 005b
000c98 005b
000c99 005b      	.DB  0x5B,0x0,0x5B,0x0,0x5B,0x0,0x5B,0x0
000c9a 005b
000c9b 005b
000c9c 005b
000c9d 005b      	.DB  0x5B,0x0,0x5B,0x0,0x5B,0x0,0x5B,0x0
000c9e 005b
000c9f 005b
000ca0 005b
000ca1 005b      	.DB  0x5B,0x0,0x5B,0x0,0x5B,0x0,0x5B,0x0
000ca2 005b
000ca3 005b
000ca4 005b
000ca5 005b      	.DB  0x5B,0x0,0x5B,0x0,0x5B,0x0,0x5B,0x0
000ca6 005b
000ca7 005b
000ca8 003f
000ca9 003f      	.DB  0x5B,0x0,0x5B,0x0,0x3F,0x0,0x3F,0x0
000caa 003f
000cab 003f
000cac 003f
000cad 003f      	.DB  0x3F,0x0,0x3F,0x0,0x3F,0x0,0x3F,0x0
000cae 003f
000caf 003f
000cb0 003f
000cb1 003f      	.DB  0x3F,0x0,0x3F,0x0,0x3F,0x0,0x3F,0x0
000cb2 003f
000cb3 0040
000cb4 0041
000cb5 0043      	.DB  0x3F,0x0,0x40,0x0,0x41,0x0,0x43,0x0
000cb6 0046
000cb7 0046
000cb8 0047
000cb9 0049      	.DB  0x46,0x0,0x46,0x0,0x47,0x0,0x49,0x0
000cba 004c
000cbb 004c
000cbc 004e
000cbd 0050      	.DB  0x4C,0x0,0x4C,0x0,0x4E,0x0,0x50,0x0
000cbe 005b
000cbf 005b
000cc0 005b
000cc1 005b      	.DB  0x5B,0x0,0x5B,0x0,0x5B,0x0,0x5B,0x0
000cc2 005b
000cc3 005b
000cc4 005b
000cc5 005b      	.DB  0x5B,0x0,0x5B,0x0,0x5B,0x0,0x5B,0x0
000cc6 005b
000cc7 005b
000cc8 005b
000cc9 005b      	.DB  0x5B,0x0,0x5B,0x0,0x5B,0x0,0x5B,0x0
000cca 005b
000ccb 005b
000ccc 005b
000ccd 005b      	.DB  0x5B,0x0,0x5B,0x0,0x5B,0x0,0x5B,0x0
000cce 005b
000ccf 005b
000cd0 005b
000cd1 003f      	.DB  0x5B,0x0,0x5B,0x0,0x5B,0x0,0x3F,0x0
000cd2 003f
000cd3 003f
000cd4 003f
000cd5 003f      	.DB  0x3F,0x0,0x3F,0x0,0x3F,0x0,0x3F,0x0
000cd6 003f
000cd7 003f
000cd8 003f
000cd9 003f      	.DB  0x3F,0x0,0x3F,0x0,0x3F,0x0,0x3F,0x0
000cda 003f
000cdb 003f
000cdc 0040
000cdd 0041      	.DB  0x3F,0x0,0x3F,0x0,0x40,0x0,0x41,0x0
000cde 0043
000cdf 0046
000ce0 0046
000ce1 0047      	.DB  0x43,0x0,0x46,0x0,0x46,0x0,0x47,0x0
000ce2 0049
000ce3 004c
000ce4 004c
000ce5 004e      	.DB  0x49,0x0,0x4C,0x0,0x4C,0x0,0x4E,0x0
000ce6 0050
000ce7 005b
000ce8 005b
000ce9 005b      	.DB  0x50,0x0,0x5B,0x0,0x5B,0x0,0x5B,0x0
000cea 005b
000ceb 005b
000cec 005b
000ced 005b      	.DB  0x5B,0x0,0x5B,0x0,0x5B,0x0,0x5B,0x0
000cee 005b
000cef 005b
000cf0 005b
000cf1 005b      	.DB  0x5B,0x0,0x5B,0x0,0x5B,0x0,0x5B,0x0
000cf2 005b
000cf3 005b
000cf4 005b
000cf5 005b      	.DB  0x5B,0x0,0x5B,0x0,0x5B,0x0,0x5B,0x0
000cf6 005b
000cf7 005b
000cf8 005b
000cf9 005b      	.DB  0x5B,0x0,0x5B,0x0,0x5B,0x0,0x5B,0x0
000cfa 003f
000cfb 003f
000cfc 003f
000cfd 003f      	.DB  0x3F,0x0,0x3F,0x0,0x3F,0x0,0x3F,0x0
000cfe 003f
000cff 003f
000d00 003f
000d01 003f      	.DB  0x3F,0x0,0x3F,0x0,0x3F,0x0,0x3F,0x0
000d02 003f
000d03 003f
000d04 003f
000d05 0040      	.DB  0x3F,0x0,0x3F,0x0,0x3F,0x0,0x40,0x0
000d06 0041
000d07 0043
000d08 0046
000d09 0046      	.DB  0x41,0x0,0x43,0x0,0x46,0x0,0x46,0x0
000d0a 0047
000d0b 0049
000d0c 004c
000d0d 004c      	.DB  0x47,0x0,0x49,0x0,0x4C,0x0,0x4C,0x0
000d0e 004e
000d0f 0050
000d10 005b
000d11 005b      	.DB  0x4E,0x0,0x50,0x0,0x5B,0x0,0x5B,0x0
000d12 005b
000d13 005b
000d14 005b
000d15 005b      	.DB  0x5B,0x0,0x5B,0x0,0x5B,0x0,0x5B,0x0
000d16 005b
000d17 005b
000d18 005b
000d19 005b      	.DB  0x5B,0x0,0x5B,0x0,0x5B,0x0,0x5B,0x0
000d1a 005b
000d1b 005b
000d1c 005b
000d1d 005b      	.DB  0x5B,0x0,0x5B,0x0,0x5B,0x0,0x5B,0x0
000d1e 005b
000d1f 005b
000d20 005b
000d21 005b      	.DB  0x5B,0x0,0x5B,0x0,0x5B,0x0,0x5B,0x0
000d22 005b
000d23 003f
000d24 003f
000d25 003f      	.DB  0x5B,0x0,0x3F,0x0,0x3F,0x0,0x3F,0x0
000d26 003f
000d27 003f
000d28 003f
000d29 003f      	.DB  0x3F,0x0,0x3F,0x0,0x3F,0x0,0x3F,0x0
000d2a 003f
000d2b 003f
000d2c 003f
000d2d 003f      	.DB  0x3F,0x0,0x3F,0x0,0x3F,0x0,0x3F,0x0
000d2e 0040
000d2f 0041
000d30 0043
000d31 0046      	.DB  0x40,0x0,0x41,0x0,0x43,0x0,0x46,0x0
000d32 0046
000d33 0047
000d34 0049
000d35 004c      	.DB  0x46,0x0,0x47,0x0,0x49,0x0,0x4C,0x0
000d36 004c
000d37 004e
000d38 0050
000d39 005b      	.DB  0x4C,0x0,0x4E,0x0,0x50,0x0,0x5B,0x0
000d3a 005b
000d3b 005b
000d3c 005b
000d3d 005b      	.DB  0x5B,0x0,0x5B,0x0,0x5B,0x0,0x5B,0x0
000d3e 005b
000d3f 005b
000d40 005b
000d41 005b      	.DB  0x5B,0x0,0x5B,0x0,0x5B,0x0,0x5B,0x0
000d42 005b
000d43 005b
000d44 005b
000d45 005b      	.DB  0x5B,0x0,0x5B,0x0,0x5B,0x0,0x5B,0x0
000d46 005b
000d47 005b
000d48 005b
000d49 005b      	.DB  0x5B,0x0,0x5B,0x0,0x5B,0x0,0x5B,0x0
000d4a 005b
000d4b 005b
000d4c 003f
000d4d 003f      	.DB  0x5B,0x0,0x5B,0x0,0x3F,0x0,0x3F,0x0
000d4e 003f
000d4f 003f
000d50 003f
000d51 003f      	.DB  0x3F,0x0,0x3F,0x0,0x3F,0x0,0x3F,0x0
000d52 003f
000d53 003f
000d54 003f
000d55 003f      	.DB  0x3F,0x0,0x3F,0x0,0x3F,0x0,0x3F,0x0
000d56 003f
000d57 0040
000d58 0041
000d59 0043      	.DB  0x3F,0x0,0x40,0x0,0x41,0x0,0x43,0x0
000d5a 0046
000d5b 0046
000d5c 0047
000d5d 0049      	.DB  0x46,0x0,0x46,0x0,0x47,0x0,0x49,0x0
000d5e 004c
000d5f 004c
000d60 004e
000d61 0050      	.DB  0x4C,0x0,0x4C,0x0,0x4E,0x0,0x50,0x0
000d62 005b
000d63 005b
000d64 005b
000d65 005b      	.DB  0x5B,0x0,0x5B,0x0,0x5B,0x0,0x5B,0x0
000d66 005b
000d67 005b
000d68 005b
000d69 005b      	.DB  0x5B,0x0,0x5B,0x0,0x5B,0x0,0x5B,0x0
000d6a 005b
000d6b 005b
000d6c 005b
000d6d 005b      	.DB  0x5B,0x0,0x5B,0x0,0x5B,0x0,0x5B,0x0
000d6e 005b
000d6f 005b
000d70 005b
000d71 005b      	.DB  0x5B,0x0,0x5B,0x0,0x5B,0x0,0x5B,0x0
000d72 005b
000d73 005b
000d74 005b
000d75 003f      	.DB  0x5B,0x0,0x5B,0x0,0x5B,0x0,0x3F,0x0
000d76 003f
000d77 003f
000d78 003f
000d79 003f      	.DB  0x3F,0x0,0x3F,0x0,0x3F,0x0,0x3F,0x0
000d7a 003f
000d7b 003f
000d7c 003f
000d7d 003f      	.DB  0x3F,0x0,0x3F,0x0,0x3F,0x0,0x3F,0x0
000d7e 003f
000d7f 003f
000d80 0040
000d81 0041      	.DB  0x3F,0x0,0x3F,0x0,0x40,0x0,0x41,0x0
000d82 0043
000d83 0046
000d84 0046
000d85 0047      	.DB  0x43,0x0,0x46,0x0,0x46,0x0,0x47,0x0
000d86 0049
000d87 004c
000d88 004c
000d89 004e      	.DB  0x49,0x0,0x4C,0x0,0x4C,0x0,0x4E,0x0
000d8a 0050
000d8b 005b
000d8c 005b
000d8d 005b      	.DB  0x50,0x0,0x5B,0x0,0x5B,0x0,0x5B,0x0
000d8e 005b
000d8f 005b
000d90 005b
000d91 005b      	.DB  0x5B,0x0,0x5B,0x0,0x5B,0x0,0x5B,0x0
000d92 005b
000d93 005b
000d94 005b
000d95 005b      	.DB  0x5B,0x0,0x5B,0x0,0x5B,0x0,0x5B,0x0
000d96 005b
000d97 005b
000d98 005b
000d99 005b      	.DB  0x5B,0x0,0x5B,0x0,0x5B,0x0,0x5B,0x0
000d9a 005b
000d9b 005b
000d9c 005b
000d9d 005b      	.DB  0x5B,0x0,0x5B,0x0,0x5B,0x0,0x5B,0x0
000d9e 003f
000d9f 003f
000da0 003f
000da1 003f      	.DB  0x3F,0x0,0x3F,0x0,0x3F,0x0,0x3F,0x0
000da2 003f
000da3 003f
000da4 003f
000da5 003f      	.DB  0x3F,0x0,0x3F,0x0,0x3F,0x0,0x3F,0x0
000da6 003f
000da7 003f
000da8 003f
000da9 0040      	.DB  0x3F,0x0,0x3F,0x0,0x3F,0x0,0x40,0x0
000daa 0041
000dab 0043
000dac 0046
000dad 0046      	.DB  0x41,0x0,0x43,0x0,0x46,0x0,0x46,0x0
000dae 0047
000daf 0049
000db0 004c
000db1 004c      	.DB  0x47,0x0,0x49,0x0,0x4C,0x0,0x4C,0x0
000db2 004e
000db3 0050
000db4 005b
000db5 005b      	.DB  0x4E,0x0,0x50,0x0,0x5B,0x0,0x5B,0x0
000db6 005b
000db7 005b
000db8 005b
000db9 005b      	.DB  0x5B,0x0,0x5B,0x0,0x5B,0x0,0x5B,0x0
000dba 005b
000dbb 005b
000dbc 005b
000dbd 005b      	.DB  0x5B,0x0,0x5B,0x0,0x5B,0x0,0x5B,0x0
000dbe 005b
000dbf 005b
000dc0 005b
000dc1 005b      	.DB  0x5B,0x0,0x5B,0x0,0x5B,0x0,0x5B,0x0
000dc2 005b
000dc3 005b
000dc4 005b
000dc5 005b      	.DB  0x5B,0x0,0x5B,0x0,0x5B,0x0,0x5B,0x0
000dc6 005b
000dc7 003f
000dc8 003f
000dc9 003f      	.DB  0x5B,0x0,0x3F,0x0,0x3F,0x0,0x3F,0x0
000dca 003f
000dcb 003f
000dcc 003f
000dcd 003f      	.DB  0x3F,0x0,0x3F,0x0,0x3F,0x0,0x3F,0x0
000dce 003f
000dcf 003f
000dd0 003f
000dd1 003f      	.DB  0x3F,0x0,0x3F,0x0,0x3F,0x0,0x3F,0x0
000dd2 0040
000dd3 0041
000dd4 0043
000dd5 0046      	.DB  0x40,0x0,0x41,0x0,0x43,0x0,0x46,0x0
000dd6 0046
000dd7 0047
000dd8 0049
000dd9 004c      	.DB  0x46,0x0,0x47,0x0,0x49,0x0,0x4C,0x0
000dda 004c
000ddb 004e
000ddc 0050
000ddd 005b      	.DB  0x4C,0x0,0x4E,0x0,0x50,0x0,0x5B,0x0
000dde 005b
000ddf 005b
000de0 005b
000de1 005b      	.DB  0x5B,0x0,0x5B,0x0,0x5B,0x0,0x5B,0x0
000de2 005b
000de3 005b
000de4 005b
000de5 005b      	.DB  0x5B,0x0,0x5B,0x0,0x5B,0x0,0x5B,0x0
000de6 005b
000de7 005b
000de8 005b
000de9 005b      	.DB  0x5B,0x0,0x5B,0x0,0x5B,0x0,0x5B,0x0
000dea 005b
000deb 005b
000dec 005b
000ded 005b      	.DB  0x5B,0x0,0x5B,0x0,0x5B,0x0,0x5B,0x0
000dee 005b
000def 005b
000df0 003f
000df1 003f      	.DB  0x5B,0x0,0x5B,0x0,0x3F,0x0,0x3F,0x0
000df2 003f
000df3 003f
000df4 003f
000df5 003f      	.DB  0x3F,0x0,0x3F,0x0,0x3F,0x0,0x3F,0x0
000df6 003f
000df7 003f
000df8 003f
000df9 003f      	.DB  0x3F,0x0,0x3F,0x0,0x3F,0x0,0x3F,0x0
000dfa 003f
000dfb 0040
000dfc 0041
000dfd 0043      	.DB  0x3F,0x0,0x40,0x0,0x41,0x0,0x43,0x0
000dfe 0046
000dff 0046
000e00 0047
000e01 0049      	.DB  0x46,0x0,0x46,0x0,0x47,0x0,0x49,0x0
000e02 004c
000e03 004c
000e04 004e
000e05 0050      	.DB  0x4C,0x0,0x4C,0x0,0x4E,0x0,0x50,0x0
000e06 005b
000e07 005b
000e08 005b
000e09 005b      	.DB  0x5B,0x0,0x5B,0x0,0x5B,0x0,0x5B,0x0
000e0a 005b
000e0b 005b
000e0c 005b
000e0d 005b      	.DB  0x5B,0x0,0x5B,0x0,0x5B,0x0,0x5B,0x0
000e0e 005b
000e0f 005b
000e10 005b
000e11 005b      	.DB  0x5B,0x0,0x5B,0x0,0x5B,0x0,0x5B,0x0
000e12 005b
000e13 005b
000e14 005b
000e15 005b      	.DB  0x5B,0x0,0x5B,0x0,0x5B,0x0,0x5B,0x0
000e16 005b
000e17 005b
000e18 005b
000e19 003f      	.DB  0x5B,0x0,0x5B,0x0,0x5B,0x0,0x3F,0x0
000e1a 003f
000e1b 003f
000e1c 003f
000e1d 003f      	.DB  0x3F,0x0,0x3F,0x0,0x3F,0x0,0x3F,0x0
000e1e 003f
000e1f 003f
000e20 003f
000e21 003f      	.DB  0x3F,0x0,0x3F,0x0,0x3F,0x0,0x3F,0x0
000e22 003f
000e23 003f
000e24 0040
000e25 0041      	.DB  0x3F,0x0,0x3F,0x0,0x40,0x0,0x41,0x0
000e26 0043
000e27 0046
000e28 0046
000e29 0047      	.DB  0x43,0x0,0x46,0x0,0x46,0x0,0x47,0x0
000e2a 0049
000e2b 004c
000e2c 004c
000e2d 004e      	.DB  0x49,0x0,0x4C,0x0,0x4C,0x0,0x4E,0x0
000e2e 0050
000e2f 005b
000e30 005b
000e31 005b      	.DB  0x50,0x0,0x5B,0x0,0x5B,0x0,0x5B,0x0
000e32 005b
000e33 005b
000e34 005b
000e35 005b      	.DB  0x5B,0x0,0x5B,0x0,0x5B,0x0,0x5B,0x0
000e36 005b
000e37 005b
000e38 005b
000e39 005b      	.DB  0x5B,0x0,0x5B,0x0,0x5B,0x0,0x5B,0x0
000e3a 005b
000e3b 005b
000e3c 005b
000e3d 005b      	.DB  0x5B,0x0,0x5B,0x0,0x5B,0x0,0x5B,0x0
000e3e 005b
000e3f 005b
000e40 005b
000e41 005b      	.DB  0x5B,0x0,0x5B,0x0,0x5B,0x0,0x5B,0x0
000e42 003f
000e43 003f
000e44 003f
000e45 003f      	.DB  0x3F,0x0,0x3F,0x0,0x3F,0x0,0x3F,0x0
000e46 003f
000e47 003f
000e48 003f
000e49 003f      	.DB  0x3F,0x0,0x3F,0x0,0x3F,0x0,0x3F,0x0
000e4a 003f
000e4b 003f
000e4c 003f
000e4d 0040      	.DB  0x3F,0x0,0x3F,0x0,0x3F,0x0,0x40,0x0
000e4e 0041
000e4f 0043
000e50 0046
000e51 0046      	.DB  0x41,0x0,0x43,0x0,0x46,0x0,0x46,0x0
000e52 0047
000e53 0049
000e54 004c
000e55 004c      	.DB  0x47,0x0,0x49,0x0,0x4C,0x0,0x4C,0x0
000e56 004e
000e57 0050
000e58 005b
000e59 005b      	.DB  0x4E,0x0,0x50,0x0,0x5B,0x0,0x5B,0x0
000e5a 005b
000e5b 005b
000e5c 005b
000e5d 005b      	.DB  0x5B,0x0,0x5B,0x0,0x5B,0x0,0x5B,0x0
000e5e 005b
000e5f 005b
000e60 005b
000e61 005b      	.DB  0x5B,0x0,0x5B,0x0,0x5B,0x0,0x5B,0x0
000e62 005b
000e63 005b
000e64 005b
000e65 005b      	.DB  0x5B,0x0,0x5B,0x0,0x5B,0x0,0x5B,0x0
000e66 005b
000e67 005b
000e68 005b
000e69 005b      	.DB  0x5B,0x0,0x5B,0x0,0x5B,0x0,0x5B,0x0
000e6a 005b
000e6b 003f
000e6c 003f
000e6d 003f      	.DB  0x5B,0x0,0x3F,0x0,0x3F,0x0,0x3F,0x0
000e6e 003f
000e6f 003f
000e70 003f
000e71 003f      	.DB  0x3F,0x0,0x3F,0x0,0x3F,0x0,0x3F,0x0
000e72 003f
000e73 003f
000e74 003f
000e75 003f      	.DB  0x3F,0x0,0x3F,0x0,0x3F,0x0,0x3F,0x0
000e76 0040
000e77 0041
000e78 0043
000e79 0046      	.DB  0x40,0x0,0x41,0x0,0x43,0x0,0x46,0x0
000e7a 0046
000e7b 0047
000e7c 0049
000e7d 004c      	.DB  0x46,0x0,0x47,0x0,0x49,0x0,0x4C,0x0
000e7e 004c
000e7f 004e
000e80 0050
000e81 005b      	.DB  0x4C,0x0,0x4E,0x0,0x50,0x0,0x5B,0x0
000e82 005b
000e83 005b
000e84 005b
000e85 005b      	.DB  0x5B,0x0,0x5B,0x0,0x5B,0x0,0x5B,0x0
000e86 005b
000e87 005b
000e88 005b
000e89 005b      	.DB  0x5B,0x0,0x5B,0x0,0x5B,0x0,0x5B,0x0
000e8a 005b
000e8b 005b
000e8c 005b
000e8d 005b      	.DB  0x5B,0x0,0x5B,0x0,0x5B,0x0,0x5B,0x0
000e8e 005b
000e8f 005b
000e90 005b
000e91 005b      	.DB  0x5B,0x0,0x5B,0x0,0x5B,0x0,0x5B,0x0
000e92 005b
000e93 005b
000e94 003f
000e95 003f      	.DB  0x5B,0x0,0x5B,0x0,0x3F,0x0,0x3F,0x0
000e96 003f
000e97 003f
000e98 003f
000e99 003f      	.DB  0x3F,0x0,0x3F,0x0,0x3F,0x0,0x3F,0x0
000e9a 003f
000e9b 003f
000e9c 003f
000e9d 003f      	.DB  0x3F,0x0,0x3F,0x0,0x3F,0x0,0x3F,0x0
000e9e 003f
000e9f 0040
000ea0 0041
000ea1 0043      	.DB  0x3F,0x0,0x40,0x0,0x41,0x0,0x43,0x0
000ea2 0046
000ea3 0046
000ea4 0047
000ea5 0049      	.DB  0x46,0x0,0x46,0x0,0x47,0x0,0x49,0x0
000ea6 004c
000ea7 004c
000ea8 004e
000ea9 0050      	.DB  0x4C,0x0,0x4C,0x0,0x4E,0x0,0x50,0x0
000eaa 005b
000eab 005b
000eac 005b
000ead 005b      	.DB  0x5B,0x0,0x5B,0x0,0x5B,0x0,0x5B,0x0
000eae 005b
000eaf 005b
000eb0 005b
000eb1 005b      	.DB  0x5B,0x0,0x5B,0x0,0x5B,0x0,0x5B,0x0
000eb2 005b
000eb3 005b
000eb4 005b
000eb5 005b      	.DB  0x5B,0x0,0x5B,0x0,0x5B,0x0,0x5B,0x0
000eb6 005b
000eb7 005b
000eb8 005b
000eb9 005b      	.DB  0x5B,0x0,0x5B,0x0,0x5B,0x0,0x5B,0x0
000eba 005b
000ebb 005b
000ebc 005b
000ebd 003f      	.DB  0x5B,0x0,0x5B,0x0,0x5B,0x0,0x3F,0x0
000ebe 003f
000ebf 003f
000ec0 003f
000ec1 003f      	.DB  0x3F,0x0,0x3F,0x0,0x3F,0x0,0x3F,0x0
000ec2 003f
000ec3 003f
000ec4 003f
000ec5 003f      	.DB  0x3F,0x0,0x3F,0x0,0x3F,0x0,0x3F,0x0
000ec6 003f
000ec7 003f
000ec8 0040
000ec9 0041      	.DB  0x3F,0x0,0x3F,0x0,0x40,0x0,0x41,0x0
000eca 0043
000ecb 0046
000ecc 0046
000ecd 0047      	.DB  0x43,0x0,0x46,0x0,0x46,0x0,0x47,0x0
000ece 0049
000ecf 004c
000ed0 004c
000ed1 004e      	.DB  0x49,0x0,0x4C,0x0,0x4C,0x0,0x4E,0x0
000ed2 0050
000ed3 005b
000ed4 005b
000ed5 005b      	.DB  0x50,0x0,0x5B,0x0,0x5B,0x0,0x5B,0x0
000ed6 005b
000ed7 005b
000ed8 005b
000ed9 005b      	.DB  0x5B,0x0,0x5B,0x0,0x5B,0x0,0x5B,0x0
000eda 005b
000edb 005b
000edc 005b
000edd 005b      	.DB  0x5B,0x0,0x5B,0x0,0x5B,0x0,0x5B,0x0
000ede 005b
000edf 005b
000ee0 005b
000ee1 005b      	.DB  0x5B,0x0,0x5B,0x0,0x5B,0x0,0x5B,0x0
000ee2 005b
000ee3 005b
000ee4 005b
000ee5 005b      	.DB  0x5B,0x0,0x5B,0x0,0x5B,0x0,0x5B,0x0
000ee6 003f
000ee7 003f
000ee8 003f
000ee9 003f      	.DB  0x3F,0x0,0x3F,0x0,0x3F,0x0,0x3F,0x0
000eea 003f
000eeb 003f
000eec 003f
000eed 003f      	.DB  0x3F,0x0,0x3F,0x0,0x3F,0x0,0x3F,0x0
000eee 003f
000eef 003f
000ef0 003f
000ef1 0040      	.DB  0x3F,0x0,0x3F,0x0,0x3F,0x0,0x40,0x0
000ef2 0041
000ef3 0043
000ef4 0046
000ef5 0046      	.DB  0x41,0x0,0x43,0x0,0x46,0x0,0x46,0x0
000ef6 0047
000ef7 0049
000ef8 004c
000ef9 004c      	.DB  0x47,0x0,0x49,0x0,0x4C,0x0,0x4C,0x0
000efa 004e
000efb 0050
000efc 005b
000efd 005b      	.DB  0x4E,0x0,0x50,0x0,0x5B,0x0,0x5B,0x0
000efe 005b
000eff 005b
000f00 005b
000f01 005b      	.DB  0x5B,0x0,0x5B,0x0,0x5B,0x0,0x5B,0x0
000f02 005b
000f03 005b
000f04 005b
000f05 005b      	.DB  0x5B,0x0,0x5B,0x0,0x5B,0x0,0x5B,0x0
000f06 005b
000f07 005b
000f08 005b
000f09 005b      	.DB  0x5B,0x0,0x5B,0x0,0x5B,0x0,0x5B,0x0
000f0a 005b
000f0b 005b
000f0c 005b
000f0d 005b      	.DB  0x5B,0x0,0x5B,0x0,0x5B,0x0,0x5B,0x0
000f0e 005b
000f0f 003f
000f10 003f
000f11 003f      	.DB  0x5B,0x0,0x3F,0x0,0x3F,0x0,0x3F,0x0
000f12 003f
000f13 003f
000f14 003f
000f15 003f      	.DB  0x3F,0x0,0x3F,0x0,0x3F,0x0,0x3F,0x0
000f16 003f
000f17 003f
000f18 003f
000f19 003f      	.DB  0x3F,0x0,0x3F,0x0,0x3F,0x0,0x3F,0x0
000f1a 0040
000f1b 0041
000f1c 0043
000f1d 0046      	.DB  0x40,0x0,0x41,0x0,0x43,0x0,0x46,0x0
000f1e 0046
000f1f 0047
000f20 0049
000f21 004c      	.DB  0x46,0x0,0x47,0x0,0x49,0x0,0x4C,0x0
000f22 004c
000f23 004e
000f24 0050
000f25 005b      	.DB  0x4C,0x0,0x4E,0x0,0x50,0x0,0x5B,0x0
000f26 005b
000f27 005b
000f28 005b
000f29 005b      	.DB  0x5B,0x0,0x5B,0x0,0x5B,0x0,0x5B,0x0
000f2a 005b
000f2b 005b
000f2c 005b
000f2d 005b      	.DB  0x5B,0x0,0x5B,0x0,0x5B,0x0,0x5B,0x0
000f2e 005b
000f2f 005b
000f30 005b
000f31 005b      	.DB  0x5B,0x0,0x5B,0x0,0x5B,0x0,0x5B,0x0
000f32 005b
000f33 005b
000f34 005b
000f35 005b      	.DB  0x5B,0x0,0x5B,0x0,0x5B,0x0,0x5B,0x0
000f36 005b
000f37 005b
000f38 003f
000f39 003f      	.DB  0x5B,0x0,0x5B,0x0,0x3F,0x0,0x3F,0x0
000f3a 003f
000f3b 003f
000f3c 003f
000f3d 003f      	.DB  0x3F,0x0,0x3F,0x0,0x3F,0x0,0x3F,0x0
000f3e 003f
000f3f 003f
000f40 003f
000f41 003f      	.DB  0x3F,0x0,0x3F,0x0,0x3F,0x0,0x3F,0x0
000f42 003f
000f43 0040
000f44 0041
000f45 0043      	.DB  0x3F,0x0,0x40,0x0,0x41,0x0,0x43,0x0
000f46 0046
000f47 0046
000f48 0047
000f49 0049      	.DB  0x46,0x0,0x46,0x0,0x47,0x0,0x49,0x0
000f4a 004c
000f4b 004c
000f4c 004e
000f4d 0050      	.DB  0x4C,0x0,0x4C,0x0,0x4E,0x0,0x50,0x0
000f4e 005b
000f4f 005b
000f50 005b
000f51 005b      	.DB  0x5B,0x0,0x5B,0x0,0x5B,0x0,0x5B,0x0
000f52 005b
000f53 005b
000f54 005b
000f55 005b      	.DB  0x5B,0x0,0x5B,0x0,0x5B,0x0,0x5B,0x0
000f56 005b
000f57 005b
000f58 005b
000f59 005b      	.DB  0x5B,0x0,0x5B,0x0,0x5B,0x0,0x5B,0x0
000f5a 005b
000f5b 005b
000f5c 005b
000f5d 005b      	.DB  0x5B,0x0,0x5B,0x0,0x5B,0x0,0x5B,0x0
000f5e 005b
000f5f 005b
000f60 005b
000f61 003f      	.DB  0x5B,0x0,0x5B,0x0,0x5B,0x0,0x3F,0x0
000f62 003f
000f63 003f
000f64 003f
000f65 003f      	.DB  0x3F,0x0,0x3F,0x0,0x3F,0x0,0x3F,0x0
000f66 003f
000f67 003f
000f68 003f
000f69 003f      	.DB  0x3F,0x0,0x3F,0x0,0x3F,0x0,0x3F,0x0
000f6a 003f
000f6b 003f
000f6c 0040
000f6d 0041      	.DB  0x3F,0x0,0x3F,0x0,0x40,0x0,0x41,0x0
000f6e 0043
000f6f 0046
000f70 0046
000f71 0047      	.DB  0x43,0x0,0x46,0x0,0x46,0x0,0x47,0x0
000f72 0049
000f73 004c
000f74 004c
000f75 004e      	.DB  0x49,0x0,0x4C,0x0,0x4C,0x0,0x4E,0x0
000f76 0050
000f77 005b
000f78 005b
000f79 005b      	.DB  0x50,0x0,0x5B,0x0,0x5B,0x0,0x5B,0x0
000f7a 005b
000f7b 005b
000f7c 005b
000f7d 005b      	.DB  0x5B,0x0,0x5B,0x0,0x5B,0x0,0x5B,0x0
000f7e 005b
000f7f 005b
000f80 005b
000f81 005b      	.DB  0x5B,0x0,0x5B,0x0,0x5B,0x0,0x5B,0x0
000f82 005b
000f83 005b
000f84 005b
000f85 005b      	.DB  0x5B,0x0,0x5B,0x0,0x5B,0x0,0x5B,0x0
000f86 005b
000f87 005b
000f88 005b
000f89 005b      	.DB  0x5B,0x0,0x5B,0x0,0x5B,0x0,0x5B,0x0
000f8a 003f
000f8b 003f
000f8c 003f
000f8d 003f      	.DB  0x3F,0x0,0x3F,0x0,0x3F,0x0,0x3F,0x0
000f8e 003f
000f8f 003f
000f90 003f
000f91 003f      	.DB  0x3F,0x0,0x3F,0x0,0x3F,0x0,0x3F,0x0
000f92 003f
000f93 003f
000f94 003f
000f95 0040      	.DB  0x3F,0x0,0x3F,0x0,0x3F,0x0,0x40,0x0
000f96 0041
000f97 0043
000f98 0046
000f99 0046      	.DB  0x41,0x0,0x43,0x0,0x46,0x0,0x46,0x0
000f9a 0047
000f9b 0049
000f9c 004c
000f9d 004c      	.DB  0x47,0x0,0x49,0x0,0x4C,0x0,0x4C,0x0
000f9e 004e
000f9f 0050
000fa0 005b
000fa1 005b      	.DB  0x4E,0x0,0x50,0x0,0x5B,0x0,0x5B,0x0
000fa2 005b
000fa3 005b
000fa4 005b
000fa5 005b      	.DB  0x5B,0x0,0x5B,0x0,0x5B,0x0,0x5B,0x0
000fa6 005b
000fa7 005b
000fa8 005b
000fa9 005b      	.DB  0x5B,0x0,0x5B,0x0,0x5B,0x0,0x5B,0x0
000faa 005b
000fab 005b
000fac 005b
000fad 005b      	.DB  0x5B,0x0,0x5B,0x0,0x5B,0x0,0x5B,0x0
000fae 005b
000faf 005b
000fb0 005b
000fb1 005b      	.DB  0x5B,0x0,0x5B,0x0,0x5B,0x0,0x5B,0x0
000fb2 005b
000fb3 003f
000fb4 003f
000fb5 003f      	.DB  0x5B,0x0,0x3F,0x0,0x3F,0x0,0x3F,0x0
000fb6 003f
000fb7 003f
000fb8 003f
000fb9 003f      	.DB  0x3F,0x0,0x3F,0x0,0x3F,0x0,0x3F,0x0
000fba 003f
000fbb 003f
000fbc 003f
000fbd 003f      	.DB  0x3F,0x0,0x3F,0x0,0x3F,0x0,0x3F,0x0
000fbe 0040
000fbf 0041
000fc0 0043
000fc1 0046      	.DB  0x40,0x0,0x41,0x0,0x43,0x0,0x46,0x0
000fc2 0046
000fc3 0047
000fc4 0049
000fc5 004c      	.DB  0x46,0x0,0x47,0x0,0x49,0x0,0x4C,0x0
000fc6 004c
000fc7 004e
000fc8 0050
000fc9 005b      	.DB  0x4C,0x0,0x4E,0x0,0x50,0x0,0x5B,0x0
000fca 005b
000fcb 005b
000fcc 005b
000fcd 005b      	.DB  0x5B,0x0,0x5B,0x0,0x5B,0x0,0x5B,0x0
000fce 005b
000fcf 005b
000fd0 005b
000fd1 005b      	.DB  0x5B,0x0,0x5B,0x0,0x5B,0x0,0x5B,0x0
000fd2 005b
000fd3 005b
000fd4 005b
000fd5 005b      	.DB  0x5B,0x0,0x5B,0x0,0x5B,0x0,0x5B,0x0
000fd6 005b
000fd7 005b
000fd8 005b
000fd9 005b      	.DB  0x5B,0x0,0x5B,0x0,0x5B,0x0,0x5B,0x0
000fda 005b
000fdb 005b
000fdc 003f
000fdd 003f      	.DB  0x5B,0x0,0x5B,0x0,0x3F,0x0,0x3F,0x0
000fde 003f
000fdf 003f
000fe0 003f
000fe1 003f      	.DB  0x3F,0x0,0x3F,0x0,0x3F,0x0,0x3F,0x0
000fe2 003f
000fe3 003f
000fe4 003f
000fe5 003f      	.DB  0x3F,0x0,0x3F,0x0,0x3F,0x0,0x3F,0x0
000fe6 003f
000fe7 0040
000fe8 0041
000fe9 0043      	.DB  0x3F,0x0,0x40,0x0,0x41,0x0,0x43,0x0
000fea 0046
000feb 0046
000fec 0047
000fed 0049      	.DB  0x46,0x0,0x46,0x0,0x47,0x0,0x49,0x0
000fee 004c
000fef 004c
000ff0 004e
000ff1 0050      	.DB  0x4C,0x0,0x4C,0x0,0x4E,0x0,0x50,0x0
000ff2 005b
000ff3 005b
000ff4 005b
000ff5 005b      	.DB  0x5B,0x0,0x5B,0x0,0x5B,0x0,0x5B,0x0
000ff6 005b
000ff7 005b
000ff8 005b
000ff9 005b      	.DB  0x5B,0x0,0x5B,0x0,0x5B,0x0,0x5B,0x0
000ffa 005b
000ffb 005b
000ffc 005b
000ffd 005b      	.DB  0x5B,0x0,0x5B,0x0,0x5B,0x0,0x5B,0x0
000ffe 005b
000fff 005b
001000 005b
001001 005b      	.DB  0x5B,0x0,0x5B,0x0,0x5B,0x0,0x5B,0x0
001002 005b
001003 005b
001004 005b
001005 003f      	.DB  0x5B,0x0,0x5B,0x0,0x5B,0x0,0x3F,0x0
001006 003f
001007 003f
001008 003f
001009 003f      	.DB  0x3F,0x0,0x3F,0x0,0x3F,0x0,0x3F,0x0
00100a 003f
00100b 003f
00100c 003f
00100d 003f      	.DB  0x3F,0x0,0x3F,0x0,0x3F,0x0,0x3F,0x0
00100e 003f
00100f 003f
001010 0040
001011 0041      	.DB  0x3F,0x0,0x3F,0x0,0x40,0x0,0x41,0x0
001012 0043
001013 0046
001014 0046
001015 0047      	.DB  0x43,0x0,0x46,0x0,0x46,0x0,0x47,0x0
001016 0049
001017 004c
001018 004c
001019 004e      	.DB  0x49,0x0,0x4C,0x0,0x4C,0x0,0x4E,0x0
00101a 0050
00101b 005b
00101c 005b
00101d 005b      	.DB  0x50,0x0,0x5B,0x0,0x5B,0x0,0x5B,0x0
00101e 005b
00101f 005b
001020 005b
001021 005b      	.DB  0x5B,0x0,0x5B,0x0,0x5B,0x0,0x5B,0x0
001022 005b
001023 005b
001024 005b
001025 005b      	.DB  0x5B,0x0,0x5B,0x0,0x5B,0x0,0x5B,0x0
001026 005b
001027 005b
001028 005b
001029 005b      	.DB  0x5B,0x0,0x5B,0x0,0x5B,0x0,0x5B,0x0
00102a 005b
00102b 005b
00102c 005b
00102d 005b      	.DB  0x5B,0x0,0x5B,0x0,0x5B,0x0,0x5B,0x0
00102e 003f
00102f 003f
001030 003f
001031 003f      	.DB  0x3F,0x0,0x3F,0x0,0x3F,0x0,0x3F,0x0
001032 003f
001033 003f
001034 003f
001035 003f      	.DB  0x3F,0x0,0x3F,0x0,0x3F,0x0,0x3F,0x0
001036 003f
001037 003f
001038 003f
001039 0040      	.DB  0x3F,0x0,0x3F,0x0,0x3F,0x0,0x40,0x0
00103a 0041
00103b 0043
00103c 0046
00103d 0046      	.DB  0x41,0x0,0x43,0x0,0x46,0x0,0x46,0x0
00103e 0047
00103f 0049
001040 004c
001041 004c      	.DB  0x47,0x0,0x49,0x0,0x4C,0x0,0x4C,0x0
001042 004e
001043 0050
001044 005b
001045 005b      	.DB  0x4E,0x0,0x50,0x0,0x5B,0x0,0x5B,0x0
001046 005b
001047 005b
001048 005b
001049 005b      	.DB  0x5B,0x0,0x5B,0x0,0x5B,0x0,0x5B,0x0
00104a 005b
00104b 005b
00104c 005b
00104d 005b      	.DB  0x5B,0x0,0x5B,0x0,0x5B,0x0,0x5B,0x0
00104e 005b
00104f 005b
001050 005b
001051 005b      	.DB  0x5B,0x0,0x5B,0x0,0x5B,0x0,0x5B,0x0
001052 005b
001053 005b
001054 005b
001055 005b      	.DB  0x5B,0x0,0x5B,0x0,0x5B,0x0,0x5B,0x0
001056 005b      	.DB  0x5B,0x0
                 
                 ;REGISTER BIT VARIABLES INITIALIZATION
                 __REG_BIT_VARS:
001057 0000      	.DW  0x0000
                 
                 ;GLOBAL REGISTER VARIABLES INITIALIZATION
                 __REG_VARS:
001058 0000
001059 0000      	.DB  0x0,0x0,0x0,0x0
                 
                 _0x0:
00105a 6f44
00105b 7463
00105c 726f
00105d 6e20      	.DB  0x44,0x6F,0x63,0x74,0x6F,0x72,0x20,0x6E
00105e 6461
00105f 7265
001060 0069
001061 7325      	.DB  0x61,0x64,0x65,0x72,0x69,0x0,0x25,0x73
001062 2500
001063 2e34
001064 6631
001065 2067      	.DB  0x0,0x25,0x34,0x2E,0x31,0x66,0x67,0x20
001066 3425
001067 312e
001068 6766
001069 2520      	.DB  0x25,0x34,0x2E,0x31,0x66,0x67,0x20,0x25
00106a 2e34
00106b 6631
00106c 2067
00106d 3425      	.DB  0x34,0x2E,0x31,0x66,0x67,0x20,0x25,0x34
00106e 312e
00106f 6766
001070 2520
001071 0069      	.DB  0x2E,0x31,0x66,0x67,0x20,0x25,0x69,0x0
                 _0x2000003:
001072 c080      	.DB  0x80,0xC0
                 _0x2020000:
001073 4e2d
001074 4e41
D:\Flash Sony Backup\Dynamic scaling 2\16(fuzzy)\List\Project.asm(2179): warning: .cseg .db misalignment - padding zero byte
001075 0000      	.DB  0x2D,0x4E,0x41,0x4E,0x0
                 _0x2040060:
D:\Flash Sony Backup\Dynamic scaling 2\16(fuzzy)\List\Project.asm(2181): warning: .cseg .db misalignment - padding zero byte
001076 0001      	.DB  0x1
                 _0x2040000:
001077 4e2d
001078 4e41
001079 4900
00107a 464e      	.DB  0x2D,0x4E,0x41,0x4E,0x0,0x49,0x4E,0x46
D:\Flash Sony Backup\Dynamic scaling 2\16(fuzzy)\List\Project.asm(2184): warning: .cseg .db misalignment - padding zero byte
00107b 0000      	.DB  0x0
                 
                 __GLOBAL_INI_TBL:
00107c 0001      	.DW  0x01
00107d 0002      	.DW  0x02
00107e 20ae      	.DW  __REG_BIT_VARS*2
                 
00107f 0004      	.DW  0x04
001080 0004      	.DW  0x04
001081 20b0      	.DW  __REG_VARS*2
                 
001082 0002      	.DW  0x02
001083 033c      	.DW  __base_y_G100
001084 20e4      	.DW  _0x2000003*2
                 
001085 0001      	.DW  0x01
001086 0340      	.DW  __seed_G102
001087 20ec      	.DW  _0x2040060*2
                 
                 _0xFFFFFFFF:
001088 0000      	.DW  0
                 
                 #define __GLOBAL_INI_TBL_PRESENT 1
                 
                 __RESET:
001089 94f8      	CLI
00108a 27ee      	CLR  R30
00108b bbec      	OUT  EECR,R30
                 
                 ;INTERRUPT VECTORS ARE PLACED
                 ;AT THE START OF FLASH
00108c e0f1      	LDI  R31,1
00108d bff5      	OUT  MCUCR,R31
00108e bfe5      	OUT  MCUCR,R30
                 
                 ;DISABLE WATCHDOG
00108f e1f8      	LDI  R31,0x18
001090 bdf1      	OUT  WDTCR,R31
001091 bde1      	OUT  WDTCR,R30
                 
                 ;CLEAR R2-R14
001092 e08d      	LDI  R24,(14-2)+1
001093 e0a2      	LDI  R26,2
001094 27bb      	CLR  R27
                 __CLEAR_REG:
001095 93ed      	ST   X+,R30
001096 958a      	DEC  R24
001097 f7e9      	BRNE __CLEAR_REG
                 
                 ;CLEAR SRAM
001098 e080      	LDI  R24,LOW(__CLEAR_SRAM_SIZE)
001099 e098      	LDI  R25,HIGH(__CLEAR_SRAM_SIZE)
00109a e6a0      	LDI  R26,__SRAM_START
                 __CLEAR_SRAM:
00109b 93ed      	ST   X+,R30
00109c 9701      	SBIW R24,1
00109d f7e9      	BRNE __CLEAR_SRAM
                 
                 ;GLOBAL VARIABLES INITIALIZATION
00109e efe8      	LDI  R30,LOW(__GLOBAL_INI_TBL*2)
00109f e2f0      	LDI  R31,HIGH(__GLOBAL_INI_TBL*2)
                 __GLOBAL_INI_NEXT:
0010a0 9185      	LPM  R24,Z+
0010a1 9195      	LPM  R25,Z+
0010a2 9700      	SBIW R24,0
0010a3 f061      	BREQ __GLOBAL_INI_END
0010a4 91a5      	LPM  R26,Z+
0010a5 91b5      	LPM  R27,Z+
0010a6 9005      	LPM  R0,Z+
0010a7 9015      	LPM  R1,Z+
0010a8 01bf      	MOVW R22,R30
0010a9 01f0      	MOVW R30,R0
                 __GLOBAL_INI_LOOP:
0010aa 9005      	LPM  R0,Z+
0010ab 920d      	ST   X+,R0
0010ac 9701      	SBIW R24,1
0010ad f7e1      	BRNE __GLOBAL_INI_LOOP
0010ae 01fb      	MOVW R30,R22
0010af cff0      	RJMP __GLOBAL_INI_NEXT
                 __GLOBAL_INI_END:
                 
                 ;HARDWARE STACK POINTER INITIALIZATION
0010b0 e5ef      	LDI  R30,LOW(__SRAM_END-__HEAP_SIZE)
0010b1 bfed      	OUT  SPL,R30
0010b2 e0e8      	LDI  R30,HIGH(__SRAM_END-__HEAP_SIZE)
0010b3 bfee      	OUT  SPH,R30
                 
                 ;DATA STACK POINTER INITIALIZATION
0010b4 e6c0      	LDI  R28,LOW(__SRAM_START+__DSTACK_SIZE)
0010b5 e0d2      	LDI  R29,HIGH(__SRAM_START+__DSTACK_SIZE)
                 
0010b6 940c 10f9 	JMP  _main
                 
                 	.ESEG
                 	.ORG 0
                 
                 	.DSEG
                 	.ORG 0x260
                 
                 	.CSEG
                 ;/*********************************
                 ;
                 ;   5KG   LOADCELL Driver  with HX711
                 ;
                 ;**********************************/
                 ;
                 ;#include <mega32a.h>
                 	#ifndef __SLEEP_DEFINED__
                 	#define __SLEEP_DEFINED__
                 	.EQU __se_bit=0x80
                 	.EQU __sm_mask=0x70
                 	.EQU __sm_powerdown=0x20
                 	.EQU __sm_powersave=0x30
                 	.EQU __sm_standby=0x60
                 	.EQU __sm_ext_standby=0x70
                 	.EQU __sm_adc_noise_red=0x10
                 	.SET power_ctrl_reg=mcucr
                 	#endif
                 ;#include <delay.h>
                 ;#include <alcd.h>
                 ;#include <stdio.h>
                 ;#include <stdlib.h>
                 ;#include <pgmspace.h>
                 ;//#include <fuzzy_code.h>
                 ;
                 ;int flash fuzzy[101][41] ={
                 ;{11, 11, 11, 11, 11, 11, 11, 11, 11, 12, 12, 13, 12, 12, 11, 12, 12, 13, 14, 13, 11, 17, 30, 30, 30, 30, 30, 44, 51, 57, ...
                 ;{11, 11, 11, 11, 11, 11, 11, 11, 11, 12, 12, 13, 12, 12, 11, 12, 12, 13, 14, 13, 11, 17, 30, 30, 30, 30, 30, 44, 51, 57, ...
                 ;{11, 11, 11, 11, 11, 11, 11, 11, 11, 12, 12, 13, 12, 12, 11, 12, 12, 13, 14, 13, 11, 17, 30, 30, 30, 30, 30, 44, 51, 57, ...
                 ;{11, 11, 11, 11, 11, 11, 11, 11, 11, 12, 12, 13, 12, 12, 11, 12, 12, 13, 14, 13, 11, 17, 30, 30, 30, 30, 30, 44, 51, 57, ...
                 ;{11, 11, 11, 11, 11, 11, 11, 11, 11, 12, 12, 13, 12, 12, 11, 12, 12, 13, 14, 13, 11, 17, 30, 30, 30, 30, 30, 44, 51, 57, ...
                 ;{11, 11, 11, 11, 11, 11, 11, 11, 11, 12, 12, 13, 12, 12, 11, 12, 12, 13, 14, 13, 11, 17, 30, 30, 30, 30, 30, 44, 51, 57, ...
                 ;{11, 11, 11, 11, 11, 11, 11, 11, 11, 12, 12, 13, 12, 12, 11, 12, 12, 13, 14, 13, 11, 17, 30, 30, 30, 30, 30, 44, 51, 57, ...
                 ;{11, 11, 11, 11, 11, 11, 11, 11, 11, 12, 12, 13, 12, 12, 11, 12, 12, 13, 14, 13, 11, 17, 30, 30, 30, 30, 30, 44, 51, 57, ...
                 ;{11, 11, 11, 11, 11, 11, 11, 11, 11, 12, 12, 13, 12, 12, 11, 12, 12, 13, 14, 13, 11, 17, 30, 30, 30, 30, 30, 44, 51, 57, ...
                 ;{11, 11, 11, 11, 11, 11, 11, 11, 11, 12, 12, 13, 12, 12, 11, 12, 12, 13, 14, 13, 11, 17, 30, 30, 30, 30, 30, 44, 51, 57, ...
                 ;{11, 11, 11, 11, 11, 11, 11, 11, 11, 12, 12, 13, 12, 12, 11, 12, 12, 13, 14, 13, 11, 17, 30, 30, 30, 30, 30, 44, 51, 57, ...
                 ;{12, 12, 12, 12, 12, 12, 12, 12, 12, 12, 12, 13, 12, 12, 12, 12, 12, 13, 14, 13, 12, 17, 30, 30, 30, 30, 30, 44, 51, 57, ...
                 ;{12, 12, 12, 12, 12, 12, 12, 12, 12, 12, 12, 13, 12, 12, 12, 12, 12, 13, 14, 13, 12, 17, 30, 30, 30, 30, 30, 44, 51, 57, ...
                 ;{12, 12, 12, 12, 12, 12, 12, 12, 12, 12, 12, 13, 12, 12, 12, 12, 12, 13, 14, 13, 12, 17, 30, 30, 30, 30, 30, 44, 51, 57, ...
                 ;{12, 12, 12, 12, 12, 12, 12, 12, 12, 12, 12, 13, 12, 12, 12, 12, 12, 13, 14, 13, 12, 17, 30, 30, 30, 30, 30, 44, 51, 57, ...
                 ;{12, 12, 12, 12, 12, 12, 12, 12, 12, 12, 12, 13, 12, 12, 12, 12, 12, 13, 14, 13, 12, 17, 30, 30, 30, 30, 30, 45, 51, 57, ...
                 ;{13, 13, 13, 13, 13, 13, 13, 13, 13, 13, 13, 13, 13, 13, 13, 13, 13, 13, 14, 13, 13, 17, 30, 30, 30, 30, 30, 45, 52, 57, ...
                 ;{13, 13, 13, 13, 13, 13, 13, 13, 13, 13, 13, 13, 13, 13, 13, 13, 13, 13, 14, 13, 13, 17, 30, 30, 30, 30, 30, 46, 53, 57, ...
                 ;{13, 13, 13, 13, 13, 13, 13, 13, 13, 13, 13, 13, 13, 13, 13, 13, 13, 13, 14, 13, 13, 17, 30, 30, 30, 30, 30, 46, 53, 57, ...
                 ;{13, 13, 13, 13, 13, 13, 13, 13, 13, 13, 13, 13, 13, 13, 13, 13, 13, 13, 14, 13, 13, 17, 30, 30, 30, 30, 30, 45, 52, 57, ...
                 ;{12, 12, 12, 12, 12, 12, 12, 12, 12, 12, 12, 13, 12, 12, 12, 12, 12, 13, 14, 13, 12, 17, 30, 30, 30, 30, 30, 45, 51, 57, ...
                 ;{12, 12, 12, 12, 12, 12, 12, 12, 12, 12, 12, 13, 12, 12, 12, 12, 12, 13, 14, 13, 12, 17, 30, 30, 30, 30, 30, 44, 51, 57, ...
                 ;{12, 12, 12, 12, 12, 12, 12, 12, 12, 12, 12, 13, 12, 12, 12, 12, 12, 13, 14, 13, 12, 17, 30, 30, 30, 30, 30, 44, 51, 57, ...
                 ;{12, 12, 12, 12, 12, 12, 12, 12, 12, 12, 12, 13, 12, 12, 12, 12, 12, 13, 14, 13, 12, 17, 30, 30, 30, 30, 30, 44, 51, 57, ...
                 ;{12, 12, 12, 12, 12, 12, 12, 12, 12, 12, 12, 13, 12, 12, 12, 12, 12, 13, 14, 13, 12, 17, 30, 30, 30, 30, 30, 44, 51, 57, ...
                 ;{11, 11, 11, 11, 11, 11, 11, 11, 11, 12, 12, 13, 12, 12, 11, 12, 12, 13, 14, 13, 11, 17, 30, 30, 30, 30, 30, 44, 51, 57, ...
                 ;{12, 12, 12, 12, 12, 12, 12, 12, 12, 13, 14, 15, 14, 13, 13, 13, 14, 15, 16, 17, 14, 25, 40, 38, 37, 36, 36, 45, 52, 57, ...
                 ;{12, 12, 12, 12, 12, 12, 12, 12, 12, 14, 15, 16, 15, 14, 14, 14, 15, 16, 18, 20, 17, 30, 45, 42, 41, 40, 40, 46, 53, 57, ...
                 ;{12, 12, 12, 12, 12, 12, 12, 12, 12, 15, 16, 17, 16, 15, 15, 15, 16, 17, 19, 22, 19, 33, 49, 46, 44, 44, 44, 48, 53, 58, ...
                 ;{12, 12, 12, 12, 12, 12, 12, 12, 12, 15, 17, 18, 17, 16, 16, 16, 17, 18, 20, 24, 21, 33, 51, 48, 46, 46, 46, 50, 54, 58, ...
                 ;{12, 12, 12, 12, 12, 12, 12, 12, 12, 15, 18, 19, 18, 18, 18, 18, 18, 19, 21, 25, 23, 34, 53, 50, 48, 48, 48, 51, 55, 59, ...
                 ;{13, 13, 13, 13, 13, 13, 13, 13, 13, 16, 18, 20, 19, 19, 19, 19, 19, 20, 21, 26, 25, 35, 53, 51, 50, 50, 50, 53, 56, 59, ...
                 ;{13, 13, 13, 13, 13, 13, 13, 13, 13, 16, 19, 20, 20, 20, 20, 20, 20, 20, 21, 27, 27, 35, 53, 52, 52, 52, 52, 55, 57, 59, ...
                 ;{13, 13, 13, 13, 13, 13, 13, 13, 13, 16, 19, 20, 21, 21, 21, 21, 21, 21, 21, 28, 28, 36, 53, 53, 53, 53, 53, 56, 58, 60, ...
                 ;{13, 13, 13, 13, 13, 13, 13, 13, 13, 16, 18, 20, 22, 22, 22, 22, 22, 22, 21, 29, 30, 37, 53, 54, 55, 55, 55, 57, 60, 61, ...
                 ;{12, 12, 12, 12, 12, 12, 12, 12, 12, 15, 18, 20, 23, 23, 23, 23, 23, 23, 21, 31, 32, 39, 53, 55, 57, 57, 57, 59, 61, 63, ...
                 ;{12, 12, 12, 12, 12, 12, 12, 12, 12, 15, 18, 20, 23, 25, 25, 25, 24, 24, 22, 32, 34, 41, 54, 57, 58, 58, 58, 61, 63, 65, ...
                 ;{12, 12, 12, 12, 12, 12, 12, 12, 12, 15, 18, 20, 23, 26, 26, 26, 26, 25, 24, 34, 36, 43, 56, 59, 60, 60, 60, 62, 64, 67, ...
                 ;{12, 12, 12, 12, 12, 12, 12, 12, 12, 15, 18, 20, 23, 26, 27, 27, 27, 26, 25, 37, 39, 46, 59, 61, 62, 62, 62, 64, 67, 69, ...
                 ;{12, 12, 12, 12, 12, 12, 12, 12, 12, 15, 18, 20, 23, 26, 29, 28, 28, 28, 27, 39, 41, 49, 63, 64, 64, 65, 65, 67, 69, 72, ...
                 ;{11, 11, 11, 11, 11, 11, 11, 11, 11, 15, 18, 20, 23, 26, 30, 30, 30, 30, 30, 41, 45, 54, 68, 68, 68, 68, 68, 70, 73, 76, ...
                 ;{12, 12, 12, 12, 12, 12, 12, 12, 12, 16, 19, 22, 25, 28, 31, 31, 32, 32, 32, 45, 48, 55, 69, 69, 69, 69, 69, 70, 73, 76, ...
                 ;{12, 12, 12, 12, 12, 12, 12, 12, 12, 18, 20, 23, 26, 29, 33, 33, 33, 33, 34, 48, 51, 57, 71, 70, 70, 70, 70, 70, 73, 76, ...
                 ;{12, 12, 12, 12, 12, 12, 12, 12, 12, 18, 22, 24, 27, 30, 34, 34, 34, 34, 36, 51, 53, 59, 72, 71, 71, 71, 71, 71, 73, 76, ...
                 ;{12, 12, 12, 12, 12, 12, 12, 12, 12, 19, 23, 25, 28, 31, 35, 35, 35, 35, 37, 52, 55, 60, 73, 72, 72, 72, 72, 72, 73, 76, ...
                 ;{12, 12, 12, 12, 12, 12, 12, 12, 12, 20, 24, 26, 29, 32, 35, 35, 35, 36, 38, 54, 56, 61, 75, 73, 73, 73, 73, 73, 73, 76, ...
                 ;{13, 13, 13, 13, 13, 13, 13, 13, 13, 20, 24, 27, 30, 33, 36, 36, 36, 37, 38, 55, 58, 61, 75, 74, 74, 74, 74, 74, 74, 76, ...
                 ;{13, 13, 13, 13, 13, 13, 13, 13, 13, 21, 25, 28, 30, 33, 37, 37, 37, 37, 38, 56, 59, 62, 75, 75, 75, 75, 75, 75, 75, 76, ...
                 ;{13, 13, 13, 13, 13, 13, 13, 13, 13, 21, 25, 28, 31, 34, 38, 38, 38, 38, 38, 56, 60, 62, 75, 76, 76, 76, 76, 76, 76, 76, ...
                 ;{13, 13, 13, 13, 13, 13, 13, 13, 13, 20, 24, 28, 31, 35, 39, 39, 39, 38, 38, 57, 61, 63, 75, 76, 78, 78, 78, 78, 78, 76, ...
                 ;{12, 12, 12, 12, 12, 12, 12, 12, 12, 20, 24, 28, 32, 35, 40, 40, 40, 39, 38, 57, 62, 64, 75, 77, 79, 79, 79, 79, 79, 77, ...
                 ;{12, 12, 12, 12, 12, 12, 12, 12, 12, 19, 23, 28, 32, 36, 40, 40, 40, 40, 38, 58, 63, 65, 76, 78, 80, 81, 81, 81, 80, 78, ...
                 ;{12, 12, 12, 12, 12, 12, 12, 12, 12, 18, 23, 28, 32, 37, 41, 41, 41, 41, 39, 59, 64, 66, 77, 80, 82, 83, 83, 83, 82, 80, ...
                 ;{12, 12, 12, 12, 12, 12, 12, 12, 12, 18, 23, 28, 32, 37, 42, 42, 42, 42, 41, 60, 65, 67, 80, 82, 84, 85, 85, 85, 84, 82, ...
                 ;{12, 12, 12, 12, 12, 12, 12, 12, 12, 18, 23, 28, 32, 37, 44, 44, 43, 43, 43, 62, 67, 69, 83, 85, 86, 87, 88, 87, 86, 85, ...
                 ;{11, 11, 11, 11, 11, 11, 11, 11, 11, 18, 23, 28, 32, 37, 45, 45, 45, 45, 45, 64, 68, 71, 89, 90, 90, 91, 91, 91, 90, 90, ...
                 ;{18, 18, 18, 18, 18, 18, 18, 18, 18, 22, 27, 31, 36, 41, 49, 49, 50, 51, 52, 65, 69, 71, 89, 90, 90, 91, 91, 91, 90, 90, ...
                 ;{23, 23, 23, 23, 23, 23, 23, 23, 23, 26, 31, 35, 39, 44, 53, 53, 54, 55, 57, 66, 70, 71, 89, 90, 90, 91, 91, 91, 90, 90, ...
                 ;{28, 28, 28, 28, 28, 28, 28, 28, 28, 30, 33, 37, 42, 47, 56, 56, 57, 58, 61, 67, 71, 71, 89, 90, 90, 90, 90, 90, 90, 90, ...
                 ;{32, 32, 32, 32, 32, 32, 32, 32, 32, 34, 36, 40, 44, 50, 59, 59, 59, 61, 64, 69, 72, 72, 89, 90, 90, 90, 90, 90, 90, 90, ...
                 ;{36, 36, 36, 36, 36, 36, 36, 36, 36, 37, 38, 42, 46, 52, 61, 61, 61, 63, 66, 70, 73, 73, 89, 90, 90, 90, 90, 90, 90, 90, ...
                 ;{39, 39, 39, 39, 39, 39, 39, 39, 39, 40, 41, 43, 47, 54, 63, 63, 63, 65, 68, 71, 74, 74, 89, 90, 90, 90, 90, 90, 90, 90, ...
                 ;{43, 43, 43, 43, 43, 43, 43, 43, 43, 43, 44, 44, 49, 56, 66, 66, 66, 66, 70, 72, 75, 75, 89, 90, 90, 90, 90, 90, 90, 90, ...
                 ;{46, 46, 46, 46, 46, 46, 46, 46, 46, 46, 46, 46, 51, 57, 67, 67, 67, 68, 71, 72, 76, 76, 90, 90, 90, 90, 90, 90, 90, 90, ...
                 ;{48, 48, 48, 48, 48, 48, 48, 48, 48, 49, 49, 49, 52, 58, 67, 67, 67, 69, 72, 73, 76, 77, 90, 90, 90, 90, 90, 90, 90, 90, ...
                 ;{51, 51, 51, 51, 51, 51, 51, 51, 51, 51, 51, 52, 53, 59, 68, 68, 68, 70, 73, 74, 76, 77, 90, 90, 90, 90, 90, 90, 90, 90, ...
                 ;{54, 54, 54, 54, 54, 54, 54, 54, 54, 53, 53, 54, 55, 60, 68, 68, 69, 71, 74, 75, 77, 78, 90, 90, 90, 90, 90, 90, 90, 90, ...
                 ;{56, 56, 56, 56, 56, 56, 56, 56, 56, 56, 56, 57, 58, 61, 69, 69, 70, 71, 75, 75, 77, 78, 90, 90, 90, 90, 90, 90, 90, 90, ...
                 ;{58, 58, 58, 58, 58, 58, 58, 58, 58, 58, 58, 59, 60, 62, 69, 69, 70, 72, 75, 76, 77, 79, 91, 91, 91, 91, 91, 91, 91, 91, ...
                 ;{61, 61, 61, 61, 61, 61, 61, 61, 61, 60, 61, 61, 63, 65, 70, 70, 71, 73, 76, 76, 77, 79, 91, 91, 91, 91, 91, 91, 91, 91, ...
                 ;{63, 63, 63, 63, 63, 63, 63, 63, 63, 63, 63, 64, 65, 67, 70, 70, 71, 73, 76, 76, 78, 80, 91, 91, 91, 91, 91, 91, 91, 91, ...
                 ;{63, 63, 63, 63, 63, 63, 63, 63, 63, 63, 63, 64, 65, 67, 70, 70, 71, 73, 76, 76, 78, 80, 91, 91, 91, 91, 91, 91, 91, 91, ...
                 ;{63, 63, 63, 63, 63, 63, 63, 63, 63, 63, 63, 64, 65, 67, 70, 70, 71, 73, 76, 76, 78, 80, 91, 91, 91, 91, 91, 91, 91, 91, ...
                 ;{63, 63, 63, 63, 63, 63, 63, 63, 63, 63, 63, 64, 65, 67, 70, 70, 71, 73, 76, 76, 78, 80, 91, 91, 91, 91, 91, 91, 91, 91, ...
                 ;{63, 63, 63, 63, 63, 63, 63, 63, 63, 63, 63, 64, 65, 67, 70, 70, 71, 73, 76, 76, 78, 80, 91, 91, 91, 91, 91, 91, 91, 91, ...
                 ;{63, 63, 63, 63, 63, 63, 63, 63, 63, 63, 63, 64, 65, 67, 70, 70, 71, 73, 76, 76, 78, 80, 91, 91, 91, 91, 91, 91, 91, 91, ...
                 ;{63, 63, 63, 63, 63, 63, 63, 63, 63, 63, 63, 64, 65, 67, 70, 70, 71, 73, 76, 76, 78, 80, 91, 91, 91, 91, 91, 91, 91, 91, ...
                 ;{63, 63, 63, 63, 63, 63, 63, 63, 63, 63, 63, 64, 65, 67, 70, 70, 71, 73, 76, 76, 78, 80, 91, 91, 91, 91, 91, 91, 91, 91, ...
                 ;{63, 63, 63, 63, 63, 63, 63, 63, 63, 63, 63, 64, 65, 67, 70, 70, 71, 73, 76, 76, 78, 80, 91, 91, 91, 91, 91, 91, 91, 91, ...
                 ;{63, 63, 63, 63, 63, 63, 63, 63, 63, 63, 63, 64, 65, 67, 70, 70, 71, 73, 76, 76, 78, 80, 91, 91, 91, 91, 91, 91, 91, 91, ...
                 ;{63, 63, 63, 63, 63, 63, 63, 63, 63, 63, 63, 64, 65, 67, 70, 70, 71, 73, 76, 76, 78, 80, 91, 91, 91, 91, 91, 91, 91, 91, ...
                 ;{63, 63, 63, 63, 63, 63, 63, 63, 63, 63, 63, 64, 65, 67, 70, 70, 71, 73, 76, 76, 78, 80, 91, 91, 91, 91, 91, 91, 91, 91, ...
                 ;{63, 63, 63, 63, 63, 63, 63, 63, 63, 63, 63, 64, 65, 67, 70, 70, 71, 73, 76, 76, 78, 80, 91, 91, 91, 91, 91, 91, 91, 91, ...
                 ;{63, 63, 63, 63, 63, 63, 63, 63, 63, 63, 63, 64, 65, 67, 70, 70, 71, 73, 76, 76, 78, 80, 91, 91, 91, 91, 91, 91, 91, 91, ...
                 ;{63, 63, 63, 63, 63, 63, 63, 63, 63, 63, 63, 64, 65, 67, 70, 70, 71, 73, 76, 76, 78, 80, 91, 91, 91, 91, 91, 91, 91, 91, ...
                 ;{63, 63, 63, 63, 63, 63, 63, 63, 63, 63, 63, 64, 65, 67, 70, 70, 71, 73, 76, 76, 78, 80, 91, 91, 91, 91, 91, 91, 91, 91, ...
                 ;{63, 63, 63, 63, 63, 63, 63, 63, 63, 63, 63, 64, 65, 67, 70, 70, 71, 73, 76, 76, 78, 80, 91, 91, 91, 91, 91, 91, 91, 91, ...
                 ;{63, 63, 63, 63, 63, 63, 63, 63, 63, 63, 63, 64, 65, 67, 70, 70, 71, 73, 76, 76, 78, 80, 91, 91, 91, 91, 91, 91, 91, 91, ...
                 ;{63, 63, 63, 63, 63, 63, 63, 63, 63, 63, 63, 64, 65, 67, 70, 70, 71, 73, 76, 76, 78, 80, 91, 91, 91, 91, 91, 91, 91, 91, ...
                 ;{63, 63, 63, 63, 63, 63, 63, 63, 63, 63, 63, 64, 65, 67, 70, 70, 71, 73, 76, 76, 78, 80, 91, 91, 91, 91, 91, 91, 91, 91, ...
                 ;{63, 63, 63, 63, 63, 63, 63, 63, 63, 63, 63, 64, 65, 67, 70, 70, 71, 73, 76, 76, 78, 80, 91, 91, 91, 91, 91, 91, 91, 91, ...
                 ;{63, 63, 63, 63, 63, 63, 63, 63, 63, 63, 63, 64, 65, 67, 70, 70, 71, 73, 76, 76, 78, 80, 91, 91, 91, 91, 91, 91, 91, 91, ...
                 ;{63, 63, 63, 63, 63, 63, 63, 63, 63, 63, 63, 64, 65, 67, 70, 70, 71, 73, 76, 76, 78, 80, 91, 91, 91, 91, 91, 91, 91, 91, ...
                 ;{63, 63, 63, 63, 63, 63, 63, 63, 63, 63, 63, 64, 65, 67, 70, 70, 71, 73, 76, 76, 78, 80, 91, 91, 91, 91, 91, 91, 91, 91, ...
                 ;{63, 63, 63, 63, 63, 63, 63, 63, 63, 63, 63, 64, 65, 67, 70, 70, 71, 73, 76, 76, 78, 80, 91, 91, 91, 91, 91, 91, 91, 91, ...
                 ;{63, 63, 63, 63, 63, 63, 63, 63, 63, 63, 63, 64, 65, 67, 70, 70, 71, 73, 76, 76, 78, 80, 91, 91, 91, 91, 91, 91, 91, 91, ...
                 ;{63, 63, 63, 63, 63, 63, 63, 63, 63, 63, 63, 64, 65, 67, 70, 70, 71, 73, 76, 76, 78, 80, 91, 91, 91, 91, 91, 91, 91, 91, ...
                 ;{63, 63, 63, 63, 63, 63, 63, 63, 63, 63, 63, 64, 65, 67, 70, 70, 71, 73, 76, 76, 78, 80, 91, 91, 91, 91, 91, 91, 91, 91, ...
                 ;{63, 63, 63, 63, 63, 63, 63, 63, 63, 63, 63, 64, 65, 67, 70, 70, 71, 73, 76, 76, 78, 80, 91, 91, 91, 91, 91, 91, 91, 91, ...
                 ;{63, 63, 63, 63, 63, 63, 63, 63, 63, 63, 63, 64, 65, 67, 70, 70, 71, 73, 76, 76, 78, 80, 91, 91, 91, 91, 91, 91, 91, 91, ...
                 ;{63, 63, 63, 63, 63, 63, 63, 63, 63, 63, 63, 64, 65, 67, 70, 70, 71, 73, 76, 76, 78, 80, 91, 91, 91, 91, 91, 91, 91, 91, ...
                 ;};
                 ;
                 ;// Declare your global variables here
                 ;#define HX711_DOUT    PIND.3
                 ;#define HX711_SCK     PORTD.2
                 ;#define HX_COMPLEMENT 0x800000
                 ;#define HX_REF        0.360598//360.91549
                 ;
                 ;#define HX711_DOUT1    PIND.5
                 ;#define HX711_SCK1     PORTD.4
                 ;#define HX_REF1        0.360598//9.33
                 ;
                 ;#define HX711_DOUT2    PINB.1
                 ;#define HX711_SCK2     PORTB.0
                 ;#define HX_REF2        0.360598//9.33
                 ;
                 ;
                 ;void sort_array(float a[], int size);
                 ;unsigned long HX711_Read(void);
                 ;void get_scale(void);
                 ;void get_offset(void);
                 ;unsigned long HX711_Read1(void);
                 ;//void get_scale1(void);
                 ;void get_offset1(void);
                 ;unsigned long HX711_Read2(void);
                 ;//void get_scale2(void);
                 ;void get_offset2(void);
                 ;
                 ;long Weight_Shiwu = 0,Weight_Maopi =0,Weight_Shiwu1 = 0,Weight_Maopi1 =0,Weight_Shiwu2 = 0,Weight_Maopi2 =0;
                 ;long HX711_Buffer = 0,HX711_Buffer1 = 0,HX711_Buffer2 = 0;
                 ;float         scale_total = 0,scale_total_prev = 0 ,scale = 0,scale1 = 0,scale2 = 0,scale_sum = 0,scale1_sum = 0,scale2_ ...
                 ;
                 ;//unsigned int timer2_counter,pw=75;//i,i2,i3,sw=0,i2;
                 ;unsigned char  buffer1[12];
                 ;unsigned char  buffer2[12];
                 ;unsigned char  buffer3[12];
                 ;unsigned char  buffer4[4];
                 ;char  buffer[32];
                 ;char  str1[8];
                 ;char  str2[8];
                 ;char  str3[8];
                 ;char  str4[8];
                 ;
                 ;
                 ;void send( unsigned char Data1[4]);//, unsigned char Data2[12], unsigned char Data3[12]);
                 ;unsigned char buffer1[12];
                 ;#define DATA_REGISTER_EMPTY (1<<UDRE)
                 ;#define RX_COMPLETE (1<<RXC)
                 ;#define FRAMING_ERROR (1<<FE)
                 ;#define PARITY_ERROR (1<<UPE)
                 ;#define DATA_OVERRUN (1<<DOR)
                 ;
                 ;// USART Receiver buffer
                 ;#define RX_BUFFER_SIZE 24
                 ;char rx_buffer[RX_BUFFER_SIZE];
                 ;
                 ;#if RX_BUFFER_SIZE <= 256
                 ;unsigned char rx_wr_index=0,rx_rd_index=0;
                 ;#else
                 ;unsigned int rx_wr_index=0,rx_rd_index=0;
                 ;#endif
                 ;
                 ;#if RX_BUFFER_SIZE < 256
                 ;unsigned char rx_counter=0;
                 ;#else
                 ;unsigned int rx_counter=0;
                 ;#endif
                 ;
                 ;// This flag is set on USART Receiver buffer overflow
                 ;bit rx_buffer_overflow;
                 ;
                 ;// USART Receiver interrupt service routine
                 ;interrupt [USART_RXC] void usart_rx_isr(void)
                 ; 0000 00BE {
                 
                 	.CSEG
                 _usart_rx_isr:
                 ; .FSTART _usart_rx_isr
0010b8 93ea      	ST   -Y,R30
0010b9 93fa      	ST   -Y,R31
0010ba b7ef      	IN   R30,SREG
0010bb 93ea      	ST   -Y,R30
                 ; 0000 00BF char status,data;
                 ; 0000 00C0 status=UCSRA;
0010bc 931a      	ST   -Y,R17
0010bd 930a      	ST   -Y,R16
                 ;	status -> R17
                 ;	data -> R16
0010be b11b      	IN   R17,11
                 ; 0000 00C1 data=UDR;
0010bf b10c      	IN   R16,12
                 ; 0000 00C2 if ((status & (FRAMING_ERROR | PARITY_ERROR | DATA_OVERRUN))==0)
0010c0 2fe1      	MOV  R30,R17
0010c1 71ec      	ANDI R30,LOW(0x1C)
0010c2 f489      	BRNE _0x3
                 ; 0000 00C3    {
                 ; 0000 00C4    rx_buffer[rx_wr_index++]=data;
0010c3 2de5      	MOV  R30,R5
0010c4 9453      	INC  R5
0010c5 e0f0      	LDI  R31,0
0010c6 5dec      	SUBI R30,LOW(-_rx_buffer)
0010c7 4ffc      	SBCI R31,HIGH(-_rx_buffer)
0010c8 8300      	ST   Z,R16
                 ; 0000 00C5 #if RX_BUFFER_SIZE == 256
                 ; 0000 00C6    // special case for receiver buffer size=256
                 ; 0000 00C7    if (++rx_counter == 0) rx_buffer_overflow=1;
                 ; 0000 00C8 #else
                 ; 0000 00C9    if (rx_wr_index == RX_BUFFER_SIZE) rx_wr_index=0;
0010c9 e1e8      	LDI  R30,LOW(24)
0010ca 15e5      	CP   R30,R5
0010cb f409      	BRNE _0x4
0010cc 2455      	CLR  R5
                 ; 0000 00CA    if (++rx_counter == RX_BUFFER_SIZE)
                 _0x4:
0010cd 9473      	INC  R7
0010ce e1e8      	LDI  R30,LOW(24)
0010cf 15e7      	CP   R30,R7
0010d0 f419      	BRNE _0x5
                 ; 0000 00CB       {
                 ; 0000 00CC       rx_counter=0;
0010d1 2477      	CLR  R7
                 ; 0000 00CD       rx_buffer_overflow=1;
0010d2 9468      	SET
0010d3 f820      	BLD  R2,0
                 ; 0000 00CE       }
                 ; 0000 00CF #endif
                 ; 0000 00D0    }
                 _0x5:
                 ; 0000 00D1 }
                 _0x3:
0010d4 9109      	LD   R16,Y+
0010d5 9119      	LD   R17,Y+
0010d6 91e9      	LD   R30,Y+
0010d7 bfef      	OUT  SREG,R30
0010d8 91f9      	LD   R31,Y+
0010d9 91e9      	LD   R30,Y+
0010da 9518      	RETI
                 ; .FEND
                 ;
                 ;#ifndef _DEBUG_TERMINAL_IO_
                 ;// Get a character from the USART Receiver buffer
                 ;#define _ALTERNATE_GETCHAR_
                 ;#pragma used+
                 ;char getchar(void)
                 ; 0000 00D8 {
                 ; 0000 00D9 char data;
                 ; 0000 00DA while (rx_counter==0);
                 ;	data -> R17
                 ; 0000 00DB data=rx_buffer[rx_rd_index++];
                 ; 0000 00DC #if RX_BUFFER_SIZE != 256
                 ; 0000 00DD if (rx_rd_index == RX_BUFFER_SIZE) rx_rd_index=0;
                 ; 0000 00DE #endif
                 ; 0000 00DF #asm("cli")
                 ; 0000 00E0 --rx_counter;
                 ; 0000 00E1 #asm("sei")
                 ; 0000 00E2 return data;
                 ; 0000 00E3 }
                 ;#pragma used-
                 ;#endif
                 ;
                 ;
                 ;// External Interrupt 2 service routine
                 ;interrupt [EXT_INT2] void ext_int2_isr(void)
                 ; 0000 00EA {
                 _ext_int2_isr:
                 ; .FSTART _ext_int2_isr
0010db 920a      	ST   -Y,R0
0010dc 921a      	ST   -Y,R1
0010dd 92fa      	ST   -Y,R15
0010de 936a      	ST   -Y,R22
0010df 937a      	ST   -Y,R23
0010e0 938a      	ST   -Y,R24
0010e1 939a      	ST   -Y,R25
0010e2 93aa      	ST   -Y,R26
0010e3 93ba      	ST   -Y,R27
0010e4 93ea      	ST   -Y,R30
0010e5 93fa      	ST   -Y,R31
0010e6 b7ef      	IN   R30,SREG
0010e7 93ea      	ST   -Y,R30
                 ; 0000 00EB // Place your code here
                 ; 0000 00EC send(buffer4);
0010e8 efa8      	LDI  R26,LOW(_buffer4)
0010e9 e0b2      	LDI  R27,HIGH(_buffer4)
0010ea d342      	RCALL _send
                 ; 0000 00ED }
0010eb 91e9      	LD   R30,Y+
0010ec bfef      	OUT  SREG,R30
0010ed 91f9      	LD   R31,Y+
0010ee 91e9      	LD   R30,Y+
0010ef 91b9      	LD   R27,Y+
0010f0 91a9      	LD   R26,Y+
0010f1 9199      	LD   R25,Y+
0010f2 9189      	LD   R24,Y+
0010f3 9179      	LD   R23,Y+
0010f4 9169      	LD   R22,Y+
0010f5 90f9      	LD   R15,Y+
0010f6 9019      	LD   R1,Y+
0010f7 9009      	LD   R0,Y+
0010f8 9518      	RETI
                 ; .FEND
                 ;
                 ;void main(void)
                 ; 0000 00F0 {
                 _main:
                 ; .FSTART _main
                 ; 0000 00F1 
                 ; 0000 00F2 //IO Pins/Ports :
                 ; 0000 00F3 PORTA=0x00;
0010f9 e0e0      	LDI  R30,LOW(0)
0010fa bbeb      	OUT  0x1B,R30
                 ; 0000 00F4 DDRA=0x00;
0010fb bbea      	OUT  0x1A,R30
                 ; 0000 00F5 
                 ; 0000 00F6 // Port B initialization
                 ; 0000 00F7 // Function: Bit7=In Bit6=In Bit5=In Bit4=In Bit3=In Bit2=In Bit1=In Bit0=Out
                 ; 0000 00F8 DDRB=(0<<DDB7) | (0<<DDB6) | (0<<DDB5) | (0<<DDB4) | (0<<DDB3) | (0<<DDB2) | (0<<DDB1) | (1<<DDB0);
0010fc e0e1      	LDI  R30,LOW(1)
0010fd bbe7      	OUT  0x17,R30
                 ; 0000 00F9 // State: Bit7=T Bit6=T Bit5=T Bit4=T Bit3=T Bit2=T Bit1=T Bit0=0
                 ; 0000 00FA PORTB=(0<<PORTB7) | (0<<PORTB6) | (0<<PORTB5) | (0<<PORTB4) | (0<<PORTB3) | (1<<PORTB2) | (0<<PORTB1) | (0<<PORTB0);
0010fe e0e4      	LDI  R30,LOW(4)
0010ff bbe8      	OUT  0x18,R30
                 ; 0000 00FB 
                 ; 0000 00FC // Port C initialization
                 ; 0000 00FD // Function: Bit7=In Bit6=In Bit5=In Bit4=In Bit3=In Bit2=In Bit1=Out Bit0=Out
                 ; 0000 00FE DDRC=(0<<DDC7) | (0<<DDC6) | (0<<DDC5) | (0<<DDC4) | (0<<DDC3) | (0<<DDC2) | (1<<DDC1) | (1<<DDC0);
001100 e0e3      	LDI  R30,LOW(3)
001101 bbe4      	OUT  0x14,R30
                 ; 0000 00FF // State: Bit7=T Bit6=T Bit5=T Bit4=T Bit3=T Bit2=T Bit1=0 Bit0=0
                 ; 0000 0100 PORTC=(0<<PORTC7) | (0<<PORTC6) | (0<<PORTC5) | (0<<PORTC4) | (0<<PORTC3) | (0<<PORTC2) | (0<<PORTC1) | (0<<PORTC0);
001102 e0e0      	LDI  R30,LOW(0)
001103 bbe5      	OUT  0x15,R30
                 ; 0000 0101 
                 ; 0000 0102 // Port D initialization
                 ; 0000 0103 // Function: Bit7=In Bit6=In Bit5=In Bit4=Out Bit3=In Bit2=Out Bit1=Out Bit0=In
                 ; 0000 0104 DDRD=(1<<DDD7) | (0<<DDD6) | (0<<DDD5) | (1<<DDD4) | (0<<DDD3) | (1<<DDD2) | (1<<DDD1) | (0<<DDD0);
001104 e9e6      	LDI  R30,LOW(150)
001105 bbe1      	OUT  0x11,R30
                 ; 0000 0105 // State: Bit7=T Bit6=T Bit5=T Bit4=0 Bit3=T Bit2=0 Bit1=0 Bit0=T
                 ; 0000 0106 PORTD=(0<<PORTD7) | (0<<PORTD6) | (0<<PORTD5) | (0<<PORTD4) | (0<<PORTD3) | (0<<PORTD2) | (0<<PORTD1) | (0<<PORTD0);
001106 e0e0      	LDI  R30,LOW(0)
001107 bbe2      	OUT  0x12,R30
                 ; 0000 0107 
                 ; 0000 0108 // USART initialization
                 ; 0000 0109 // Communication Parameters: 8 Data, 1 Stop, No Parity
                 ; 0000 010A // USART Receiver: On
                 ; 0000 010B // USART Transmitter: On
                 ; 0000 010C // USART Mode: Asynchronous
                 ; 0000 010D // USART Baud Rate: 9600
                 ; 0000 010E UCSRA=(0<<RXC) | (0<<TXC) | (0<<UDRE) | (0<<FE) | (0<<DOR) | (0<<UPE) | (0<<U2X) | (0<<MPCM);
001108 b9eb      	OUT  0xB,R30
                 ; 0000 010F UCSRB=(1<<RXCIE) | (0<<TXCIE) | (0<<UDRIE) | (1<<RXEN) | (1<<TXEN) | (0<<UCSZ2) | (0<<RXB8) | (0<<TXB8);
001109 e9e8      	LDI  R30,LOW(152)
00110a b9ea      	OUT  0xA,R30
                 ; 0000 0110 UCSRC=(1<<URSEL) | (0<<UMSEL) | (0<<UPM1) | (0<<UPM0) | (0<<USBS) | (1<<UCSZ1) | (1<<UCSZ0) | (0<<UCPOL);
00110b e8e6      	LDI  R30,LOW(134)
00110c bde0      	OUT  0x20,R30
                 ; 0000 0111 UBRRH=0x00;
00110d e0e0      	LDI  R30,LOW(0)
00110e bde0      	OUT  0x20,R30
                 ; 0000 0112 UBRRL=0x33;
00110f e3e3      	LDI  R30,LOW(51)
001110 b9e9      	OUT  0x9,R30
                 ; 0000 0113 
                 ; 0000 0114 get_offset();
001111 d29e      	RCALL _get_offset
                 ; 0000 0115 get_offset1();
001112 d2c6      	RCALL _get_offset1
                 ; 0000 0116 get_offset2();
001113 d2ee      	RCALL _get_offset2
                 ; 0000 0117 
                 ; 0000 0118 
                 ; 0000 0119 lcd_init(16);
001114 e1a0      	LDI  R26,LOW(16)
001115 940e 14fe 	CALL _lcd_init
                 ; 0000 011A lcd_putsf("Doctor naderi");
                +
001117 eba4     +LDI R26 , LOW ( 2 * _0x0 + ( 0 ) )
001118 e2b0     +LDI R27 , HIGH ( 2 * _0x0 + ( 0 ) )
                 	__POINTW2FN _0x0,0
001119 940e 14ed 	CALL _lcd_putsf
                 ; 0000 011B delay_ms(1000);
00111b eea8      	LDI  R26,LOW(1000)
00111c e0b3      	LDI  R27,HIGH(1000)
00111d 940e 1c4e 	CALL _delay_ms
                 ; 0000 011C 
                 ; 0000 011D // Timer/Counter 2 initialization
                 ; 0000 011E // Clock source: System Clock
                 ; 0000 011F // Clock value: 31.250 kHz
                 ; 0000 0120 // Mode: Fast PWM top=0xFF
                 ; 0000 0121 // OC2 output: Non-Inverted PWM
                 ; 0000 0122 // Timer Period: 8.192 ms
                 ; 0000 0123 // Output Pulse(s):
                 ; 0000 0124 // OC2 Period: 8.192 ms Width: 0 us
                 ; 0000 0125 ASSR=0<<AS2;
00111f e0e0      	LDI  R30,LOW(0)
001120 bde2      	OUT  0x22,R30
                 ; 0000 0126 TCCR2=(1<<PWM2) | (1<<COM21) | (0<<COM20) | (1<<CTC2) | (1<<CS22) | (1<<CS21) | (0<<CS20);
001121 e6ee      	LDI  R30,LOW(110)
001122 bde5      	OUT  0x25,R30
                 ; 0000 0127 TCNT2=0x00;
001123 e0e0      	LDI  R30,LOW(0)
001124 bde4      	OUT  0x24,R30
                 ; 0000 0128 OCR2=80;
001125 e5e0      	LDI  R30,LOW(80)
001126 bde3      	OUT  0x23,R30
                 ; 0000 0129 
                 ; 0000 012A // Timer(s)/Counter(s) Interrupt(s) initialization
                 ; 0000 012B TIMSK=(0<<OCIE2) | (0<<TOIE2) | (0<<TICIE1) | (0<<OCIE1A) | (0<<OCIE1B) | (0<<TOIE1) | (0<<OCIE0) | (0<<TOIE0);
001127 e0e0      	LDI  R30,LOW(0)
001128 bfe9      	OUT  0x39,R30
                 ; 0000 012C 
                 ; 0000 012D 
                 ; 0000 012E 
                 ; 0000 012F // External Interrupt(s) initialization
                 ; 0000 0130 // INT0: Off
                 ; 0000 0131 // INT1: Off
                 ; 0000 0132 // INT2: On
                 ; 0000 0133 // INT2 Mode: Falling Edge
                 ; 0000 0134 GICR|=(0<<INT1) | (0<<INT0) | (1<<INT2);
001129 b7eb      	IN   R30,0x3B
00112a 62e0      	ORI  R30,0x20
00112b bfeb      	OUT  0x3B,R30
                 ; 0000 0135 MCUCR=(0<<ISC11) | (0<<ISC10) | (0<<ISC01) | (0<<ISC00);
00112c e0e0      	LDI  R30,LOW(0)
00112d bfe5      	OUT  0x35,R30
                 ; 0000 0136 MCUCSR=(0<<ISC2);
00112e bfe4      	OUT  0x34,R30
                 ; 0000 0137 GIFR=(0<<INTF1) | (0<<INTF0) | (1<<INTF2);
00112f e2e0      	LDI  R30,LOW(32)
001130 bfea      	OUT  0x3A,R30
                 ; 0000 0138 
                 ; 0000 0139 
                 ; 0000 013A // Global enable interrupts
                 ; 0000 013B #asm("sei")
001131 9478      	sei
                 ; 0000 013C 
                 ; 0000 013D 
                 ; 0000 013E while (1)
                 _0xA:
                 ; 0000 013F       {
                 ; 0000 0140         int x,y;
                 ; 0000 0141         get_scale();
001132 9724      	SBIW R28,4
                 ;	x -> Y+2
                 ;	y -> Y+0
001133 d132      	RCALL _get_scale
                 ; 0000 0142         /*ftoa(scale,2,str1);
                 ; 0000 0143         sprintf(buffer1,"%s",str1);
                 ; 0000 0144         ftoa(scale1,2,str2);
                 ; 0000 0145         sprintf(buffer2,"%s",str2);
                 ; 0000 0146         ftoa(scale2,2,str3);
                 ; 0000 0147         sprintf(buffer3,"%s",str3);*/
                 ; 0000 0148         scale_total = scale + scale1 + scale2;// + scale1 + scale2;
001134 940e 19fa 	CALL SUBOPT_0x0
001136 91a0 028c 	LDS  R26,_scale
001138 91b0 028d 	LDS  R27,_scale+1
00113a 9180 028e 	LDS  R24,_scale+2
00113c 9190 028f 	LDS  R25,_scale+3
00113e 940e 1cfe 	CALL __ADDF12
001140 91a0 0294 	LDS  R26,_scale2
001142 91b0 0295 	LDS  R27,_scale2+1
001144 9180 0296 	LDS  R24,_scale2+2
001146 9190 0297 	LDS  R25,_scale2+3
001148 940e 1cfe 	CALL __ADDF12
00114a 93e0 0284 	STS  _scale_total,R30
00114c 93f0 0285 	STS  _scale_total+1,R31
00114e 9360 0286 	STS  _scale_total+2,R22
001150 9370 0287 	STS  _scale_total+3,R23
                 ; 0000 0149         x = scale_total ;
001152 940e 1a03 	CALL SUBOPT_0x1
001154 01de      	MOVW R26,R28
001155 9612      	ADIW R26,2
001156 940e 1c8d 	CALL __CFD1
001158 93ed      	ST   X+,R30
001159 93fc      	ST   X,R31
                 ; 0000 014A         if(x>100)x=100;
00115a 81aa      	LDD  R26,Y+2
00115b 81bb      	LDD  R27,Y+2+1
00115c 36a5      	CPI  R26,LOW(0x65)
00115d e0e0      	LDI  R30,HIGH(0x65)
00115e 07be      	CPC  R27,R30
00115f f024      	BRLT _0xD
001160 e6e4      	LDI  R30,LOW(100)
001161 e0f0      	LDI  R31,HIGH(100)
001162 83ea      	STD  Y+2,R30
001163 83fb      	STD  Y+2+1,R31
                 ; 0000 014B         if(x<0)x=0;
                 _0xD:
001164 81ab      	LDD  R26,Y+3
001165 23aa      	TST  R26
001166 f41a      	BRPL _0xE
001167 e0e0      	LDI  R30,LOW(0)
001168 83ea      	STD  Y+2,R30
001169 83eb      	STD  Y+2+1,R30
                 ; 0000 014C         y = (scale_total - scale_total_prev + 100) / 5;
                 _0xE:
00116a 91a0 0288 	LDS  R26,_scale_total_prev
00116c 91b0 0289 	LDS  R27,_scale_total_prev+1
00116e 9180 028a 	LDS  R24,_scale_total_prev+2
001170 9190 028b 	LDS  R25,_scale_total_prev+3
001172 940e 1a03 	CALL SUBOPT_0x1
001174 940e 1cf7 	CALL __SUBF12
                +
001176 e0a0     +LDI R26 , LOW ( 0x42C80000 )
001177 e0b0     +LDI R27 , HIGH ( 0x42C80000 )
001178 ec88     +LDI R24 , BYTE3 ( 0x42C80000 )
001179 e492     +LDI R25 , BYTE4 ( 0x42C80000 )
                 	__GETD2N 0x42C80000
00117a 940e 1a0c 	CALL SUBOPT_0x2
                +
00117c e0e0     +LDI R30 , LOW ( 0x40A00000 )
00117d e0f0     +LDI R31 , HIGH ( 0x40A00000 )
00117e ea60     +LDI R22 , BYTE3 ( 0x40A00000 )
00117f e470     +LDI R23 , BYTE4 ( 0x40A00000 )
                 	__GETD1N 0x40A00000
001180 940e 1d9c 	CALL __DIVF21
001182 01de      	MOVW R26,R28
001183 940e 1c8d 	CALL __CFD1
001185 93ed      	ST   X+,R30
001186 93fc      	ST   X,R31
                 ; 0000 014D         scale_total_prev = scale_total;
001187 940e 1a03 	CALL SUBOPT_0x1
001189 93e0 0288 	STS  _scale_total_prev,R30
00118b 93f0 0289 	STS  _scale_total_prev+1,R31
00118d 9360 028a 	STS  _scale_total_prev+2,R22
00118f 9370 028b 	STS  _scale_total_prev+3,R23
                 ; 0000 014E         OCR2 = (int)fuzzy[x][y]*2.55;
001191 81aa      	LDD  R26,Y+2
001192 81bb      	LDD  R27,Y+2+1
001193 e5e2      	LDI  R30,LOW(82)
001194 940e 1e31 	CALL __MULB1W2U
001196 5aec      	SUBI R30,LOW(-_fuzzy*2)
001197 4fff      	SBCI R31,HIGH(-_fuzzy*2)
001198 01df      	MOVW R26,R30
001199 81e8      	LD   R30,Y
00119a 81f9      	LDD  R31,Y+1
00119b 0fee      	LSL  R30
00119c 1fff      	ROL  R31
00119d 0fea      	ADD  R30,R26
00119e 1ffb      	ADC  R31,R27
00119f 940e 1eb2 	CALL __GETW1PF
0011a1 940e 1a11 	CALL SUBOPT_0x3
                +
0011a3 e3a3     +LDI R26 , LOW ( 0x40233333 )
0011a4 e3b3     +LDI R27 , HIGH ( 0x40233333 )
0011a5 e283     +LDI R24 , BYTE3 ( 0x40233333 )
0011a6 e490     +LDI R25 , BYTE4 ( 0x40233333 )
                 	__GETD2N 0x40233333
0011a7 940e 1d4e 	CALL __MULF12
0011a9 940e 1c8b 	CALL __CFD1U
0011ab bde3      	OUT  0x23,R30
                 ; 0000 014F         itoa(OCR2,str1);
0011ac b5e3      	IN   R30,0x23
0011ad e0f0      	LDI  R31,0
0011ae 93fa      	ST   -Y,R31
0011af 93ea      	ST   -Y,R30
0011b0 e1ac      	LDI  R26,LOW(_str1)
0011b1 e0b3      	LDI  R27,HIGH(_str1)
0011b2 940e 189c 	CALL _itoa
                 ; 0000 0150         sprintf(buffer4,"%s",str1);
0011b4 efe8      	LDI  R30,LOW(_buffer4)
0011b5 e0f2      	LDI  R31,HIGH(_buffer4)
0011b6 93fa      	ST   -Y,R31
0011b7 93ea      	ST   -Y,R30
                +
0011b8 ece2     +LDI R30 , LOW ( 2 * _0x0 + ( 14 ) )
0011b9 e2f0     +LDI R31 , HIGH ( 2 * _0x0 + ( 14 ) )
                 	__POINTW1FN _0x0,14
0011ba 93fa      	ST   -Y,R31
0011bb 93ea      	ST   -Y,R30
0011bc e1ec      	LDI  R30,LOW(_str1)
0011bd e0f3      	LDI  R31,HIGH(_str1)
0011be 2766      	CLR  R22
0011bf 2777      	CLR  R23
0011c0 940e 1ec5 	CALL __PUTPARD1
0011c2 e084      	LDI  R24,4
0011c3 940e 1868 	CALL _sprintf
0011c5 9628      	ADIW R28,8
                 ; 0000 0151 
                 ; 0000 0152         //send(buffer4);
                 ; 0000 0153         sprintf(buffer,"%4.1fg %4.1fg %4.1fg %4.1fg %i",scale,scale1,scale2,scale_total,OCR2);//sprintf(buffer," %ld ",W ...
0011c6 efec      	LDI  R30,LOW(_buffer)
0011c7 e0f2      	LDI  R31,HIGH(_buffer)
0011c8 93fa      	ST   -Y,R31
0011c9 93ea      	ST   -Y,R30
                +
0011ca ece5     +LDI R30 , LOW ( 2 * _0x0 + ( 17 ) )
0011cb e2f0     +LDI R31 , HIGH ( 2 * _0x0 + ( 17 ) )
                 	__POINTW1FN _0x0,17
0011cc 93fa      	ST   -Y,R31
0011cd 93ea      	ST   -Y,R30
0011ce 91e0 028c 	LDS  R30,_scale
0011d0 91f0 028d 	LDS  R31,_scale+1
0011d2 9160 028e 	LDS  R22,_scale+2
0011d4 9170 028f 	LDS  R23,_scale+3
0011d6 940e 1ec5 	CALL __PUTPARD1
0011d8 940e 19fa 	CALL SUBOPT_0x0
0011da 940e 1ec5 	CALL __PUTPARD1
0011dc 91e0 0294 	LDS  R30,_scale2
0011de 91f0 0295 	LDS  R31,_scale2+1
0011e0 9160 0296 	LDS  R22,_scale2+2
0011e2 9170 0297 	LDS  R23,_scale2+3
0011e4 940e 1ec5 	CALL __PUTPARD1
0011e6 940e 1a03 	CALL SUBOPT_0x1
0011e8 940e 1ec5 	CALL __PUTPARD1
0011ea b5e3      	IN   R30,0x23
0011eb 27ff      	CLR  R31
0011ec 2766      	CLR  R22
0011ed 2777      	CLR  R23
0011ee 940e 1ec5 	CALL __PUTPARD1
0011f0 e184      	LDI  R24,20
0011f1 940e 1868 	CALL _sprintf
0011f3 9668      	ADIW R28,24
                 ; 0000 0154         lcd_clear();
0011f4 940e 14c2 	CALL _lcd_clear
                 ; 0000 0155         lcd_gotoxy(0,0);
0011f6 e0e0      	LDI  R30,LOW(0)
0011f7 93ea      	ST   -Y,R30
0011f8 e0a0      	LDI  R26,LOW(0)
0011f9 940e 14b5 	CALL _lcd_gotoxy
                 ; 0000 0156         lcd_puts(buffer);
0011fb efac      	LDI  R26,LOW(_buffer)
0011fc e0b2      	LDI  R27,HIGH(_buffer)
0011fd 940e 14e3 	CALL _lcd_puts
                 ; 0000 0157         delay_ms(10);
0011ff e0aa      	LDI  R26,LOW(10)
001200 e0b0      	LDI  R27,0
001201 940e 1c4e 	CALL _delay_ms
                 ; 0000 0158       }
001203 9624      	ADIW R28,4
001204 cf2d      	RJMP _0xA
                 ; 0000 0159 }
                 _0xF:
001205 cfff      	RJMP _0xF
                 ; .FEND
                 ;
                 ;//Read from HX711 Modules :
                 ;unsigned long HX711_Read(void)
                 ; 0000 015D {
                 _HX711_Read:
                 ; .FSTART _HX711_Read
                 ; 0000 015E     unsigned long count;
                 ; 0000 015F     unsigned char i;
                 ; 0000 0160 
                 ; 0000 0161       HX711_DOUT=1;
001206 9724      	SBIW R28,4
001207 931a      	ST   -Y,R17
                 ;	count -> Y+1
                 ;	i -> R17
001208 9a83      	SBI  0x10,3
                 ; 0000 0162       HX711_SCK=0;
001209 9892      	CBI  0x12,2
                 ; 0000 0163       count=0;
00120a 940e 1a16 	CALL SUBOPT_0x4
                 ; 0000 0164       while(HX711_DOUT);
                 _0x14:
00120c 9983      	SBIC 0x10,3
00120d cffe      	RJMP _0x14
                 ; 0000 0165       for(i=0;i<24;i++)  //gain --> 128
00120e e010      	LDI  R17,LOW(0)
                 _0x18:
00120f 3118      	CPI  R17,24
001210 f460      	BRSH _0x19
                 ; 0000 0166         {
                 ; 0000 0167             HX711_SCK=1;
001211 9a92      	SBI  0x12,2
                 ; 0000 0168             count=count<<1;
001212 940e 1a1c 	CALL SUBOPT_0x5
001214 940e 1a21 	CALL SUBOPT_0x6
                 ; 0000 0169             HX711_SCK=0;
001216 9892      	CBI  0x12,2
                 ; 0000 016A             if(HX711_DOUT)
001217 9b83      	SBIS 0x10,3
001218 c002      	RJMP _0x1E
                 ; 0000 016B                 count++;
001219 940e 1a28 	CALL SUBOPT_0x7
                 ; 0000 016C         }
                 _0x1E:
00121b 5f1f      	SUBI R17,-1
00121c cff2      	RJMP _0x18
                 _0x19:
                 ; 0000 016D        HX711_SCK=1;
00121d 9a92      	SBI  0x12,2
                 ; 0000 016E       count=count ^ HX_COMPLEMENT;//2,s Complement
00121e 940e 1a32 	CALL SUBOPT_0x8
                 ; 0000 016F       HX711_SCK=0;
001220 9892      	CBI  0x12,2
                 ; 0000 0170       return(count);
001221 940e 1a1c 	CALL SUBOPT_0x5
001223 8118      	LDD  R17,Y+0
001224 940c 1578 	JMP  _0x20C0006
                 ; 0000 0171 }
                 ; .FEND
                 ;unsigned long HX711_Read1(void)
                 ; 0000 0173 {
                 _HX711_Read1:
                 ; .FSTART _HX711_Read1
                 ; 0000 0174     unsigned long count;
                 ; 0000 0175     unsigned char i;
                 ; 0000 0176 
                 ; 0000 0177       HX711_DOUT1=1;
001226 9724      	SBIW R28,4
001227 931a      	ST   -Y,R17
                 ;	count -> Y+1
                 ;	i -> R17
001228 9a85      	SBI  0x10,5
                 ; 0000 0178       HX711_SCK1=0;
001229 9894      	CBI  0x12,4
                 ; 0000 0179       count=0;
00122a 940e 1a16 	CALL SUBOPT_0x4
                 ; 0000 017A       while(HX711_DOUT1);
                 _0x27:
00122c 9985      	SBIC 0x10,5
00122d cffe      	RJMP _0x27
                 ; 0000 017B       for(i=0;i<24;i++)  //gain --> 128
00122e e010      	LDI  R17,LOW(0)
                 _0x2B:
00122f 3118      	CPI  R17,24
001230 f460      	BRSH _0x2C
                 ; 0000 017C         {
                 ; 0000 017D             HX711_SCK1=1;
001231 9a94      	SBI  0x12,4
                 ; 0000 017E             count=count<<1;
001232 940e 1a1c 	CALL SUBOPT_0x5
001234 940e 1a21 	CALL SUBOPT_0x6
                 ; 0000 017F             HX711_SCK1=0;
001236 9894      	CBI  0x12,4
                 ; 0000 0180             if(HX711_DOUT1)
001237 9b85      	SBIS 0x10,5
001238 c002      	RJMP _0x31
                 ; 0000 0181                 count++;
001239 940e 1a28 	CALL SUBOPT_0x7
                 ; 0000 0182         }
                 _0x31:
00123b 5f1f      	SUBI R17,-1
00123c cff2      	RJMP _0x2B
                 _0x2C:
                 ; 0000 0183        HX711_SCK1=1;
00123d 9a94      	SBI  0x12,4
                 ; 0000 0184       count=count ^ HX_COMPLEMENT;//2,s Complement
00123e 940e 1a32 	CALL SUBOPT_0x8
                 ; 0000 0185       HX711_SCK1=0;
001240 9894      	CBI  0x12,4
                 ; 0000 0186       return(count);
001241 940e 1a1c 	CALL SUBOPT_0x5
001243 8118      	LDD  R17,Y+0
001244 940c 1578 	JMP  _0x20C0006
                 ; 0000 0187 }
                 ; .FEND
                 ;unsigned long HX711_Read2(void)
                 ; 0000 0189 {
                 _HX711_Read2:
                 ; .FSTART _HX711_Read2
                 ; 0000 018A     unsigned long count;
                 ; 0000 018B     unsigned char i;
                 ; 0000 018C 
                 ; 0000 018D       HX711_DOUT2=1;
001246 9724      	SBIW R28,4
001247 931a      	ST   -Y,R17
                 ;	count -> Y+1
                 ;	i -> R17
001248 9ab1      	SBI  0x16,1
                 ; 0000 018E       HX711_SCK2=0;
001249 98c0      	CBI  0x18,0
                 ; 0000 018F       count=0;
00124a 940e 1a16 	CALL SUBOPT_0x4
                 ; 0000 0190       while(HX711_DOUT2);
                 _0x3A:
00124c 99b1      	SBIC 0x16,1
00124d cffe      	RJMP _0x3A
                 ; 0000 0191       for(i=0;i<24;i++)  //gain --> 128
00124e e010      	LDI  R17,LOW(0)
                 _0x3E:
00124f 3118      	CPI  R17,24
001250 f460      	BRSH _0x3F
                 ; 0000 0192         {
                 ; 0000 0193             HX711_SCK2=1;
001251 9ac0      	SBI  0x18,0
                 ; 0000 0194             count=count<<1;
001252 940e 1a1c 	CALL SUBOPT_0x5
001254 940e 1a21 	CALL SUBOPT_0x6
                 ; 0000 0195             HX711_SCK2=0;
001256 98c0      	CBI  0x18,0
                 ; 0000 0196             if(HX711_DOUT2)
001257 9bb1      	SBIS 0x16,1
001258 c002      	RJMP _0x44
                 ; 0000 0197                 count++;
001259 940e 1a28 	CALL SUBOPT_0x7
                 ; 0000 0198         }
                 _0x44:
00125b 5f1f      	SUBI R17,-1
00125c cff2      	RJMP _0x3E
                 _0x3F:
                 ; 0000 0199        HX711_SCK2=1;
00125d 9ac0      	SBI  0x18,0
                 ; 0000 019A       count=count ^ HX_COMPLEMENT;//2,s Complement
00125e 940e 1a32 	CALL SUBOPT_0x8
                 ; 0000 019B       HX711_SCK2=0;
001260 98c0      	CBI  0x18,0
                 ; 0000 019C       return(count);
001261 940e 1a1c 	CALL SUBOPT_0x5
001263 8118      	LDD  R17,Y+0
001264 940c 1578 	JMP  _0x20C0006
                 ; 0000 019D }
                 ; .FEND
                 ;
                 ;void get_scale(void)
                 ; 0000 01A0 {
                 _get_scale:
                 ; .FSTART _get_scale
                 ; 0000 01A1     unsigned int i;
                 ; 0000 01A2     unsigned int j;
                 ; 0000 01A3     scale_sum = 0;
001266 940e 1ee2 	CALL __SAVELOCR4
                 ;	i -> R16,R17
                 ;	j -> R18,R19
001268 e0e0      	LDI  R30,LOW(0)
001269 93e0 0298 	STS  _scale_sum,R30
00126b 93e0 0299 	STS  _scale_sum+1,R30
00126d 93e0 029a 	STS  _scale_sum+2,R30
00126f 93e0 029b 	STS  _scale_sum+3,R30
                 ; 0000 01A4     scale1_sum = 0;
001271 93e0 029c 	STS  _scale1_sum,R30
001273 93e0 029d 	STS  _scale1_sum+1,R30
001275 93e0 029e 	STS  _scale1_sum+2,R30
001277 93e0 029f 	STS  _scale1_sum+3,R30
                 ; 0000 01A5     scale2_sum = 0;
001279 93e0 02a0 	STS  _scale2_sum,R30
00127b 93e0 02a1 	STS  _scale2_sum+1,R30
00127d 93e0 02a2 	STS  _scale2_sum+2,R30
00127f 93e0 02a3 	STS  _scale2_sum+3,R30
                 ; 0000 01A6 
                 ; 0000 01A7     for(j=0; j<2 ;j++){
                +
001281 e020     +LDI R18 , LOW ( 0 )
001282 e030     +LDI R19 , HIGH ( 0 )
                 	__GETWRN 18,19,0
                 _0x4A:
                +
001283 3022     +CPI R18 , LOW ( 2 )
001284 e0e0     +LDI R30 , HIGH ( 2 )
001285 073e     +CPC R19 , R30
                 	__CPWRN 18,19,2
001286 f008      	BRLO PC+2
001287 c100      	RJMP _0x4B
                 ; 0000 01A8     for(i=0 ; i<7 ;i++){
                +
001288 e000     +LDI R16 , LOW ( 0 )
001289 e010     +LDI R17 , HIGH ( 0 )
                 	__GETWRN 16,17,0
                 _0x4D:
                +
00128a 3007     +CPI R16 , LOW ( 7 )
00128b e0e0     +LDI R30 , HIGH ( 7 )
00128c 071e     +CPC R17 , R30
                 	__CPWRN 16,17,7
00128d f008      	BRLO PC+2
00128e c0ae      	RJMP _0x4E
                 ; 0000 01A9 
                 ; 0000 01AA 
                 ; 0000 01AB     HX711_Buffer = 0;
00128f 940e 1a41 	CALL SUBOPT_0x9
                 ; 0000 01AC     HX711_Buffer = HX711_Read();
001291 df74      	RCALL _HX711_Read
001292 940e 1a4b 	CALL SUBOPT_0xA
                 ; 0000 01AD     HX711_Buffer = HX711_Buffer/100;
001294 940e 1a54 	CALL SUBOPT_0xB
001296 940e 1a5d 	CALL SUBOPT_0xC
001298 940e 1a4b 	CALL SUBOPT_0xA
                 ; 0000 01AE         Weight_Shiwu = HX711_Buffer;
00129a 91e0 0278 	LDS  R30,_HX711_Buffer
00129c 91f0 0279 	LDS  R31,_HX711_Buffer+1
00129e 9160 027a 	LDS  R22,_HX711_Buffer+2
0012a0 9170 027b 	LDS  R23,_HX711_Buffer+3
0012a2 940e 1a64 	CALL SUBOPT_0xD
                 ; 0000 01AF         Weight_Shiwu = Weight_Shiwu - Weight_Maopi;
0012a4 91a0 0264 	LDS  R26,_Weight_Maopi
0012a6 91b0 0265 	LDS  R27,_Weight_Maopi+1
0012a8 9180 0266 	LDS  R24,_Weight_Maopi+2
0012aa 9190 0267 	LDS  R25,_Weight_Maopi+3
0012ac 940e 1a6d 	CALL SUBOPT_0xE
0012ae 940e 1e0a 	CALL __SUBD12
0012b0 940e 1a64 	CALL SUBOPT_0xD
                 ; 0000 01B0 
                 ; 0000 01B1         Weight_Shiwu = ((float)Weight_Shiwu/HX_REF);
0012b2 940e 1a76 	CALL SUBOPT_0xF
0012b4 940e 1a7c 	CALL SUBOPT_0x10
0012b6 e6a0      	LDI  R26,LOW(_Weight_Shiwu)
0012b7 e0b2      	LDI  R27,HIGH(_Weight_Shiwu)
0012b8 940e 1a83 	CALL SUBOPT_0x11
                 ; 0000 01B2 
                 ; 0000 01B3         scale_array[i] = (float)Weight_Shiwu/30;
0012ba eaa4      	LDI  R26,LOW(_scale_array)
0012bb e0b2      	LDI  R27,HIGH(_scale_array)
0012bc 940e 1a89 	CALL SUBOPT_0x12
0012be 93ff      	PUSH R31
0012bf 93ef      	PUSH R30
0012c0 940e 1a76 	CALL SUBOPT_0xF
0012c2 940e 1a8e 	CALL SUBOPT_0x13
0012c4 91af      	POP  R26
0012c5 91bf      	POP  R27
0012c6 940e 1ead 	CALL __PUTDP1
                 ; 0000 01B4 
                 ; 0000 01B5 
                 ; 0000 01B6     HX711_Buffer1 = 0;
0012c8 940e 1a95 	CALL SUBOPT_0x14
                 ; 0000 01B7     HX711_Buffer1 = HX711_Read1();
0012ca df5b      	RCALL _HX711_Read1
0012cb 940e 1a9f 	CALL SUBOPT_0x15
                 ; 0000 01B8     HX711_Buffer1 = HX711_Buffer1/100;
0012cd 940e 1aa8 	CALL SUBOPT_0x16
0012cf 940e 1a5d 	CALL SUBOPT_0xC
0012d1 940e 1a9f 	CALL SUBOPT_0x15
                 ; 0000 01B9         Weight_Shiwu1 = HX711_Buffer1;
0012d3 91e0 027c 	LDS  R30,_HX711_Buffer1
0012d5 91f0 027d 	LDS  R31,_HX711_Buffer1+1
0012d7 9160 027e 	LDS  R22,_HX711_Buffer1+2
0012d9 9170 027f 	LDS  R23,_HX711_Buffer1+3
0012db 940e 1ab1 	CALL SUBOPT_0x17
                 ; 0000 01BA         Weight_Shiwu1 = Weight_Shiwu1 - Weight_Maopi1;
0012dd 91a0 026c 	LDS  R26,_Weight_Maopi1
0012df 91b0 026d 	LDS  R27,_Weight_Maopi1+1
0012e1 9180 026e 	LDS  R24,_Weight_Maopi1+2
0012e3 9190 026f 	LDS  R25,_Weight_Maopi1+3
0012e5 940e 1aba 	CALL SUBOPT_0x18
0012e7 940e 1e0a 	CALL __SUBD12
0012e9 940e 1ab1 	CALL SUBOPT_0x17
                 ; 0000 01BB 
                 ; 0000 01BC         Weight_Shiwu1 = ((float)Weight_Shiwu1/HX_REF);
0012eb 940e 1ac3 	CALL SUBOPT_0x19
0012ed 940e 1a7c 	CALL SUBOPT_0x10
0012ef e6a8      	LDI  R26,LOW(_Weight_Shiwu1)
0012f0 e0b2      	LDI  R27,HIGH(_Weight_Shiwu1)
0012f1 940e 1a83 	CALL SUBOPT_0x11
                 ; 0000 01BD 
                 ; 0000 01BE         scale1_array[i] = (float)Weight_Shiwu1/30;
0012f3 eca0      	LDI  R26,LOW(_scale1_array)
0012f4 e0b2      	LDI  R27,HIGH(_scale1_array)
0012f5 940e 1a89 	CALL SUBOPT_0x12
0012f7 93ff      	PUSH R31
0012f8 93ef      	PUSH R30
0012f9 940e 1ac3 	CALL SUBOPT_0x19
0012fb 940e 1a8e 	CALL SUBOPT_0x13
0012fd 91af      	POP  R26
0012fe 91bf      	POP  R27
0012ff 940e 1ead 	CALL __PUTDP1
                 ; 0000 01BF 
                 ; 0000 01C0 
                 ; 0000 01C1     HX711_Buffer2 = 0;
001301 940e 1ac9 	CALL SUBOPT_0x1A
                 ; 0000 01C2     HX711_Buffer2 = HX711_Read2();
001303 df42      	RCALL _HX711_Read2
001304 940e 1ad3 	CALL SUBOPT_0x1B
                 ; 0000 01C3     HX711_Buffer2 = HX711_Buffer2/100;
001306 940e 1adc 	CALL SUBOPT_0x1C
001308 940e 1a5d 	CALL SUBOPT_0xC
00130a 940e 1ad3 	CALL SUBOPT_0x1B
                 ; 0000 01C4         Weight_Shiwu2 = HX711_Buffer2;
00130c 91e0 0280 	LDS  R30,_HX711_Buffer2
00130e 91f0 0281 	LDS  R31,_HX711_Buffer2+1
001310 9160 0282 	LDS  R22,_HX711_Buffer2+2
001312 9170 0283 	LDS  R23,_HX711_Buffer2+3
001314 940e 1ae5 	CALL SUBOPT_0x1D
                 ; 0000 01C5         Weight_Shiwu2 = Weight_Shiwu2 - Weight_Maopi2;
001316 91a0 0274 	LDS  R26,_Weight_Maopi2
001318 91b0 0275 	LDS  R27,_Weight_Maopi2+1
00131a 9180 0276 	LDS  R24,_Weight_Maopi2+2
00131c 9190 0277 	LDS  R25,_Weight_Maopi2+3
00131e 940e 1aee 	CALL SUBOPT_0x1E
001320 940e 1e0a 	CALL __SUBD12
001322 940e 1ae5 	CALL SUBOPT_0x1D
                 ; 0000 01C6 
                 ; 0000 01C7         Weight_Shiwu2 = ((float)Weight_Shiwu2/HX_REF);
001324 940e 1af7 	CALL SUBOPT_0x1F
001326 940e 1a7c 	CALL SUBOPT_0x10
001328 e7a0      	LDI  R26,LOW(_Weight_Shiwu2)
001329 e0b2      	LDI  R27,HIGH(_Weight_Shiwu2)
00132a 940e 1a83 	CALL SUBOPT_0x11
                 ; 0000 01C8 
                 ; 0000 01C9         scale2_array[i] = (float)Weight_Shiwu2/30;
00132c edac      	LDI  R26,LOW(_scale2_array)
00132d e0b2      	LDI  R27,HIGH(_scale2_array)
00132e 940e 1a89 	CALL SUBOPT_0x12
001330 93ff      	PUSH R31
001331 93ef      	PUSH R30
001332 940e 1af7 	CALL SUBOPT_0x1F
001334 940e 1a8e 	CALL SUBOPT_0x13
001336 91af      	POP  R26
001337 91bf      	POP  R27
001338 940e 1ead 	CALL __PUTDP1
                 ; 0000 01CA     }
                +
00133a 5f0f     +SUBI R16 , LOW ( - 1 )
00133b 4f1f     +SBCI R17 , HIGH ( - 1 )
                 	__ADDWRN 16,17,1
00133c cf4d      	RJMP _0x4D
                 _0x4E:
                 ; 0000 01CB     sort_array(scale_array,7);
00133d eae4      	LDI  R30,LOW(_scale_array)
00133e e0f2      	LDI  R31,HIGH(_scale_array)
00133f 940e 1afd 	CALL SUBOPT_0x20
                 ; 0000 01CC     scale_sum += scale_array[3];
                +
001341 91e0 02b0+LDS R30 , _scale_array + ( 12 )
001343 91f0 02b1+LDS R31 , _scale_array + ( 12 ) + 1
001345 9160 02b2+LDS R22 , _scale_array + ( 12 ) + 2
001347 9170 02b3+LDS R23 , _scale_array + ( 12 ) + 3
                 	__GETD1MN _scale_array,12
001349 940e 1b03 	CALL SUBOPT_0x21
00134b 940e 1cfe 	CALL __ADDF12
00134d 93e0 0298 	STS  _scale_sum,R30
00134f 93f0 0299 	STS  _scale_sum+1,R31
001351 9360 029a 	STS  _scale_sum+2,R22
001353 9370 029b 	STS  _scale_sum+3,R23
                 ; 0000 01CD     sort_array(scale1_array,7);
001355 ece0      	LDI  R30,LOW(_scale1_array)
001356 e0f2      	LDI  R31,HIGH(_scale1_array)
001357 940e 1afd 	CALL SUBOPT_0x20
                 ; 0000 01CE     scale1_sum += scale1_array[3];
                +
001359 91e0 02cc+LDS R30 , _scale1_array + ( 12 )
00135b 91f0 02cd+LDS R31 , _scale1_array + ( 12 ) + 1
00135d 9160 02ce+LDS R22 , _scale1_array + ( 12 ) + 2
00135f 9170 02cf+LDS R23 , _scale1_array + ( 12 ) + 3
                 	__GETD1MN _scale1_array,12
001361 940e 1b0c 	CALL SUBOPT_0x22
001363 940e 1cfe 	CALL __ADDF12
001365 93e0 029c 	STS  _scale1_sum,R30
001367 93f0 029d 	STS  _scale1_sum+1,R31
001369 9360 029e 	STS  _scale1_sum+2,R22
00136b 9370 029f 	STS  _scale1_sum+3,R23
                 ; 0000 01CF     sort_array(scale2_array,7);
00136d edec      	LDI  R30,LOW(_scale2_array)
00136e e0f2      	LDI  R31,HIGH(_scale2_array)
00136f 940e 1afd 	CALL SUBOPT_0x20
                 ; 0000 01D0     scale2_sum += scale2_array[3];
                +
001371 91e0 02e8+LDS R30 , _scale2_array + ( 12 )
001373 91f0 02e9+LDS R31 , _scale2_array + ( 12 ) + 1
001375 9160 02ea+LDS R22 , _scale2_array + ( 12 ) + 2
001377 9170 02eb+LDS R23 , _scale2_array + ( 12 ) + 3
                 	__GETD1MN _scale2_array,12
001379 940e 1b15 	CALL SUBOPT_0x23
00137b 940e 1cfe 	CALL __ADDF12
00137d 93e0 02a0 	STS  _scale2_sum,R30
00137f 93f0 02a1 	STS  _scale2_sum+1,R31
001381 9360 02a2 	STS  _scale2_sum+2,R22
001383 9370 02a3 	STS  _scale2_sum+3,R23
                 ; 0000 01D1     }
                +
001385 5f2f     +SUBI R18 , LOW ( - 1 )
001386 4f3f     +SBCI R19 , HIGH ( - 1 )
                 	__ADDWRN 18,19,1
001387 cefb      	RJMP _0x4A
                 _0x4B:
                 ; 0000 01D2     scale = scale_sum/2;
001388 940e 1b03 	CALL SUBOPT_0x21
00138a 940e 1b1e 	CALL SUBOPT_0x24
00138c 93e0 028c 	STS  _scale,R30
00138e 93f0 028d 	STS  _scale+1,R31
001390 9360 028e 	STS  _scale+2,R22
001392 9370 028f 	STS  _scale+3,R23
                 ; 0000 01D3     scale1 = scale1_sum/2;
001394 940e 1b0c 	CALL SUBOPT_0x22
001396 940e 1b1e 	CALL SUBOPT_0x24
001398 93e0 0290 	STS  _scale1,R30
00139a 93f0 0291 	STS  _scale1+1,R31
00139c 9360 0292 	STS  _scale1+2,R22
00139e 9370 0293 	STS  _scale1+3,R23
                 ; 0000 01D4     scale2 = scale2_sum/2;
0013a0 940e 1b15 	CALL SUBOPT_0x23
0013a2 940e 1b1e 	CALL SUBOPT_0x24
0013a4 93e0 0294 	STS  _scale2,R30
0013a6 93f0 0295 	STS  _scale2+1,R31
0013a8 9360 0296 	STS  _scale2+2,R22
0013aa 9370 0297 	STS  _scale2+3,R23
                 ; 0000 01D5 }
0013ac 940e 1ee9 	CALL __LOADLOCR4
0013ae 9624      	ADIW R28,4
0013af 9508      	RET
                 ; .FEND
                 ;
                 ;//get offsets :
                 ;
                 ;void get_offset(void)
                 ; 0000 01DA {
                 _get_offset:
                 ; .FSTART _get_offset
                 ; 0000 01DB     int i=0;
                 ; 0000 01DC 
                 ; 0000 01DD     HX711_Buffer = 0;
0013b0 940e 1b25 	CALL SUBOPT_0x25
                 ;	i -> R16,R17
0013b2 940e 1a41 	CALL SUBOPT_0x9
                 ; 0000 01DE 
                 ; 0000 01DF    	for( i = 0 ; i < 10 ; i++)
                +
0013b4 e000     +LDI R16 , LOW ( 0 )
0013b5 e010     +LDI R17 , HIGH ( 0 )
                 	__GETWRN 16,17,0
                 _0x50:
                +
0013b6 300a     +CPI R16 , LOW ( 10 )
0013b7 e0e0     +LDI R30 , HIGH ( 10 )
0013b8 071e     +CPC R17 , R30
                 	__CPWRN 16,17,10
0013b9 f464      	BRGE _0x51
                 ; 0000 01E0 	{
                 ; 0000 01E1 		HX711_Buffer = HX711_Buffer + HX711_Read();
0013ba de4b      	RCALL _HX711_Read
0013bb 940e 1a54 	CALL SUBOPT_0xB
0013bd 940e 1e05 	CALL __ADDD12
0013bf 940e 1a4b 	CALL SUBOPT_0xA
                 ; 0000 01E2         delay_us(500);
0013c1 940e 1b2a 	CALL SUBOPT_0x26
                 ; 0000 01E3 	}
                +
0013c3 5f0f     +SUBI R16 , LOW ( - 1 )
0013c4 4f1f     +SBCI R17 , HIGH ( - 1 )
                 	__ADDWRN 16,17,1
0013c5 cff0      	RJMP _0x50
                 _0x51:
                 ; 0000 01E4     HX711_Buffer = HX711_Buffer /10;
0013c6 940e 1a54 	CALL SUBOPT_0xB
0013c8 940e 1b2f 	CALL SUBOPT_0x27
0013ca 940e 1a4b 	CALL SUBOPT_0xA
                 ; 0000 01E5     Weight_Maopi = HX711_Buffer/100;
0013cc 940e 1a54 	CALL SUBOPT_0xB
0013ce 940e 1a5d 	CALL SUBOPT_0xC
0013d0 93e0 0264 	STS  _Weight_Maopi,R30
0013d2 93f0 0265 	STS  _Weight_Maopi+1,R31
0013d4 9360 0266 	STS  _Weight_Maopi+2,R22
0013d6 9370 0267 	STS  _Weight_Maopi+3,R23
                 ; 0000 01E6 }
0013d8 c051      	RJMP _0x20C000A
                 ; .FEND
                 ;void get_offset1(void)
                 ; 0000 01E8 {
                 _get_offset1:
                 ; .FSTART _get_offset1
                 ; 0000 01E9     int i=0;
                 ; 0000 01EA 
                 ; 0000 01EB     HX711_Buffer1 = 0;
0013d9 940e 1b25 	CALL SUBOPT_0x25
                 ;	i -> R16,R17
0013db 940e 1a95 	CALL SUBOPT_0x14
                 ; 0000 01EC 
                 ; 0000 01ED    	for( i = 0 ; i < 10 ; i++)
                +
0013dd e000     +LDI R16 , LOW ( 0 )
0013de e010     +LDI R17 , HIGH ( 0 )
                 	__GETWRN 16,17,0
                 _0x53:
                +
0013df 300a     +CPI R16 , LOW ( 10 )
0013e0 e0e0     +LDI R30 , HIGH ( 10 )
0013e1 071e     +CPC R17 , R30
                 	__CPWRN 16,17,10
0013e2 f464      	BRGE _0x54
                 ; 0000 01EE 	{
                 ; 0000 01EF 		HX711_Buffer1 = HX711_Buffer1 + HX711_Read1();
0013e3 de42      	RCALL _HX711_Read1
0013e4 940e 1aa8 	CALL SUBOPT_0x16
0013e6 940e 1e05 	CALL __ADDD12
0013e8 940e 1a9f 	CALL SUBOPT_0x15
                 ; 0000 01F0         delay_us(500);
0013ea 940e 1b2a 	CALL SUBOPT_0x26
                 ; 0000 01F1 	}
                +
0013ec 5f0f     +SUBI R16 , LOW ( - 1 )
0013ed 4f1f     +SBCI R17 , HIGH ( - 1 )
                 	__ADDWRN 16,17,1
0013ee cff0      	RJMP _0x53
                 _0x54:
                 ; 0000 01F2     HX711_Buffer1 = HX711_Buffer1 /10;
0013ef 940e 1aa8 	CALL SUBOPT_0x16
0013f1 940e 1b2f 	CALL SUBOPT_0x27
0013f3 940e 1a9f 	CALL SUBOPT_0x15
                 ; 0000 01F3     Weight_Maopi1 = HX711_Buffer1/100;
0013f5 940e 1aa8 	CALL SUBOPT_0x16
0013f7 940e 1a5d 	CALL SUBOPT_0xC
0013f9 93e0 026c 	STS  _Weight_Maopi1,R30
0013fb 93f0 026d 	STS  _Weight_Maopi1+1,R31
0013fd 9360 026e 	STS  _Weight_Maopi1+2,R22
0013ff 9370 026f 	STS  _Weight_Maopi1+3,R23
                 ; 0000 01F4 }
001401 c028      	RJMP _0x20C000A
                 ; .FEND
                 ;void get_offset2(void)
                 ; 0000 01F6 {
                 _get_offset2:
                 ; .FSTART _get_offset2
                 ; 0000 01F7     int i=0;
                 ; 0000 01F8 
                 ; 0000 01F9     HX711_Buffer2 = 0;
001402 940e 1b25 	CALL SUBOPT_0x25
                 ;	i -> R16,R17
001404 940e 1ac9 	CALL SUBOPT_0x1A
                 ; 0000 01FA 
                 ; 0000 01FB    	for( i = 0 ; i < 10 ; i++)
                +
001406 e000     +LDI R16 , LOW ( 0 )
001407 e010     +LDI R17 , HIGH ( 0 )
                 	__GETWRN 16,17,0
                 _0x56:
                +
001408 300a     +CPI R16 , LOW ( 10 )
001409 e0e0     +LDI R30 , HIGH ( 10 )
00140a 071e     +CPC R17 , R30
                 	__CPWRN 16,17,10
00140b f464      	BRGE _0x57
                 ; 0000 01FC 	{
                 ; 0000 01FD 		HX711_Buffer2 = HX711_Buffer2 + HX711_Read2();
00140c de39      	RCALL _HX711_Read2
00140d 940e 1adc 	CALL SUBOPT_0x1C
00140f 940e 1e05 	CALL __ADDD12
001411 940e 1ad3 	CALL SUBOPT_0x1B
                 ; 0000 01FE         delay_us(500);
001413 940e 1b2a 	CALL SUBOPT_0x26
                 ; 0000 01FF 	}
                +
001415 5f0f     +SUBI R16 , LOW ( - 1 )
001416 4f1f     +SBCI R17 , HIGH ( - 1 )
                 	__ADDWRN 16,17,1
001417 cff0      	RJMP _0x56
                 _0x57:
                 ; 0000 0200     HX711_Buffer2 = HX711_Buffer2 /10;
001418 940e 1adc 	CALL SUBOPT_0x1C
00141a 940e 1b2f 	CALL SUBOPT_0x27
00141c 940e 1ad3 	CALL SUBOPT_0x1B
                 ; 0000 0201     Weight_Maopi2 = HX711_Buffer2/100;
00141e 940e 1adc 	CALL SUBOPT_0x1C
001420 940e 1a5d 	CALL SUBOPT_0xC
001422 93e0 0274 	STS  _Weight_Maopi2,R30
001424 93f0 0275 	STS  _Weight_Maopi2+1,R31
001426 9360 0276 	STS  _Weight_Maopi2+2,R22
001428 9370 0277 	STS  _Weight_Maopi2+3,R23
                 ; 0000 0202 }
                 _0x20C000A:
00142a 9109      	LD   R16,Y+
00142b 9119      	LD   R17,Y+
00142c 9508      	RET
                 ; .FEND
                 ;
                 ;void send( unsigned char Data1[4])//, unsigned char Data2[12], unsigned char Data3[12])//,unsigned char Data2[12] )
                 ; 0000 0205 {
                 _send:
                 ; .FSTART _send
                 ; 0000 0206 puts(Data1);
00142d 93ba      	ST   -Y,R27
00142e 93aa      	ST   -Y,R26
                 ;	Data1 -> Y+0
00142f 81a8      	LD   R26,Y
001430 81b9      	LDD  R27,Y+1
001431 940e 1532 	CALL _puts
                 ; 0000 0207 /*
                 ; 0000 0208 putchar(',');
                 ; 0000 0209 puts(Data2);
                 ; 0000 020A putchar(',');
                 ; 0000 020B puts(Data3);*/
                 ; 0000 020C }
001433 c08c      	RJMP _0x20C0009
                 ; .FEND
                 ;
                 ;
                 ;
                 ;void sort_array(float a[], int size) {
                 ; 0000 0210 void sort_array(float a[], int size) {
                 _sort_array:
                 ; .FSTART _sort_array
                 ; 0000 0211     int i=0;
                 ; 0000 0212     int o=0;
                 ; 0000 0213     for(i=0; i<(size-1); i++) {
001434 93ba      	ST   -Y,R27
001435 93aa      	ST   -Y,R26
001436 940e 1ee2 	CALL __SAVELOCR4
                 ;	a -> Y+6
                 ;	size -> Y+4
                 ;	i -> R16,R17
                 ;	o -> R18,R19
                +
001438 e000     +LDI R16 , LOW ( 0 )
001439 e010     +LDI R17 , HIGH ( 0 )
                 	__GETWRN 16,17,0
                +
00143a e020     +LDI R18 , LOW ( 0 )
00143b e030     +LDI R19 , HIGH ( 0 )
                 	__GETWRN 18,19,0
                +
00143c e000     +LDI R16 , LOW ( 0 )
00143d e010     +LDI R17 , HIGH ( 0 )
                 	__GETWRN 16,17,0
                 _0x59:
00143e 81ec      	LDD  R30,Y+4
00143f 81fd      	LDD  R31,Y+4+1
001440 9731      	SBIW R30,1
001441 170e      	CP   R16,R30
001442 071f      	CPC  R17,R31
001443 f00c      	BRLT PC+2
001444 c04b      	RJMP _0x5A
                 ; 0000 0214         for(o=0; o<(size-(i+1)); o++) {
                +
001445 e020     +LDI R18 , LOW ( 0 )
001446 e030     +LDI R19 , HIGH ( 0 )
                 	__GETWRN 18,19,0
                 _0x5C:
001447 01f8      	MOVW R30,R16
001448 9631      	ADIW R30,1
001449 81ac      	LDD  R26,Y+4
00144a 81bd      	LDD  R27,Y+4+1
00144b 940e 1ed5 	CALL __SWAPW12
00144d 1bea      	SUB  R30,R26
00144e 0bfb      	SBC  R31,R27
00144f 172e      	CP   R18,R30
001450 073f      	CPC  R19,R31
001451 f5dc      	BRGE _0x5D
                 ; 0000 0215                 if(a[o] > a[o+1]) {
001452 01f9      	MOVW R30,R18
001453 940e 1b36 	CALL SUBOPT_0x28
001455 937f      	PUSH R23
001456 936f      	PUSH R22
001457 93ff      	PUSH R31
001458 93ef      	PUSH R30
001459 01f9      	MOVW R30,R18
00145a 9631      	ADIW R30,1
00145b 940e 1b36 	CALL SUBOPT_0x28
00145d 91af      	POP  R26
00145e 91bf      	POP  R27
00145f 918f      	POP  R24
001460 919f      	POP  R25
001461 940e 1de1 	CALL __CMPF12
001463 f009      	BREQ PC+2
001464 f408      	BRCC PC+2
001465 c024      	RJMP _0x5E
                 ; 0000 0216                     int t = a[o];
                 ; 0000 0217                     a[o] = a[o+1];
001466 9722      	SBIW R28,2
                 ;	a -> Y+8
                 ;	size -> Y+6
                 ;	t -> Y+0
001467 01f9      	MOVW R30,R18
001468 940e 1b3f 	CALL SUBOPT_0x29
00146a 940e 1ea3 	CALL __GETW1P
00146c 940e 1c8b 	CALL __CFD1U
00146e 83e8      	ST   Y,R30
00146f 83f9      	STD  Y+1,R31
001470 01f9      	MOVW R30,R18
001471 85a8      	LDD  R26,Y+8
001472 85b9      	LDD  R27,Y+8+1
001473 940e 1a89 	CALL SUBOPT_0x12
001475 010f      	MOVW R0,R30
001476 01f9      	MOVW R30,R18
001477 9631      	ADIW R30,1
001478 940e 1b3f 	CALL SUBOPT_0x29
00147a 940e 1ea7 	CALL __GETD1P
00147c 01d0      	MOVW R26,R0
00147d 940e 1ead 	CALL __PUTDP1
                 ; 0000 0218                     a[o+1] = t;
00147f 01f9      	MOVW R30,R18
001480 9631      	ADIW R30,1
001481 940e 1b3f 	CALL SUBOPT_0x29
001483 81e8      	LD   R30,Y
001484 81f9      	LDD  R31,Y+1
001485 940e 1a11 	CALL SUBOPT_0x3
001487 940e 1ead 	CALL __PUTDP1
                 ; 0000 0219                 }
001489 9622      	ADIW R28,2
                 ; 0000 021A         }
                 _0x5E:
                +
00148a 5f2f     +SUBI R18 , LOW ( - 1 )
00148b 4f3f     +SBCI R19 , HIGH ( - 1 )
                 	__ADDWRN 18,19,1
00148c cfba      	RJMP _0x5C
                 _0x5D:
                 ; 0000 021B     }
                +
00148d 5f0f     +SUBI R16 , LOW ( - 1 )
00148e 4f1f     +SBCI R17 , HIGH ( - 1 )
                 	__ADDWRN 16,17,1
00148f cfae      	RJMP _0x59
                 _0x5A:
                 ; 0000 021C }
001490 940e 1ee9 	CALL __LOADLOCR4
001492 9628      	ADIW R28,8
001493 9508      	RET
                 ; .FEND
                 	#ifndef __SLEEP_DEFINED__
                 	#endif
                 
                 	.DSEG
                 
                 	.CSEG
                 __lcd_write_nibble_G100:
                 ; .FSTART __lcd_write_nibble_G100
001494 93aa      	ST   -Y,R26
001495 b3eb      	IN   R30,0x1B
001496 70ef      	ANDI R30,LOW(0xF)
001497 2fae      	MOV  R26,R30
001498 81e8      	LD   R30,Y
001499 7fe0      	ANDI R30,LOW(0xF0)
00149a 2bea      	OR   R30,R26
00149b bbeb      	OUT  0x1B,R30
                +
00149c e08d     +LDI R24 , LOW ( 13 )
                +__DELAY_USB_LOOP :
00149d 958a     +DEC R24
00149e f7f1     +BRNE __DELAY_USB_LOOP
                 	__DELAY_USB 13
00149f 9ada      	SBI  0x1B,2
                +
0014a0 e08d     +LDI R24 , LOW ( 13 )
                +__DELAY_USB_LOOP :
0014a1 958a     +DEC R24
0014a2 f7f1     +BRNE __DELAY_USB_LOOP
                 	__DELAY_USB 13
0014a3 98da      	CBI  0x1B,2
                +
0014a4 e08d     +LDI R24 , LOW ( 13 )
                +__DELAY_USB_LOOP :
0014a5 958a     +DEC R24
0014a6 f7f1     +BRNE __DELAY_USB_LOOP
                 	__DELAY_USB 13
0014a7 940c 1530 	JMP  _0x20C0008
                 ; .FEND
                 __lcd_write_data:
                 ; .FSTART __lcd_write_data
0014a9 93aa      	ST   -Y,R26
0014aa 81a8      	LD   R26,Y
0014ab dfe8      	RCALL __lcd_write_nibble_G100
0014ac 81e8          ld    r30,y
0014ad 95e2          swap  r30
0014ae 83e8          st    y,r30
0014af 81a8      	LD   R26,Y
0014b0 dfe3      	RCALL __lcd_write_nibble_G100
                +
0014b1 e885     +LDI R24 , LOW ( 133 )
                +__DELAY_USB_LOOP :
0014b2 958a     +DEC R24
0014b3 f7f1     +BRNE __DELAY_USB_LOOP
                 	__DELAY_USB 133
0014b4 c07b      	RJMP _0x20C0008
                 ; .FEND
                 _lcd_gotoxy:
                 ; .FSTART _lcd_gotoxy
0014b5 93aa      	ST   -Y,R26
0014b6 81e8      	LD   R30,Y
0014b7 e0f0      	LDI  R31,0
0014b8 5ce4      	SUBI R30,LOW(-__base_y_G100)
0014b9 4ffc      	SBCI R31,HIGH(-__base_y_G100)
0014ba 81e0      	LD   R30,Z
0014bb 81a9      	LDD  R26,Y+1
0014bc 0fae      	ADD  R26,R30
0014bd dfeb      	RCALL __lcd_write_data
0014be 8069      	LDD  R6,Y+1
0014bf 8098      	LDD  R9,Y+0
                 _0x20C0009:
0014c0 9622      	ADIW R28,2
0014c1 9508      	RET
                 ; .FEND
                 _lcd_clear:
                 ; .FSTART _lcd_clear
0014c2 e0a2      	LDI  R26,LOW(2)
0014c3 940e 1b46 	CALL SUBOPT_0x2A
0014c5 e0ac      	LDI  R26,LOW(12)
0014c6 dfe2      	RCALL __lcd_write_data
0014c7 e0a1      	LDI  R26,LOW(1)
0014c8 940e 1b46 	CALL SUBOPT_0x2A
0014ca e0e0      	LDI  R30,LOW(0)
0014cb 2e9e      	MOV  R9,R30
0014cc 2e6e      	MOV  R6,R30
0014cd 9508      	RET
                 ; .FEND
                 _lcd_putchar:
                 ; .FSTART _lcd_putchar
0014ce 93aa      	ST   -Y,R26
0014cf 81a8      	LD   R26,Y
0014d0 30aa      	CPI  R26,LOW(0xA)
0014d1 f011      	BREQ _0x2000005
0014d2 1468      	CP   R6,R8
0014d3 f048      	BRLO _0x2000004
                 _0x2000005:
0014d4 e0e0      	LDI  R30,LOW(0)
0014d5 93ea      	ST   -Y,R30
0014d6 9493      	INC  R9
0014d7 2da9      	MOV  R26,R9
0014d8 dfdc      	RCALL _lcd_gotoxy
0014d9 81a8      	LD   R26,Y
0014da 30aa      	CPI  R26,LOW(0xA)
0014db f409      	BRNE _0x2000007
0014dc c053      	RJMP _0x20C0008
                 _0x2000007:
                 _0x2000004:
0014dd 9463      	INC  R6
0014de 9ad8      	SBI  0x1B,0
0014df 81a8      	LD   R26,Y
0014e0 dfc8      	RCALL __lcd_write_data
0014e1 98d8      	CBI  0x1B,0
0014e2 c04d      	RJMP _0x20C0008
                 ; .FEND
                 _lcd_puts:
                 ; .FSTART _lcd_puts
0014e3 93ba      	ST   -Y,R27
0014e4 93aa      	ST   -Y,R26
0014e5 931a      	ST   -Y,R17
                 _0x2000008:
0014e6 940e 1b4c 	CALL SUBOPT_0x2B
0014e8 f019      	BREQ _0x200000A
0014e9 2fa1      	MOV  R26,R17
0014ea dfe3      	RCALL _lcd_putchar
0014eb cffa      	RJMP _0x2000008
                 _0x200000A:
0014ec c050      	RJMP _0x20C0007
                 ; .FEND
                 _lcd_putsf:
                 ; .FSTART _lcd_putsf
0014ed 93ba      	ST   -Y,R27
0014ee 93aa      	ST   -Y,R26
0014ef 931a      	ST   -Y,R17
                 _0x200000B:
0014f0 81e9      	LDD  R30,Y+1
0014f1 81fa      	LDD  R31,Y+1+1
0014f2 9631      	ADIW R30,1
0014f3 83e9      	STD  Y+1,R30
0014f4 83fa      	STD  Y+1+1,R31
0014f5 9731      	SBIW R30,1
0014f6 91e4      	LPM  R30,Z
0014f7 2f1e      	MOV  R17,R30
0014f8 30e0      	CPI  R30,0
0014f9 f019      	BREQ _0x200000D
0014fa 2fa1      	MOV  R26,R17
0014fb dfd2      	RCALL _lcd_putchar
0014fc cff3      	RJMP _0x200000B
                 _0x200000D:
0014fd c03f      	RJMP _0x20C0007
                 ; .FEND
                 _lcd_init:
                 ; .FSTART _lcd_init
0014fe 93aa      	ST   -Y,R26
0014ff b3ea      	IN   R30,0x1A
001500 6fe0      	ORI  R30,LOW(0xF0)
001501 bbea      	OUT  0x1A,R30
001502 9ad2      	SBI  0x1A,2
001503 9ad0      	SBI  0x1A,0
001504 9ad1      	SBI  0x1A,1
001505 98da      	CBI  0x1B,2
001506 98d8      	CBI  0x1B,0
001507 98d9      	CBI  0x1B,1
001508 8088      	LDD  R8,Y+0
001509 81e8      	LD   R30,Y
00150a 58e0      	SUBI R30,-LOW(128)
                +
00150b 93e0 033e+STS __base_y_G100 + ( 2 ) , R30
                 	__PUTB1MN __base_y_G100,2
00150d 81e8      	LD   R30,Y
00150e 54e0      	SUBI R30,-LOW(192)
                +
00150f 93e0 033f+STS __base_y_G100 + ( 3 ) , R30
                 	__PUTB1MN __base_y_G100,3
001511 e1a4      	LDI  R26,LOW(20)
001512 e0b0      	LDI  R27,0
001513 940e 1c4e 	CALL _delay_ms
001515 940e 1b54 	CALL SUBOPT_0x2C
001517 940e 1b54 	CALL SUBOPT_0x2C
001519 940e 1b54 	CALL SUBOPT_0x2C
00151b e2a0      	LDI  R26,LOW(32)
00151c df77      	RCALL __lcd_write_nibble_G100
                +
00151d ec88     +LDI R24 , LOW ( 200 )
00151e e090     +LDI R25 , HIGH ( 200 )
                +__DELAY_USW_LOOP :
00151f 9701     +SBIW R24 , 1
001520 f7f1     +BRNE __DELAY_USW_LOOP
                 	__DELAY_USW 200
001521 e2a8      	LDI  R26,LOW(40)
001522 df86      	RCALL __lcd_write_data
001523 e0a4      	LDI  R26,LOW(4)
001524 df84      	RCALL __lcd_write_data
001525 e8a5      	LDI  R26,LOW(133)
001526 df82      	RCALL __lcd_write_data
001527 e0a6      	LDI  R26,LOW(6)
001528 df80      	RCALL __lcd_write_data
001529 df98      	RCALL _lcd_clear
00152a c005      	RJMP _0x20C0008
                 ; .FEND
                 	#ifndef __SLEEP_DEFINED__
                 	#endif
                 
                 	.CSEG
                 _putchar:
                 ; .FSTART _putchar
00152b 93aa      	ST   -Y,R26
                 putchar0:
00152c 9b5d           sbis usr,udre
00152d cffe           rjmp putchar0
00152e 81e8           ld   r30,y
00152f b9ec           out  udr,r30
                 _0x20C0008:
001530 9621      	ADIW R28,1
001531 9508      	RET
                 ; .FEND
                 _puts:
                 ; .FSTART _puts
001532 93ba      	ST   -Y,R27
001533 93aa      	ST   -Y,R26
001534 931a      	ST   -Y,R17
                 _0x2020003:
001535 940e 1b4c 	CALL SUBOPT_0x2B
001537 f019      	BREQ _0x2020005
001538 2fa1      	MOV  R26,R17
001539 dff1      	RCALL _putchar
00153a cffa      	RJMP _0x2020003
                 _0x2020005:
00153b e0aa      	LDI  R26,LOW(10)
00153c dfee      	RCALL _putchar
                 _0x20C0007:
00153d 8118      	LDD  R17,Y+0
00153e 9623      	ADIW R28,3
00153f 9508      	RET
                 ; .FEND
                 _put_buff_G101:
                 ; .FSTART _put_buff_G101
001540 93ba      	ST   -Y,R27
001541 93aa      	ST   -Y,R26
001542 931a      	ST   -Y,R17
001543 930a      	ST   -Y,R16
001544 81aa      	LDD  R26,Y+2
001545 81bb      	LDD  R27,Y+2+1
001546 9612      	ADIW R26,2
001547 940e 1ea3 	CALL __GETW1P
001549 9730      	SBIW R30,0
00154a f129      	BREQ _0x2020010
00154b 81aa      	LDD  R26,Y+2
00154c 81bb      	LDD  R27,Y+2+1
00154d 9614      	ADIW R26,4
00154e 940e 1ea3 	CALL __GETW1P
001550 018f      	MOVW R16,R30
001551 9730      	SBIW R30,0
001552 f061      	BREQ _0x2020012
                +
001553 3002     +CPI R16 , LOW ( 2 )
001554 e0e0     +LDI R30 , HIGH ( 2 )
001555 071e     +CPC R17 , R30
                 	__CPWRN 16,17,2
001556 f080      	BRLO _0x2020013
001557 01f8      	MOVW R30,R16
001558 9731      	SBIW R30,1
001559 018f      	MOVW R16,R30
                +
00155a 81aa     +LDD R26 , Y + 2
00155b 81bb     +LDD R27 , Y + 2 + 1
00155c 9614     +ADIW R26 , 4
00155d 93ed     +ST X + , R30
00155e 93fc     +ST X , R31
                 	__PUTW1SNS 2,4
                 _0x2020012:
00155f 81aa      	LDD  R26,Y+2
001560 81bb      	LDD  R27,Y+2+1
001561 9612      	ADIW R26,2
001562 940e 1b5c 	CALL SUBOPT_0x2D
001564 9731      	SBIW R30,1
001565 81ac      	LDD  R26,Y+4
001566 83a0      	STD  Z+0,R26
                 _0x2020013:
001567 81aa      	LDD  R26,Y+2
001568 81bb      	LDD  R27,Y+2+1
001569 940e 1ea3 	CALL __GETW1P
00156b 23ff      	TST  R31
00156c f012      	BRMI _0x2020014
00156d 940e 1b5c 	CALL SUBOPT_0x2D
                 _0x2020014:
00156f c006      	RJMP _0x2020015
                 _0x2020010:
001570 81aa      	LDD  R26,Y+2
001571 81bb      	LDD  R27,Y+2+1
001572 efef      	LDI  R30,LOW(65535)
001573 efff      	LDI  R31,HIGH(65535)
001574 93ed      	ST   X+,R30
001575 93fc      	ST   X,R31
                 _0x2020015:
001576 8119      	LDD  R17,Y+1
001577 8108      	LDD  R16,Y+0
                 _0x20C0006:
001578 9625      	ADIW R28,5
001579 9508      	RET
                 ; .FEND
                 __ftoe_G101:
                 ; .FSTART __ftoe_G101
00157a 940e 1b62 	CALL SUBOPT_0x2E
00157c e8e0      	LDI  R30,LOW(128)
00157d 83ea      	STD  Y+2,R30
00157e e3ef      	LDI  R30,LOW(63)
00157f 83eb      	STD  Y+3,R30
001580 940e 1ee2 	CALL __SAVELOCR4
001582 85ee      	LDD  R30,Y+14
001583 85ff      	LDD  R31,Y+14+1
001584 3fef      	CPI  R30,LOW(0xFFFF)
001585 efaf      	LDI  R26,HIGH(0xFFFF)
001586 07fa      	CPC  R31,R26
001587 f449      	BRNE _0x2020019
001588 85e8      	LDD  R30,Y+8
001589 85f9      	LDD  R31,Y+8+1
00158a 93fa      	ST   -Y,R31
00158b 93ea      	ST   -Y,R30
                +
00158c eea6     +LDI R26 , LOW ( 2 * _0x2020000 + ( 0 ) )
00158d e2b0     +LDI R27 , HIGH ( 2 * _0x2020000 + ( 0 ) )
                 	__POINTW2FN _0x2020000,0
00158e 940e 198c 	CALL _strcpyf
001590 c0b9      	RJMP _0x20C0005
                 _0x2020019:
001591 3fef      	CPI  R30,LOW(0x7FFF)
001592 e7af      	LDI  R26,HIGH(0x7FFF)
001593 07fa      	CPC  R31,R26
001594 f449      	BRNE _0x2020018
001595 85e8      	LDD  R30,Y+8
001596 85f9      	LDD  R31,Y+8+1
001597 93fa      	ST   -Y,R31
001598 93ea      	ST   -Y,R30
                +
001599 eea7     +LDI R26 , LOW ( 2 * _0x2020000 + ( 1 ) )
00159a e2b0     +LDI R27 , HIGH ( 2 * _0x2020000 + ( 1 ) )
                 	__POINTW2FN _0x2020000,1
00159b 940e 198c 	CALL _strcpyf
00159d c0ac      	RJMP _0x20C0005
                 _0x2020018:
00159e 85ab      	LDD  R26,Y+11
00159f 30a7      	CPI  R26,LOW(0x7)
0015a0 f010      	BRLO _0x202001B
0015a1 e0e6      	LDI  R30,LOW(6)
0015a2 87eb      	STD  Y+11,R30
                 _0x202001B:
0015a3 851b      	LDD  R17,Y+11
                 _0x202001C:
0015a4 2fe1      	MOV  R30,R17
0015a5 5011      	SUBI R17,1
0015a6 30e0      	CPI  R30,0
0015a7 f019      	BREQ _0x202001E
0015a8 940e 1b69 	CALL SUBOPT_0x2F
0015aa cff9      	RJMP _0x202001C
                 _0x202001E:
                +
0015ab 85ec     +LDD R30 , Y + 12
0015ac 85fd     +LDD R31 , Y + 12 + 1
0015ad 856e     +LDD R22 , Y + 12 + 2
0015ae 857f     +LDD R23 , Y + 12 + 3
                 	__GETD1S 12
0015af 940e 1edc 	CALL __CPD10
0015b1 f421      	BRNE _0x202001F
0015b2 e030      	LDI  R19,LOW(0)
0015b3 940e 1b69 	CALL SUBOPT_0x2F
0015b5 c02f      	RJMP _0x2020020
                 _0x202001F:
0015b6 853b      	LDD  R19,Y+11
0015b7 940e 1b78 	CALL SUBOPT_0x30
0015b9 f009      	BREQ PC+2
0015ba f408      	BRCC PC+2
0015bb c00b      	RJMP _0x2020021
0015bc 940e 1b69 	CALL SUBOPT_0x2F
                 _0x2020022:
0015be 940e 1b78 	CALL SUBOPT_0x30
0015c0 f028      	BRLO _0x2020024
0015c1 940e 1b83 	CALL SUBOPT_0x31
0015c3 940e 1b88 	CALL SUBOPT_0x32
0015c5 cff8      	RJMP _0x2020022
                 _0x2020024:
0015c6 c00d      	RJMP _0x2020025
                 _0x2020021:
                 _0x2020026:
0015c7 940e 1b78 	CALL SUBOPT_0x30
0015c9 f440      	BRSH _0x2020028
0015ca 940e 1b83 	CALL SUBOPT_0x31
0015cc 940e 1b94 	CALL SUBOPT_0x33
0015ce 940e 1b9b 	CALL SUBOPT_0x34
0015d0 5031      	SUBI R19,LOW(1)
0015d1 cff5      	RJMP _0x2020026
                 _0x2020028:
0015d2 940e 1b69 	CALL SUBOPT_0x2F
                 _0x2020025:
                +
0015d4 85ec     +LDD R30 , Y + 12
0015d5 85fd     +LDD R31 , Y + 12 + 1
0015d6 856e     +LDD R22 , Y + 12 + 2
0015d7 857f     +LDD R23 , Y + 12 + 3
                 	__GETD1S 12
0015d8 940e 1ba0 	CALL SUBOPT_0x35
0015da 940e 1cfe 	CALL __ADDF12
0015dc 940e 1b9b 	CALL SUBOPT_0x34
0015de 940e 1b78 	CALL SUBOPT_0x30
0015e0 f020      	BRLO _0x2020029
0015e1 940e 1b83 	CALL SUBOPT_0x31
0015e3 940e 1b88 	CALL SUBOPT_0x32
                 _0x2020029:
                 _0x2020020:
0015e5 e010      	LDI  R17,LOW(0)
                 _0x202002A:
0015e6 85eb      	LDD  R30,Y+11
0015e7 17e1      	CP   R30,R17
0015e8 f1a8      	BRLO _0x202002C
                +
0015e9 81ac     +LDD R26 , Y + 4
0015ea 81bd     +LDD R27 , Y + 4 + 1
0015eb 818e     +LDD R24 , Y + 4 + 2
0015ec 819f     +LDD R25 , Y + 4 + 3
                 	__GETD2S 4
0015ed 940e 1ba5 	CALL SUBOPT_0x36
0015ef 940e 1ba0 	CALL SUBOPT_0x35
0015f1 940e 1a0c 	CALL SUBOPT_0x2
0015f3 940e 19e3 	CALL _floor
                +
0015f5 83ec     +STD Y + 4 , R30
0015f6 83fd     +STD Y + 4 + 1 , R31
0015f7 836e     +STD Y + 4 + 2 , R22
0015f8 837f     +STD Y + 4 + 3 , R23
                 	__PUTD1S 4
0015f9 940e 1b83 	CALL SUBOPT_0x31
0015fb 940e 1d9c 	CALL __DIVF21
0015fd 940e 1c8b 	CALL __CFD1U
0015ff 2f0e      	MOV  R16,R30
001600 940e 1bac 	CALL SUBOPT_0x37
001602 940e 1bb3 	CALL SUBOPT_0x38
001604 27ff      	CLR  R31
001605 2766      	CLR  R22
001606 2777      	CLR  R23
001607 940e 1cc4 	CALL __CDF1
                +
001609 81ac     +LDD R26 , Y + 4
00160a 81bd     +LDD R27 , Y + 4 + 1
00160b 818e     +LDD R24 , Y + 4 + 2
00160c 819f     +LDD R25 , Y + 4 + 3
                 	__GETD2S 4
00160d 940e 1d4e 	CALL __MULF12
00160f 940e 1b83 	CALL SUBOPT_0x31
001611 940e 1bb8 	CALL SUBOPT_0x39
001613 940e 1b9b 	CALL SUBOPT_0x34
001615 2fe1      	MOV  R30,R17
001616 5f1f      	SUBI R17,-1
001617 30e0      	CPI  R30,0
001618 f669      	BRNE _0x202002A
001619 940e 1bac 	CALL SUBOPT_0x37
00161b e2ee      	LDI  R30,LOW(46)
00161c 93ec      	ST   X,R30
00161d cfc8      	RJMP _0x202002A
                 _0x202002C:
00161e 940e 1bbd 	CALL SUBOPT_0x3A
001620 9731      	SBIW R30,1
001621 85aa      	LDD  R26,Y+10
001622 83a0      	STD  Z+0,R26
001623 3030      	CPI  R19,0
001624 f42c      	BRGE _0x202002E
001625 9531      	NEG  R19
001626 85a8      	LDD  R26,Y+8
001627 85b9      	LDD  R27,Y+8+1
001628 e2ed      	LDI  R30,LOW(45)
001629 c003      	RJMP _0x2020113
                 _0x202002E:
00162a 85a8      	LDD  R26,Y+8
00162b 85b9      	LDD  R27,Y+8+1
00162c e2eb      	LDI  R30,LOW(43)
                 _0x2020113:
00162d 93ec      	ST   X,R30
00162e 940e 1bbd 	CALL SUBOPT_0x3A
001630 940e 1bbd 	CALL SUBOPT_0x3A
001632 9731      	SBIW R30,1
001633 01bf      	MOVW R22,R30
001634 2fa3      	MOV  R26,R19
001635 e0ea      	LDI  R30,LOW(10)
001636 940e 1e45 	CALL __DIVB21
001638 5de0      	SUBI R30,-LOW(48)
001639 01db      	MOVW R26,R22
00163a 93ec      	ST   X,R30
00163b 940e 1bbd 	CALL SUBOPT_0x3A
00163d 9731      	SBIW R30,1
00163e 01bf      	MOVW R22,R30
00163f 2fa3      	MOV  R26,R19
001640 e0ea      	LDI  R30,LOW(10)
001641 940e 1e74 	CALL __MODB21
001643 5de0      	SUBI R30,-LOW(48)
001644 01db      	MOVW R26,R22
001645 93ec      	ST   X,R30
001646 85a8      	LDD  R26,Y+8
001647 85b9      	LDD  R27,Y+8+1
001648 e0e0      	LDI  R30,LOW(0)
001649 93ec      	ST   X,R30
                 _0x20C0005:
00164a 940e 1ee9 	CALL __LOADLOCR4
00164c 9660      	ADIW R28,16
00164d 9508      	RET
                 ; .FEND
                 __print_G101:
                 ; .FSTART __print_G101
00164e 93ba      	ST   -Y,R27
00164f 93aa      	ST   -Y,R26
001650 97ef      	SBIW R28,63
001651 9761      	SBIW R28,17
001652 940e 1ee0 	CALL __SAVELOCR6
001654 e010      	LDI  R17,0
                +
001655 01fe     +MOVW R30 , R28
001656 5ae8     +SUBI R30 , LOW ( - 88 )
001657 4fff     +SBCI R31 , HIGH ( - 88 )
001658 9001     +LD R0 , Z +
001659 81f0     +LD R31 , Z
00165a 2de0     +MOV R30 , R0
                 	__GETW1SX 88
00165b 87e8      	STD  Y+8,R30
00165c 87f9      	STD  Y+8+1,R31
                +
00165d 01fe     +MOVW R30 , R28
00165e 5aea     +SUBI R30 , LOW ( - 86 )
00165f 4fff     +SBCI R31 , HIGH ( - 86 )
001660 9001     +LD R0 , Z +
001661 81f0     +LD R31 , Z
001662 2de0     +MOV R30 , R0
                 	__GETW1SX 86
001663 83ee      	STD  Y+6,R30
001664 83ff      	STD  Y+6+1,R31
001665 81ae      	LDD  R26,Y+6
001666 81bf      	LDD  R27,Y+6+1
001667 e0e0      	LDI  R30,LOW(0)
001668 e0f0      	LDI  R31,HIGH(0)
001669 93ed      	ST   X+,R30
00166a 93fc      	ST   X,R31
                 _0x2020030:
00166b 01de      	MOVW R26,R28
00166c 5aa4      	SUBI R26,LOW(-(92))
00166d 4fbf      	SBCI R27,HIGH(-(92))
00166e 940e 1b5c 	CALL SUBOPT_0x2D
001670 9731      	SBIW R30,1
001671 91e4      	LPM  R30,Z
001672 2f2e      	MOV  R18,R30
001673 30e0      	CPI  R30,0
001674 f409      	BRNE PC+2
001675 c1e9      	RJMP _0x2020032
001676 2fe1      	MOV  R30,R17
001677 30e0      	CPI  R30,0
001678 f439      	BRNE _0x2020036
001679 3225      	CPI  R18,37
00167a f411      	BRNE _0x2020037
00167b e011      	LDI  R17,LOW(1)
00167c c002      	RJMP _0x2020038
                 _0x2020037:
00167d 940e 1bc3 	CALL SUBOPT_0x3B
                 _0x2020038:
00167f c1de      	RJMP _0x2020035
                 _0x2020036:
001680 30e1      	CPI  R30,LOW(0x1)
001681 f4c1      	BRNE _0x2020039
001682 3225      	CPI  R18,37
001683 f419      	BRNE _0x202003A
001684 940e 1bc3 	CALL SUBOPT_0x3B
001686 c1d6      	RJMP _0x2020114
                 _0x202003A:
001687 e012      	LDI  R17,LOW(2)
001688 e0e0      	LDI  R30,LOW(0)
001689 8bed      	STD  Y+21,R30
00168a e000      	LDI  R16,LOW(0)
00168b 322d      	CPI  R18,45
00168c f411      	BRNE _0x202003B
00168d e001      	LDI  R16,LOW(1)
00168e c1cf      	RJMP _0x2020035
                 _0x202003B:
00168f 322b      	CPI  R18,43
001690 f419      	BRNE _0x202003C
001691 e2eb      	LDI  R30,LOW(43)
001692 8bed      	STD  Y+21,R30
001693 c1ca      	RJMP _0x2020035
                 _0x202003C:
001694 3220      	CPI  R18,32
001695 f419      	BRNE _0x202003D
001696 e2e0      	LDI  R30,LOW(32)
001697 8bed      	STD  Y+21,R30
001698 c1c5      	RJMP _0x2020035
                 _0x202003D:
001699 c002      	RJMP _0x202003E
                 _0x2020039:
00169a 30e2      	CPI  R30,LOW(0x2)
00169b f439      	BRNE _0x202003F
                 _0x202003E:
00169c e050      	LDI  R21,LOW(0)
00169d e013      	LDI  R17,LOW(3)
00169e 3320      	CPI  R18,48
00169f f411      	BRNE _0x2020040
0016a0 6800      	ORI  R16,LOW(128)
0016a1 c1bc      	RJMP _0x2020035
                 _0x2020040:
0016a2 c002      	RJMP _0x2020041
                 _0x202003F:
0016a3 30e3      	CPI  R30,LOW(0x3)
0016a4 f491      	BRNE _0x2020042
                 _0x2020041:
0016a5 3320      	CPI  R18,48
0016a6 f010      	BRLO _0x2020044
0016a7 332a      	CPI  R18,58
0016a8 f008      	BRLO _0x2020045
                 _0x2020044:
0016a9 c007      	RJMP _0x2020043
                 _0x2020045:
0016aa e0aa      	LDI  R26,LOW(10)
0016ab 9f5a      	MUL  R21,R26
0016ac 2d50      	MOV  R21,R0
0016ad 2fe2      	MOV  R30,R18
0016ae 53e0      	SUBI R30,LOW(48)
0016af 0f5e      	ADD  R21,R30
0016b0 c1ad      	RJMP _0x2020035
                 _0x2020043:
0016b1 e040      	LDI  R20,LOW(0)
0016b2 322e      	CPI  R18,46
0016b3 f411      	BRNE _0x2020046
0016b4 e014      	LDI  R17,LOW(4)
0016b5 c1a8      	RJMP _0x2020035
                 _0x2020046:
0016b6 c00f      	RJMP _0x2020047
                 _0x2020042:
0016b7 30e4      	CPI  R30,LOW(0x4)
0016b8 f499      	BRNE _0x2020049
0016b9 3320      	CPI  R18,48
0016ba f010      	BRLO _0x202004B
0016bb 332a      	CPI  R18,58
0016bc f008      	BRLO _0x202004C
                 _0x202004B:
0016bd c008      	RJMP _0x202004A
                 _0x202004C:
0016be 6200      	ORI  R16,LOW(32)
0016bf e0aa      	LDI  R26,LOW(10)
0016c0 9f4a      	MUL  R20,R26
0016c1 2d40      	MOV  R20,R0
0016c2 2fe2      	MOV  R30,R18
0016c3 53e0      	SUBI R30,LOW(48)
0016c4 0f4e      	ADD  R20,R30
0016c5 c198      	RJMP _0x2020035
                 _0x202004A:
                 _0x2020047:
0016c6 362c      	CPI  R18,108
0016c7 f419      	BRNE _0x202004D
0016c8 6002      	ORI  R16,LOW(2)
0016c9 e015      	LDI  R17,LOW(5)
0016ca c193      	RJMP _0x2020035
                 _0x202004D:
0016cb c003      	RJMP _0x202004E
                 _0x2020049:
0016cc 30e5      	CPI  R30,LOW(0x5)
0016cd f009      	BREQ PC+2
0016ce c18f      	RJMP _0x2020035
                 _0x202004E:
0016cf 2fe2      	MOV  R30,R18
0016d0 36e3      	CPI  R30,LOW(0x63)
0016d1 f459      	BRNE _0x2020053
0016d2 940e 1bca 	CALL SUBOPT_0x3C
0016d4 940e 1bd1 	CALL SUBOPT_0x3D
0016d6 940e 1bca 	CALL SUBOPT_0x3C
0016d8 81a4      	LDD  R26,Z+4
0016d9 93aa      	ST   -Y,R26
0016da 940e 1bd8 	CALL SUBOPT_0x3E
0016dc c180      	RJMP _0x2020054
                 _0x2020053:
0016dd 34e5      	CPI  R30,LOW(0x45)
0016de f011      	BREQ _0x2020057
0016df 36e5      	CPI  R30,LOW(0x65)
0016e0 f409      	BRNE _0x2020058
                 _0x2020057:
0016e1 c003      	RJMP _0x2020059
                 _0x2020058:
0016e2 36e6      	CPI  R30,LOW(0x66)
0016e3 f009      	BREQ PC+2
0016e4 c048      	RJMP _0x202005A
                 _0x2020059:
0016e5 01fe      	MOVW R30,R28
0016e6 9676      	ADIW R30,22
0016e7 87ee      	STD  Y+14,R30
0016e8 87ff      	STD  Y+14+1,R31
0016e9 940e 1bde 	CALL SUBOPT_0x3F
0016eb 940e 1ea7 	CALL __GETD1P
0016ed 940e 1be5 	CALL SUBOPT_0x40
0016ef 940e 1bea 	CALL SUBOPT_0x41
0016f1 85ad      	LDD  R26,Y+13
0016f2 23aa      	TST  R26
0016f3 f032      	BRMI _0x202005B
0016f4 89ad      	LDD  R26,Y+21
0016f5 32ab      	CPI  R26,LOW(0x2B)
0016f6 f059      	BREQ _0x202005D
0016f7 32a0      	CPI  R26,LOW(0x20)
0016f8 f081      	BREQ _0x202005F
0016f9 c017      	RJMP _0x2020060
                 _0x202005B:
0016fa 940e 1bec 	CALL SUBOPT_0x42
0016fc 940e 1c58 	CALL __ANEGF1
0016fe 940e 1be5 	CALL SUBOPT_0x40
001700 e2ed      	LDI  R30,LOW(45)
001701 8bed      	STD  Y+21,R30
                 _0x202005D:
001702 ff07      	SBRS R16,7
001703 c005      	RJMP _0x2020061
001704 89ed      	LDD  R30,Y+21
001705 93ea      	ST   -Y,R30
001706 940e 1bd8 	CALL SUBOPT_0x3E
001708 c008      	RJMP _0x2020062
                 _0x2020061:
                 _0x202005F:
001709 85ee      	LDD  R30,Y+14
00170a 85ff      	LDD  R31,Y+14+1
00170b 9631      	ADIW R30,1
00170c 87ee      	STD  Y+14,R30
00170d 87ff      	STD  Y+14+1,R31
00170e 9731      	SBIW R30,1
00170f 89ad      	LDD  R26,Y+21
001710 83a0      	STD  Z+0,R26
                 _0x2020062:
                 _0x2020060:
001711 ff05      	SBRS R16,5
001712 e046      	LDI  R20,LOW(6)
001713 3626      	CPI  R18,102
001714 f451      	BRNE _0x2020064
001715 940e 1bec 	CALL SUBOPT_0x42
001717 940e 1ec5 	CALL __PUTPARD1
001719 934a      	ST   -Y,R20
00171a 89ab      	LDD  R26,Y+19
00171b 89bc      	LDD  R27,Y+19+1
00171c 940e 18ca 	CALL _ftoa
00171e c009      	RJMP _0x2020065
                 _0x2020064:
00171f 940e 1bec 	CALL SUBOPT_0x42
001721 940e 1ec5 	CALL __PUTPARD1
001723 934a      	ST   -Y,R20
001724 932a      	ST   -Y,R18
001725 89ac      	LDD  R26,Y+20
001726 89bd      	LDD  R27,Y+20+1
001727 de52      	RCALL __ftoe_G101
                 _0x2020065:
001728 01fe      	MOVW R30,R28
001729 9676      	ADIW R30,22
00172a 940e 1bf1 	CALL SUBOPT_0x43
00172c c01e      	RJMP _0x2020066
                 _0x202005A:
00172d 37e3      	CPI  R30,LOW(0x73)
00172e f439      	BRNE _0x2020068
00172f 940e 1bea 	CALL SUBOPT_0x41
001731 940e 1bf9 	CALL SUBOPT_0x44
001733 940e 1bf1 	CALL SUBOPT_0x43
001735 c00e      	RJMP _0x2020069
                 _0x2020068:
001736 37e0      	CPI  R30,LOW(0x70)
001737 f4c1      	BRNE _0x202006B
001738 940e 1bea 	CALL SUBOPT_0x41
00173a 940e 1bf9 	CALL SUBOPT_0x44
00173c 87ee      	STD  Y+14,R30
00173d 87ff      	STD  Y+14+1,R31
00173e 85ae      	LDD  R26,Y+14
00173f 85bf      	LDD  R27,Y+14+1
001740 940e 19a5 	CALL _strlenf
001742 2f1e      	MOV  R17,R30
001743 6008      	ORI  R16,LOW(8)
                 _0x2020069:
001744 770f      	ANDI R16,LOW(127)
001745 3040      	CPI  R20,0
001746 f011      	BREQ _0x202006D
001747 1741      	CP   R20,R17
001748 f008      	BRLO _0x202006E
                 _0x202006D:
001749 c001      	RJMP _0x202006C
                 _0x202006E:
00174a 2f14      	MOV  R17,R20
                 _0x202006C:
                 _0x2020066:
00174b e040      	LDI  R20,LOW(0)
00174c e0e0      	LDI  R30,LOW(0)
00174d 8bec      	STD  Y+20,R30
00174e e030      	LDI  R19,LOW(0)
00174f c06d      	RJMP _0x202006F
                 _0x202006B:
001750 36e4      	CPI  R30,LOW(0x64)
001751 f011      	BREQ _0x2020072
001752 36e9      	CPI  R30,LOW(0x69)
001753 f411      	BRNE _0x2020073
                 _0x2020072:
001754 6004      	ORI  R16,LOW(4)
001755 c002      	RJMP _0x2020074
                 _0x2020073:
001756 37e5      	CPI  R30,LOW(0x75)
001757 f4a1      	BRNE _0x2020075
                 _0x2020074:
001758 e0ea      	LDI  R30,LOW(10)
001759 8bec      	STD  Y+20,R30
00175a ff01      	SBRS R16,1
00175b c008      	RJMP _0x2020076
                +
00175c e0e0     +LDI R30 , LOW ( 0x3B9ACA00 )
00175d ecfa     +LDI R31 , HIGH ( 0x3B9ACA00 )
00175e e96a     +LDI R22 , BYTE3 ( 0x3B9ACA00 )
00175f e37b     +LDI R23 , BYTE4 ( 0x3B9ACA00 )
                 	__GETD1N 0x3B9ACA00
001760 940e 1bfe 	CALL SUBOPT_0x45
001762 e01a      	LDI  R17,LOW(10)
001763 c022      	RJMP _0x2020077
                 _0x2020076:
                +
001764 e1e0     +LDI R30 , LOW ( 0x2710 )
001765 e2f7     +LDI R31 , HIGH ( 0x2710 )
001766 e060     +LDI R22 , BYTE3 ( 0x2710 )
001767 e070     +LDI R23 , BYTE4 ( 0x2710 )
                 	__GETD1N 0x2710
001768 940e 1bfe 	CALL SUBOPT_0x45
00176a e015      	LDI  R17,LOW(5)
00176b c01a      	RJMP _0x2020077
                 _0x2020075:
00176c 35e8      	CPI  R30,LOW(0x58)
00176d f411      	BRNE _0x2020079
00176e 6008      	ORI  R16,LOW(8)
00176f c003      	RJMP _0x202007A
                 _0x2020079:
001770 37e8      	CPI  R30,LOW(0x78)
001771 f009      	BREQ PC+2
001772 c0ea      	RJMP _0x20200B8
                 _0x202007A:
001773 e1e0      	LDI  R30,LOW(16)
001774 8bec      	STD  Y+20,R30
001775 ff01      	SBRS R16,1
001776 c008      	RJMP _0x202007C
                +
001777 e0e0     +LDI R30 , LOW ( 0x10000000 )
001778 e0f0     +LDI R31 , HIGH ( 0x10000000 )
001779 e060     +LDI R22 , BYTE3 ( 0x10000000 )
00177a e170     +LDI R23 , BYTE4 ( 0x10000000 )
                 	__GETD1N 0x10000000
00177b 940e 1bfe 	CALL SUBOPT_0x45
00177d e018      	LDI  R17,LOW(8)
00177e c007      	RJMP _0x2020077
                 _0x202007C:
                +
00177f e0e0     +LDI R30 , LOW ( 0x1000 )
001780 e1f0     +LDI R31 , HIGH ( 0x1000 )
001781 e060     +LDI R22 , BYTE3 ( 0x1000 )
001782 e070     +LDI R23 , BYTE4 ( 0x1000 )
                 	__GETD1N 0x1000
001783 940e 1bfe 	CALL SUBOPT_0x45
001785 e014      	LDI  R17,LOW(4)
                 _0x2020077:
001786 3040      	CPI  R20,0
001787 f011      	BREQ _0x202007D
001788 770f      	ANDI R16,LOW(127)
001789 c001      	RJMP _0x202007E
                 _0x202007D:
00178a e041      	LDI  R20,LOW(1)
                 _0x202007E:
00178b ff01      	SBRS R16,1
00178c c008      	RJMP _0x202007F
00178d 940e 1bea 	CALL SUBOPT_0x41
00178f 940e 1bde 	CALL SUBOPT_0x3F
001791 9614      	ADIW R26,4
001792 940e 1ea7 	CALL __GETD1P
001794 c00f      	RJMP _0x2020115
                 _0x202007F:
001795 ff02      	SBRS R16,2
001796 c007      	RJMP _0x2020081
001797 940e 1bea 	CALL SUBOPT_0x41
001799 940e 1bf9 	CALL SUBOPT_0x44
00179b 940e 1e2c 	CALL __CWD1
00179d c006      	RJMP _0x2020115
                 _0x2020081:
00179e 940e 1bea 	CALL SUBOPT_0x41
0017a0 940e 1bf9 	CALL SUBOPT_0x44
0017a2 2766      	CLR  R22
0017a3 2777      	CLR  R23
                 _0x2020115:
                +
0017a4 87ea     +STD Y + 10 , R30
0017a5 87fb     +STD Y + 10 + 1 , R31
0017a6 876c     +STD Y + 10 + 2 , R22
0017a7 877d     +STD Y + 10 + 3 , R23
                 	__PUTD1S 10
0017a8 ff02      	SBRS R16,2
0017a9 c012      	RJMP _0x2020083
0017aa 85ad      	LDD  R26,Y+13
0017ab 23aa      	TST  R26
0017ac f442      	BRPL _0x2020084
0017ad 940e 1bec 	CALL SUBOPT_0x42
0017af 940e 1e14 	CALL __ANEGD1
0017b1 940e 1be5 	CALL SUBOPT_0x40
0017b3 e2ed      	LDI  R30,LOW(45)
0017b4 8bed      	STD  Y+21,R30
                 _0x2020084:
0017b5 89ed      	LDD  R30,Y+21
0017b6 30e0      	CPI  R30,0
0017b7 f019      	BREQ _0x2020085
0017b8 5f1f      	SUBI R17,-LOW(1)
0017b9 5f4f      	SUBI R20,-LOW(1)
0017ba c001      	RJMP _0x2020086
                 _0x2020085:
0017bb 7f0b      	ANDI R16,LOW(251)
                 _0x2020086:
                 _0x2020083:
0017bc 2f34      	MOV  R19,R20
                 _0x202006F:
0017bd fd00      	SBRC R16,0
0017be c014      	RJMP _0x2020087
                 _0x2020088:
0017bf 1715      	CP   R17,R21
0017c0 f410      	BRSH _0x202008B
0017c1 1735      	CP   R19,R21
0017c2 f008      	BRLO _0x202008C
                 _0x202008B:
0017c3 c00f      	RJMP _0x202008A
                 _0x202008C:
0017c4 ff07      	SBRS R16,7
0017c5 c008      	RJMP _0x202008D
0017c6 ff02      	SBRS R16,2
0017c7 c004      	RJMP _0x202008E
0017c8 7f0b      	ANDI R16,LOW(251)
0017c9 892d      	LDD  R18,Y+21
0017ca 5011      	SUBI R17,LOW(1)
0017cb c001      	RJMP _0x202008F
                 _0x202008E:
0017cc e320      	LDI  R18,LOW(48)
                 _0x202008F:
0017cd c001      	RJMP _0x2020090
                 _0x202008D:
0017ce e220      	LDI  R18,LOW(32)
                 _0x2020090:
0017cf 940e 1bc3 	CALL SUBOPT_0x3B
0017d1 5051      	SUBI R21,LOW(1)
0017d2 cfec      	RJMP _0x2020088
                 _0x202008A:
                 _0x2020087:
                 _0x2020091:
0017d3 1714      	CP   R17,R20
0017d4 f490      	BRSH _0x2020093
0017d5 6100      	ORI  R16,LOW(16)
0017d6 ff02      	SBRS R16,2
0017d7 c006      	RJMP _0x2020094
0017d8 940e 1c03 	CALL SUBOPT_0x46
0017da f009      	BREQ _0x2020095
0017db 5051      	SUBI R21,LOW(1)
                 _0x2020095:
0017dc 5011      	SUBI R17,LOW(1)
0017dd 5041      	SUBI R20,LOW(1)
                 _0x2020094:
0017de e3e0      	LDI  R30,LOW(48)
0017df 93ea      	ST   -Y,R30
0017e0 940e 1bd8 	CALL SUBOPT_0x3E
0017e2 3050      	CPI  R21,0
0017e3 f009      	BREQ _0x2020096
0017e4 5051      	SUBI R21,LOW(1)
                 _0x2020096:
0017e5 5041      	SUBI R20,LOW(1)
0017e6 cfec      	RJMP _0x2020091
                 _0x2020093:
0017e7 2f31      	MOV  R19,R17
0017e8 89ec      	LDD  R30,Y+20
0017e9 30e0      	CPI  R30,0
0017ea f4b9      	BRNE _0x2020097
                 _0x2020098:
0017eb 3030      	CPI  R19,0
0017ec f0a1      	BREQ _0x202009A
0017ed ff03      	SBRS R16,3
0017ee c006      	RJMP _0x202009B
0017ef 85ee      	LDD  R30,Y+14
0017f0 85ff      	LDD  R31,Y+14+1
0017f1 9125      	LPM  R18,Z+
0017f2 87ee      	STD  Y+14,R30
0017f3 87ff      	STD  Y+14+1,R31
0017f4 c005      	RJMP _0x202009C
                 _0x202009B:
0017f5 85ae      	LDD  R26,Y+14
0017f6 85bf      	LDD  R27,Y+14+1
0017f7 912d      	LD   R18,X+
0017f8 87ae      	STD  Y+14,R26
0017f9 87bf      	STD  Y+14+1,R27
                 _0x202009C:
0017fa 940e 1bc3 	CALL SUBOPT_0x3B
0017fc 3050      	CPI  R21,0
0017fd f009      	BREQ _0x202009D
0017fe 5051      	SUBI R21,LOW(1)
                 _0x202009D:
0017ff 5031      	SUBI R19,LOW(1)
001800 cfea      	RJMP _0x2020098
                 _0x202009A:
001801 c051      	RJMP _0x202009E
                 _0x2020097:
                 _0x20200A0:
001802 940e 1c15 	CALL SUBOPT_0x47
001804 940e 1e4a 	CALL __DIVD21U
001806 2f2e      	MOV  R18,R30
001807 302a      	CPI  R18,10
001808 f030      	BRLO _0x20200A2
001809 ff03      	SBRS R16,3
00180a c002      	RJMP _0x20200A3
00180b 5c29      	SUBI R18,-LOW(55)
00180c c001      	RJMP _0x20200A4
                 _0x20200A3:
00180d 5a29      	SUBI R18,-LOW(87)
                 _0x20200A4:
00180e c001      	RJMP _0x20200A5
                 _0x20200A2:
00180f 5d20      	SUBI R18,-LOW(48)
                 _0x20200A5:
001810 fd04      	SBRC R16,4
001811 c021      	RJMP _0x20200A7
001812 3321      	CPI  R18,49
001813 f460      	BRSH _0x20200A9
                +
001814 89a8     +LDD R26 , Y + 16
001815 89b9     +LDD R27 , Y + 16 + 1
001816 898a     +LDD R24 , Y + 16 + 2
001817 899b     +LDD R25 , Y + 16 + 3
                 	__GETD2S 16
                +
001818 30a1     +CPI R26 , LOW ( 0x1 )
001819 e0e0     +LDI R30 , HIGH ( 0x1 )
00181a 07be     +CPC R27 , R30
00181b e0e0     +LDI R30 , BYTE3 ( 0x1 )
00181c 078e     +CPC R24 , R30
00181d e0e0     +LDI R30 , BYTE4 ( 0x1 )
00181e 079e     +CPC R25 , R30
                 	__CPD2N 0x1
00181f f409      	BRNE _0x20200A8
                 _0x20200A9:
001820 c00b      	RJMP _0x20200AB
                 _0x20200A8:
001821 1743      	CP   R20,R19
001822 f440      	BRSH _0x2020116
001823 1753      	CP   R21,R19
001824 f010      	BRLO _0x20200AE
001825 ff00      	SBRS R16,0
001826 c001      	RJMP _0x20200AF
                 _0x20200AE:
001827 c010      	RJMP _0x20200AD
                 _0x20200AF:
001828 e220      	LDI  R18,LOW(32)
001829 ff07      	SBRS R16,7
00182a c008      	RJMP _0x20200B0
                 _0x2020116:
00182b e320      	LDI  R18,LOW(48)
                 _0x20200AB:
00182c 6100      	ORI  R16,LOW(16)
00182d ff02      	SBRS R16,2
00182e c004      	RJMP _0x20200B1
00182f 940e 1c03 	CALL SUBOPT_0x46
001831 f009      	BREQ _0x20200B2
001832 5051      	SUBI R21,LOW(1)
                 _0x20200B2:
                 _0x20200B1:
                 _0x20200B0:
                 _0x20200A7:
001833 940e 1bc3 	CALL SUBOPT_0x3B
001835 3050      	CPI  R21,0
001836 f009      	BREQ _0x20200B3
001837 5051      	SUBI R21,LOW(1)
                 _0x20200B3:
                 _0x20200AD:
001838 5031      	SUBI R19,LOW(1)
001839 940e 1c15 	CALL SUBOPT_0x47
00183b 940e 1e80 	CALL __MODD21U
00183d 940e 1be5 	CALL SUBOPT_0x40
00183f 89ec      	LDD  R30,Y+20
                +
001840 89a8     +LDD R26 , Y + 16
001841 89b9     +LDD R27 , Y + 16 + 1
001842 898a     +LDD R24 , Y + 16 + 2
001843 899b     +LDD R25 , Y + 16 + 3
                 	__GETD2S 16
001844 27ff      	CLR  R31
001845 2766      	CLR  R22
001846 2777      	CLR  R23
001847 940e 1e4a 	CALL __DIVD21U
001849 940e 1bfe 	CALL SUBOPT_0x45
                +
00184b 89e8     +LDD R30 , Y + 16
00184c 89f9     +LDD R31 , Y + 16 + 1
00184d 896a     +LDD R22 , Y + 16 + 2
00184e 897b     +LDD R23 , Y + 16 + 3
                 	__GETD1S 16
00184f 940e 1edc 	CALL __CPD10
001851 f009      	BREQ _0x20200A1
001852 cfaf      	RJMP _0x20200A0
                 _0x20200A1:
                 _0x202009E:
001853 ff00      	SBRS R16,0
001854 c008      	RJMP _0x20200B4
                 _0x20200B5:
001855 3050      	CPI  R21,0
001856 f031      	BREQ _0x20200B7
001857 5051      	SUBI R21,LOW(1)
001858 e2e0      	LDI  R30,LOW(32)
001859 93ea      	ST   -Y,R30
00185a 940e 1bd8 	CALL SUBOPT_0x3E
00185c cff8      	RJMP _0x20200B5
                 _0x20200B7:
                 _0x20200B4:
                 _0x20200B8:
                 _0x2020054:
                 _0x2020114:
00185d e010      	LDI  R17,LOW(0)
                 _0x2020035:
00185e ce0c      	RJMP _0x2020030
                 _0x2020032:
00185f 81ae      	LDD  R26,Y+6
001860 81bf      	LDD  R27,Y+6+1
001861 940e 1ea3 	CALL __GETW1P
001863 940e 1ee7 	CALL __LOADLOCR6
001865 96ef      	ADIW R28,63
001866 966f      	ADIW R28,31
001867 9508      	RET
                 ; .FEND
                 _sprintf:
                 ; .FSTART _sprintf
001868 92ff      	PUSH R15
001869 2ef8      	MOV  R15,R24
00186a 9726      	SBIW R28,6
00186b 940e 1ee2 	CALL __SAVELOCR4
00186d 940e 1c1e 	CALL SUBOPT_0x48
00186f 9730      	SBIW R30,0
001870 f419      	BRNE _0x20200B9
001871 efef      	LDI  R30,LOW(65535)
001872 efff      	LDI  R31,HIGH(65535)
001873 c023      	RJMP _0x20C0004
                 _0x20200B9:
001874 01de      	MOVW R26,R28
001875 9616      	ADIW R26,6
001876 940e 1e01 	CALL __ADDW2R15
001878 018d      	MOVW R16,R26
001879 940e 1c1e 	CALL SUBOPT_0x48
00187b 83ee      	STD  Y+6,R30
00187c 83ff      	STD  Y+6+1,R31
00187d e0e0      	LDI  R30,LOW(0)
00187e 87e8      	STD  Y+8,R30
00187f 87e9      	STD  Y+8+1,R30
001880 01de      	MOVW R26,R28
001881 961a      	ADIW R26,10
001882 940e 1e01 	CALL __ADDW2R15
001884 940e 1ea3 	CALL __GETW1P
001886 93fa      	ST   -Y,R31
001887 93ea      	ST   -Y,R30
001888 931a      	ST   -Y,R17
001889 930a      	ST   -Y,R16
00188a e4e0      	LDI  R30,LOW(_put_buff_G101)
00188b e1f5      	LDI  R31,HIGH(_put_buff_G101)
00188c 93fa      	ST   -Y,R31
00188d 93ea      	ST   -Y,R30
00188e 01de      	MOVW R26,R28
00188f 961a      	ADIW R26,10
001890 ddbd      	RCALL __print_G101
001891 019f      	MOVW R18,R30
001892 81ae      	LDD  R26,Y+6
001893 81bf      	LDD  R27,Y+6+1
001894 e0e0      	LDI  R30,LOW(0)
001895 93ec      	ST   X,R30
001896 01f9      	MOVW R30,R18
                 _0x20C0004:
001897 940e 1ee9 	CALL __LOADLOCR4
001899 962a      	ADIW R28,10
00189a 90ff      	POP  R15
00189b 9508      	RET
                 ; .FEND
                 
                 	.CSEG
                 _itoa:
                 ; .FSTART _itoa
00189c 93ba      	ST   -Y,R27
00189d 93aa      	ST   -Y,R26
00189e 91a9          ld   r26,y+
00189f 91b9          ld   r27,y+
0018a0 91e9          ld   r30,y+
0018a1 91f9          ld   r31,y+
0018a2 9630          adiw r30,0
0018a3 f42a          brpl __itoa0
0018a4 95e0          com  r30
0018a5 95f0          com  r31
0018a6 9631          adiw r30,1
0018a7 e26d          ldi  r22,'-'
0018a8 936d          st   x+,r22
                 __itoa0:
0018a9 94e8          clt
0018aa e180          ldi  r24,low(10000)
0018ab e297          ldi  r25,high(10000)
0018ac d00d          rcall __itoa1
0018ad ee88          ldi  r24,low(1000)
0018ae e093          ldi  r25,high(1000)
0018af d00a          rcall __itoa1
0018b0 e684          ldi  r24,100
0018b1 2799          clr  r25
0018b2 d007          rcall __itoa1
0018b3 e08a          ldi  r24,10
0018b4 d005          rcall __itoa1
0018b5 2f6e          mov  r22,r30
0018b6 d010          rcall __itoa5
0018b7 2766          clr  r22
0018b8 936c          st   x,r22
0018b9 9508          ret
                 
                 __itoa1:
0018ba 2766          clr	 r22
                 __itoa2:
0018bb 17e8          cp   r30,r24
0018bc 07f9          cpc  r31,r25
0018bd f020          brlo __itoa3
0018be 9563          inc  r22
0018bf 1be8          sub  r30,r24
0018c0 0bf9          sbc  r31,r25
0018c1 f7c9          brne __itoa2
                 __itoa3:
0018c2 2366          tst  r22
0018c3 f411          brne __itoa4
0018c4 f016          brts __itoa5
0018c5 9508          ret
                 __itoa4:
0018c6 9468          set
                 __itoa5:
0018c7 5d60          subi r22,-0x30
0018c8 936d          st   x+,r22
0018c9 9508          ret
                 ; .FEND
                 _ftoa:
                 ; .FSTART _ftoa
0018ca 940e 1b62 	CALL SUBOPT_0x2E
0018cc e0e0      	LDI  R30,LOW(0)
0018cd 83ea      	STD  Y+2,R30
0018ce e3ef      	LDI  R30,LOW(63)
0018cf 83eb      	STD  Y+3,R30
0018d0 931a      	ST   -Y,R17
0018d1 930a      	ST   -Y,R16
0018d2 85eb      	LDD  R30,Y+11
0018d3 85fc      	LDD  R31,Y+11+1
0018d4 3fef      	CPI  R30,LOW(0xFFFF)
0018d5 efaf      	LDI  R26,HIGH(0xFFFF)
0018d6 07fa      	CPC  R31,R26
0018d7 f439      	BRNE _0x204000D
0018d8 940e 1c25 	CALL SUBOPT_0x49
                +
0018da eeae     +LDI R26 , LOW ( 2 * _0x2040000 + ( 0 ) )
0018db e2b0     +LDI R27 , HIGH ( 2 * _0x2040000 + ( 0 ) )
                 	__POINTW2FN _0x2040000,0
0018dc 940e 198c 	CALL _strcpyf
0018de c0a9      	RJMP _0x20C0003
                 _0x204000D:
0018df 3fef      	CPI  R30,LOW(0x7FFF)
0018e0 e7af      	LDI  R26,HIGH(0x7FFF)
0018e1 07fa      	CPC  R31,R26
0018e2 f439      	BRNE _0x204000C
0018e3 940e 1c25 	CALL SUBOPT_0x49
                +
0018e5 eeaf     +LDI R26 , LOW ( 2 * _0x2040000 + ( 1 ) )
0018e6 e2b0     +LDI R27 , HIGH ( 2 * _0x2040000 + ( 1 ) )
                 	__POINTW2FN _0x2040000,1
0018e7 940e 198c 	CALL _strcpyf
0018e9 c09e      	RJMP _0x20C0003
                 _0x204000C:
0018ea 85ac      	LDD  R26,Y+12
0018eb 23aa      	TST  R26
0018ec f462      	BRPL _0x204000F
                +
0018ed 85e9     +LDD R30 , Y + 9
0018ee 85fa     +LDD R31 , Y + 9 + 1
0018ef 856b     +LDD R22 , Y + 9 + 2
0018f0 857c     +LDD R23 , Y + 9 + 3
                 	__GETD1S 9
0018f1 940e 1c58 	CALL __ANEGF1
0018f3 940e 1c2a 	CALL SUBOPT_0x4A
0018f5 940e 1c2f 	CALL SUBOPT_0x4B
0018f7 e2ed      	LDI  R30,LOW(45)
0018f8 93ec      	ST   X,R30
                 _0x204000F:
0018f9 85a8      	LDD  R26,Y+8
0018fa 30a7      	CPI  R26,LOW(0x7)
0018fb f010      	BRLO _0x2040010
0018fc e0e6      	LDI  R30,LOW(6)
0018fd 87e8      	STD  Y+8,R30
                 _0x2040010:
0018fe 8518      	LDD  R17,Y+8
                 _0x2040011:
0018ff 2fe1      	MOV  R30,R17
001900 5011      	SUBI R17,1
001901 30e0      	CPI  R30,0
001902 f039      	BREQ _0x2040013
001903 940e 1c36 	CALL SUBOPT_0x4C
001905 940e 1ba5 	CALL SUBOPT_0x36
001907 940e 1c3b 	CALL SUBOPT_0x4D
001909 cff5      	RJMP _0x2040011
                 _0x2040013:
00190a 940e 1c40 	CALL SUBOPT_0x4E
00190c 940e 1cfe 	CALL __ADDF12
00190e 940e 1c2a 	CALL SUBOPT_0x4A
001910 e010      	LDI  R17,LOW(0)
                +
001911 e0e0     +LDI R30 , LOW ( 0x3F800000 )
001912 e0f0     +LDI R31 , HIGH ( 0x3F800000 )
001913 e860     +LDI R22 , BYTE3 ( 0x3F800000 )
001914 e37f     +LDI R23 , BYTE4 ( 0x3F800000 )
                 	__GETD1N 0x3F800000
001915 940e 1c3b 	CALL SUBOPT_0x4D
                 _0x2040014:
001917 940e 1c40 	CALL SUBOPT_0x4E
001919 940e 1de1 	CALL __CMPF12
00191b f088      	BRLO _0x2040016
00191c 940e 1c36 	CALL SUBOPT_0x4C
00191e 940e 1b94 	CALL SUBOPT_0x33
001920 940e 1c3b 	CALL SUBOPT_0x4D
001922 5f1f      	SUBI R17,-LOW(1)
001923 3217      	CPI  R17,39
001924 f038      	BRLO _0x2040017
001925 940e 1c25 	CALL SUBOPT_0x49
                +
001927 efa3     +LDI R26 , LOW ( 2 * _0x2040000 + ( 5 ) )
001928 e2b0     +LDI R27 , HIGH ( 2 * _0x2040000 + ( 5 ) )
                 	__POINTW2FN _0x2040000,5
001929 940e 198c 	CALL _strcpyf
00192b c05c      	RJMP _0x20C0003
                 _0x2040017:
00192c cfea      	RJMP _0x2040014
                 _0x2040016:
00192d 3010      	CPI  R17,0
00192e f429      	BRNE _0x2040018
00192f 940e 1c2f 	CALL SUBOPT_0x4B
001931 e3e0      	LDI  R30,LOW(48)
001932 93ec      	ST   X,R30
001933 c029      	RJMP _0x2040019
                 _0x2040018:
                 _0x204001A:
001934 2fe1      	MOV  R30,R17
001935 5011      	SUBI R17,1
001936 30e0      	CPI  R30,0
001937 f129      	BREQ _0x204001C
001938 940e 1c36 	CALL SUBOPT_0x4C
00193a 940e 1ba5 	CALL SUBOPT_0x36
00193c 940e 1ba0 	CALL SUBOPT_0x35
00193e 940e 1a0c 	CALL SUBOPT_0x2
001940 940e 19e3 	CALL _floor
001942 940e 1c3b 	CALL SUBOPT_0x4D
001944 940e 1c40 	CALL SUBOPT_0x4E
001946 940e 1d9c 	CALL __DIVF21
001948 940e 1c8b 	CALL __CFD1U
00194a 2f0e      	MOV  R16,R30
00194b 940e 1c2f 	CALL SUBOPT_0x4B
00194d 940e 1bb3 	CALL SUBOPT_0x38
00194f e0f0      	LDI  R31,0
001950 940e 1c36 	CALL SUBOPT_0x4C
001952 940e 1a11 	CALL SUBOPT_0x3
001954 940e 1d4e 	CALL __MULF12
001956 940e 1c49 	CALL SUBOPT_0x4F
001958 940e 1bb8 	CALL SUBOPT_0x39
00195a 940e 1c2a 	CALL SUBOPT_0x4A
00195c cfd7      	RJMP _0x204001A
                 _0x204001C:
                 _0x2040019:
00195d 85e8      	LDD  R30,Y+8
00195e 30e0      	CPI  R30,0
00195f f121      	BREQ _0x20C0002
001960 940e 1c2f 	CALL SUBOPT_0x4B
001962 e2ee      	LDI  R30,LOW(46)
001963 93ec      	ST   X,R30
                 _0x204001E:
001964 85e8      	LDD  R30,Y+8
001965 50e1      	SUBI R30,LOW(1)
001966 87e8      	STD  Y+8,R30
001967 5fef      	SUBI R30,-LOW(1)
001968 f0d9      	BREQ _0x2040020
001969 940e 1c49 	CALL SUBOPT_0x4F
00196b 940e 1b94 	CALL SUBOPT_0x33
00196d 940e 1c2a 	CALL SUBOPT_0x4A
                +
00196f 85e9     +LDD R30 , Y + 9
001970 85fa     +LDD R31 , Y + 9 + 1
001971 856b     +LDD R22 , Y + 9 + 2
001972 857c     +LDD R23 , Y + 9 + 3
                 	__GETD1S 9
001973 940e 1c8b 	CALL __CFD1U
001975 2f0e      	MOV  R16,R30
001976 940e 1c2f 	CALL SUBOPT_0x4B
001978 940e 1bb3 	CALL SUBOPT_0x38
00197a e0f0      	LDI  R31,0
00197b 940e 1c49 	CALL SUBOPT_0x4F
00197d 940e 1a11 	CALL SUBOPT_0x3
00197f 940e 1bb8 	CALL SUBOPT_0x39
001981 940e 1c2a 	CALL SUBOPT_0x4A
001983 cfe0      	RJMP _0x204001E
                 _0x2040020:
                 _0x20C0002:
001984 81ae      	LDD  R26,Y+6
001985 81bf      	LDD  R27,Y+6+1
001986 e0e0      	LDI  R30,LOW(0)
001987 93ec      	ST   X,R30
                 _0x20C0003:
001988 8119      	LDD  R17,Y+1
001989 8108      	LDD  R16,Y+0
00198a 962d      	ADIW R28,13
00198b 9508      	RET
                 ; .FEND
                 
                 	.DSEG
                 
                 	.CSEG
                 
                 	.CSEG
                 _strcpyf:
                 ; .FSTART _strcpyf
00198c 93ba      	ST   -Y,R27
00198d 93aa      	ST   -Y,R26
00198e 91e9          ld   r30,y+
00198f 91f9          ld   r31,y+
001990 91a9          ld   r26,y+
001991 91b9          ld   r27,y+
001992 01cd          movw r24,r26
                 strcpyf0:
001993 9005      	lpm  r0,z+
001994 920d          st   x+,r0
001995 2000          tst  r0
001996 f7e1          brne strcpyf0
001997 01fc          movw r30,r24
001998 9508          ret
                 ; .FEND
                 _strlen:
                 ; .FSTART _strlen
001999 93ba      	ST   -Y,R27
00199a 93aa      	ST   -Y,R26
00199b 91a9          ld   r26,y+
00199c 91b9          ld   r27,y+
00199d 27ee          clr  r30
00199e 27ff          clr  r31
                 strlen0:
00199f 916d          ld   r22,x+
0019a0 2366          tst  r22
0019a1 f011          breq strlen1
0019a2 9631          adiw r30,1
0019a3 cffb          rjmp strlen0
                 strlen1:
0019a4 9508          ret
                 ; .FEND
                 _strlenf:
                 ; .FSTART _strlenf
0019a5 93ba      	ST   -Y,R27
0019a6 93aa      	ST   -Y,R26
0019a7 27aa          clr  r26
0019a8 27bb          clr  r27
0019a9 91e9          ld   r30,y+
0019aa 91f9          ld   r31,y+
                 strlenf0:
0019ab 9005      	lpm  r0,z+
0019ac 2000          tst  r0
0019ad f011          breq strlenf1
0019ae 9611          adiw r26,1
0019af cffb          rjmp strlenf0
                 strlenf1:
0019b0 01fd          movw r30,r26
0019b1 9508          ret
                 ; .FEND
                 
                 	.CSEG
                 
                 	.CSEG
                 _ftrunc:
                 ; .FSTART _ftrunc
0019b2 940e 1eca 	CALL __PUTPARD2
0019b4 817b         ldd  r23,y+3
0019b5 816a         ldd  r22,y+2
0019b6 81f9         ldd  r31,y+1
0019b7 81e8         ld   r30,y
0019b8 fb77         bst  r23,7
0019b9 0f77         lsl  r23
0019ba fd67         sbrc r22,7
0019bb 6071         sbr  r23,1
0019bc 2f97         mov  r25,r23
0019bd 579e         subi r25,0x7e
0019be f081         breq __ftrunc0
0019bf f078         brcs __ftrunc0
0019c0 3198         cpi  r25,24
0019c1 f490         brsh __ftrunc1
0019c2 27aa         clr  r26
0019c3 27bb         clr  r27
0019c4 2788         clr  r24
                 __ftrunc2:
0019c5 9408         sec
0019c6 9587         ror  r24
0019c7 95b7         ror  r27
0019c8 95a7         ror  r26
0019c9 959a         dec  r25
0019ca f7d1         brne __ftrunc2
0019cb 23ea         and  r30,r26
0019cc 23fb         and  r31,r27
0019cd 2368         and  r22,r24
0019ce c005         rjmp __ftrunc1
                 __ftrunc0:
0019cf 94e8         clt
0019d0 2777         clr  r23
0019d1 27ee         clr  r30
0019d2 27ff         clr  r31
0019d3 2766         clr  r22
                 __ftrunc1:
0019d4 776f         cbr  r22,0x80
0019d5 9576         lsr  r23
0019d6 f408         brcc __ftrunc3
0019d7 6860         sbr  r22,0x80
                 __ftrunc3:
0019d8 f977         bld  r23,7
0019d9 91a9         ld   r26,y+
0019da 91b9         ld   r27,y+
0019db 9189         ld   r24,y+
0019dc 9199         ld   r25,y+
0019dd 17ea         cp   r30,r26
0019de 07fb         cpc  r31,r27
0019df 0768         cpc  r22,r24
0019e0 0779         cpc  r23,r25
0019e1 fb97         bst  r25,7
0019e2 9508         ret
                 ; .FEND
                 _floor:
                 ; .FSTART _floor
0019e3 940e 1eca 	CALL __PUTPARD2
0019e5 940e 1ebb 	CALL __GETD2S0
0019e7 940e 19b2 	CALL _ftrunc
0019e9 940e 1ec0 	CALL __PUTD1S0
0019eb f419          brne __floor1
                 __floor0:
0019ec 940e 1eb6 	CALL __GETD1S0
0019ee c009      	RJMP _0x20C0001
                 __floor1:
0019ef f7e6          brtc __floor0
0019f0 940e 1eb6 	CALL __GETD1S0
                +
0019f2 e0a0     +LDI R26 , LOW ( 0x3F800000 )
0019f3 e0b0     +LDI R27 , HIGH ( 0x3F800000 )
0019f4 e880     +LDI R24 , BYTE3 ( 0x3F800000 )
0019f5 e39f     +LDI R25 , BYTE4 ( 0x3F800000 )
                 	__GETD2N 0x3F800000
0019f6 940e 1cf7 	CALL __SUBF12
                 _0x20C0001:
0019f8 9624      	ADIW R28,4
0019f9 9508      	RET
                 ; .FEND
                 
                 	.DSEG
                 _Weight_Shiwu:
000260           	.BYTE 0x4
                 _Weight_Maopi:
000264           	.BYTE 0x4
                 _Weight_Shiwu1:
000268           	.BYTE 0x4
                 _Weight_Maopi1:
00026c           	.BYTE 0x4
                 _Weight_Shiwu2:
000270           	.BYTE 0x4
                 _Weight_Maopi2:
000274           	.BYTE 0x4
                 _HX711_Buffer:
000278           	.BYTE 0x4
                 _HX711_Buffer1:
00027c           	.BYTE 0x4
                 _HX711_Buffer2:
000280           	.BYTE 0x4
                 _scale_total:
000284           	.BYTE 0x4
                 _scale_total_prev:
000288           	.BYTE 0x4
                 _scale:
00028c           	.BYTE 0x4
                 _scale1:
000290           	.BYTE 0x4
                 _scale2:
000294           	.BYTE 0x4
                 _scale_sum:
000298           	.BYTE 0x4
                 _scale1_sum:
00029c           	.BYTE 0x4
                 _scale2_sum:
0002a0           	.BYTE 0x4
                 _scale_array:
0002a4           	.BYTE 0x1C
                 _scale1_array:
0002c0           	.BYTE 0x1C
                 _scale2_array:
0002dc           	.BYTE 0x1C
                 _buffer4:
0002f8           	.BYTE 0x4
                 _buffer:
0002fc           	.BYTE 0x20
                 _str1:
00031c           	.BYTE 0x8
                 _rx_buffer:
000324           	.BYTE 0x18
                 __base_y_G100:
00033c           	.BYTE 0x4
                 __seed_G102:
000340           	.BYTE 0x4
                 
                 	.CSEG
                 ;OPTIMIZER ADDED SUBROUTINE, CALLED 2 TIMES, CODE SIZE REDUCTION:3 WORDS
                 SUBOPT_0x0:
0019fa 91e0 0290 	LDS  R30,_scale1
0019fc 91f0 0291 	LDS  R31,_scale1+1
0019fe 9160 0292 	LDS  R22,_scale1+2
001a00 9170 0293 	LDS  R23,_scale1+3
001a02 9508      	RET
                 
                 ;OPTIMIZER ADDED SUBROUTINE, CALLED 4 TIMES, CODE SIZE REDUCTION:15 WORDS
                 SUBOPT_0x1:
001a03 91e0 0284 	LDS  R30,_scale_total
001a05 91f0 0285 	LDS  R31,_scale_total+1
001a07 9160 0286 	LDS  R22,_scale_total+2
001a09 9170 0287 	LDS  R23,_scale_total+3
001a0b 9508      	RET
                 
                 ;OPTIMIZER ADDED SUBROUTINE, CALLED 3 TIMES, CODE SIZE REDUCTION:1 WORDS
                 SUBOPT_0x2:
001a0c 940e 1cfe 	CALL __ADDF12
001a0e 01df      	MOVW R26,R30
001a0f 01cb      	MOVW R24,R22
001a10 9508      	RET
                 
                 ;OPTIMIZER ADDED SUBROUTINE, CALLED 4 TIMES, CODE SIZE REDUCTION:3 WORDS
                 SUBOPT_0x3:
001a11 940e 1e2c 	CALL __CWD1
001a13 940e 1cc4 	CALL __CDF1
001a15 9508      	RET
                 
                 ;OPTIMIZER ADDED SUBROUTINE, CALLED 3 TIMES, CODE SIZE REDUCTION:3 WORDS
                 SUBOPT_0x4:
001a16 e0e0      	LDI  R30,LOW(0)
                +
001a17 83e9     +STD Y + 1 , R30
001a18 83ea     +STD Y + 1 + 1 , R30
001a19 83eb     +STD Y + 1 + 2 , R30
001a1a 83ec     +STD Y + 1 + 3 , R30
                 	__CLRD1S 1
001a1b 9508      	RET
                 
                 ;OPTIMIZER ADDED SUBROUTINE, CALLED 9 TIMES, CODE SIZE REDUCTION:13 WORDS
                 SUBOPT_0x5:
                +
001a1c 81e9     +LDD R30 , Y + 1
001a1d 81fa     +LDD R31 , Y + 1 + 1
001a1e 816b     +LDD R22 , Y + 1 + 2
001a1f 817c     +LDD R23 , Y + 1 + 3
                 	__GETD1S 1
001a20 9508      	RET
                 
                 ;OPTIMIZER ADDED SUBROUTINE, CALLED 3 TIMES, CODE SIZE REDUCTION:5 WORDS
                 SUBOPT_0x6:
001a21 940e 1e21 	CALL __LSLD1
                +
001a23 83e9     +STD Y + 1 , R30
001a24 83fa     +STD Y + 1 + 1 , R31
001a25 836b     +STD Y + 1 + 2 , R22
001a26 837c     +STD Y + 1 + 3 , R23
                 	__PUTD1S 1
001a27 9508      	RET
                 
                 ;OPTIMIZER ADDED SUBROUTINE, CALLED 3 TIMES, CODE SIZE REDUCTION:13 WORDS
                 SUBOPT_0x7:
001a28 dff3      	RCALL SUBOPT_0x5
                +
001a29 5fef     +SUBI R30 , LOW ( - 1 )
001a2a 4fff     +SBCI R31 , HIGH ( - 1 )
001a2b 4f6f     +SBCI R22 , BYTE3 ( - 1 )
001a2c 4f7f     +SBCI R23 , BYTE4 ( - 1 )
                 	__SUBD1N -1
                +
001a2d 83e9     +STD Y + 1 , R30
001a2e 83fa     +STD Y + 1 + 1 , R31
001a2f 836b     +STD Y + 1 + 2 , R22
001a30 837c     +STD Y + 1 + 3 , R23
                 	__PUTD1S 1
001a31 9508      	RET
                 
                 ;OPTIMIZER ADDED SUBROUTINE, CALLED 3 TIMES, CODE SIZE REDUCTION:21 WORDS
                 SUBOPT_0x8:
                +
001a32 81a9     +LDD R26 , Y + 1
001a33 81ba     +LDD R27 , Y + 1 + 1
001a34 818b     +LDD R24 , Y + 1 + 2
001a35 819c     +LDD R25 , Y + 1 + 3
                 	__GETD2S 1
                +
001a36 e0e0     +LDI R30 , LOW ( 0x800000 )
001a37 e0f0     +LDI R31 , HIGH ( 0x800000 )
001a38 e860     +LDI R22 , BYTE3 ( 0x800000 )
001a39 e070     +LDI R23 , BYTE4 ( 0x800000 )
                 	__GETD1N 0x800000
001a3a 940e 1e0f 	CALL __XORD12
                +
001a3c 83e9     +STD Y + 1 , R30
001a3d 83fa     +STD Y + 1 + 1 , R31
001a3e 836b     +STD Y + 1 + 2 , R22
001a3f 837c     +STD Y + 1 + 3 , R23
                 	__PUTD1S 1
001a40 9508      	RET
                 
                 ;OPTIMIZER ADDED SUBROUTINE, CALLED 2 TIMES, CODE SIZE REDUCTION:4 WORDS
                 SUBOPT_0x9:
001a41 e0e0      	LDI  R30,LOW(0)
001a42 93e0 0278 	STS  _HX711_Buffer,R30
001a44 93e0 0279 	STS  _HX711_Buffer+1,R30
001a46 93e0 027a 	STS  _HX711_Buffer+2,R30
001a48 93e0 027b 	STS  _HX711_Buffer+3,R30
001a4a 9508      	RET
                 
                 ;OPTIMIZER ADDED SUBROUTINE, CALLED 4 TIMES, CODE SIZE REDUCTION:15 WORDS
                 SUBOPT_0xA:
001a4b 93e0 0278 	STS  _HX711_Buffer,R30
001a4d 93f0 0279 	STS  _HX711_Buffer+1,R31
001a4f 9360 027a 	STS  _HX711_Buffer+2,R22
001a51 9370 027b 	STS  _HX711_Buffer+3,R23
001a53 9508      	RET
                 
                 ;OPTIMIZER ADDED SUBROUTINE, CALLED 4 TIMES, CODE SIZE REDUCTION:15 WORDS
                 SUBOPT_0xB:
001a54 91a0 0278 	LDS  R26,_HX711_Buffer
001a56 91b0 0279 	LDS  R27,_HX711_Buffer+1
001a58 9180 027a 	LDS  R24,_HX711_Buffer+2
001a5a 9190 027b 	LDS  R25,_HX711_Buffer+3
001a5c 9508      	RET
                 
                 ;OPTIMIZER ADDED SUBROUTINE, CALLED 6 TIMES, CODE SIZE REDUCTION:17 WORDS
                 SUBOPT_0xC:
                +
001a5d e6e4     +LDI R30 , LOW ( 0x64 )
001a5e e0f0     +LDI R31 , HIGH ( 0x64 )
001a5f e060     +LDI R22 , BYTE3 ( 0x64 )
001a60 e070     +LDI R23 , BYTE4 ( 0x64 )
                 	__GETD1N 0x64
001a61 940e 1e6f 	CALL __DIVD21
001a63 9508      	RET
                 
                 ;OPTIMIZER ADDED SUBROUTINE, CALLED 2 TIMES, CODE SIZE REDUCTION:3 WORDS
                 SUBOPT_0xD:
001a64 93e0 0260 	STS  _Weight_Shiwu,R30
001a66 93f0 0261 	STS  _Weight_Shiwu+1,R31
001a68 9360 0262 	STS  _Weight_Shiwu+2,R22
001a6a 9370 0263 	STS  _Weight_Shiwu+3,R23
001a6c 9508      	RET
                 
                 ;OPTIMIZER ADDED SUBROUTINE, CALLED 3 TIMES, CODE SIZE REDUCTION:9 WORDS
                 SUBOPT_0xE:
001a6d 91e0 0260 	LDS  R30,_Weight_Shiwu
001a6f 91f0 0261 	LDS  R31,_Weight_Shiwu+1
001a71 9160 0262 	LDS  R22,_Weight_Shiwu+2
001a73 9170 0263 	LDS  R23,_Weight_Shiwu+3
001a75 9508      	RET
                 
                 ;OPTIMIZER ADDED SUBROUTINE, CALLED 2 TIMES, CODE SIZE REDUCTION:1 WORDS
                 SUBOPT_0xF:
001a76 dff6      	RCALL SUBOPT_0xE
001a77 940e 1cc4 	CALL __CDF1
001a79 01df      	MOVW R26,R30
001a7a 01cb      	MOVW R24,R22
001a7b 9508      	RET
                 
                 ;OPTIMIZER ADDED SUBROUTINE, CALLED 3 TIMES, CODE SIZE REDUCTION:5 WORDS
                 SUBOPT_0x10:
                +
001a7c e4ed     +LDI R30 , LOW ( 0x3EB8A04D )
001a7d eaf0     +LDI R31 , HIGH ( 0x3EB8A04D )
001a7e eb68     +LDI R22 , BYTE3 ( 0x3EB8A04D )
001a7f e37e     +LDI R23 , BYTE4 ( 0x3EB8A04D )
                 	__GETD1N 0x3EB8A04D
001a80 940e 1d9c 	CALL __DIVF21
001a82 9508      	RET
                 
                 ;OPTIMIZER ADDED SUBROUTINE, CALLED 3 TIMES, CODE SIZE REDUCTION:3 WORDS
                 SUBOPT_0x11:
001a83 940e 1c8d 	CALL __CFD1
001a85 940e 1ead 	CALL __PUTDP1
001a87 01f8      	MOVW R30,R16
001a88 9508      	RET
                 
                 ;OPTIMIZER ADDED SUBROUTINE, CALLED 4 TIMES, CODE SIZE REDUCTION:3 WORDS
                 SUBOPT_0x12:
001a89 940e 1e1c 	CALL __LSLW2
001a8b 0fea      	ADD  R30,R26
001a8c 1ffb      	ADC  R31,R27
001a8d 9508      	RET
                 
                 ;OPTIMIZER ADDED SUBROUTINE, CALLED 3 TIMES, CODE SIZE REDUCTION:5 WORDS
                 SUBOPT_0x13:
                +
001a8e e0e0     +LDI R30 , LOW ( 0x41F00000 )
001a8f e0f0     +LDI R31 , HIGH ( 0x41F00000 )
001a90 ef60     +LDI R22 , BYTE3 ( 0x41F00000 )
001a91 e471     +LDI R23 , BYTE4 ( 0x41F00000 )
                 	__GETD1N 0x41F00000
001a92 940e 1d9c 	CALL __DIVF21
001a94 9508      	RET
                 
                 ;OPTIMIZER ADDED SUBROUTINE, CALLED 2 TIMES, CODE SIZE REDUCTION:4 WORDS
                 SUBOPT_0x14:
001a95 e0e0      	LDI  R30,LOW(0)
001a96 93e0 027c 	STS  _HX711_Buffer1,R30
001a98 93e0 027d 	STS  _HX711_Buffer1+1,R30
001a9a 93e0 027e 	STS  _HX711_Buffer1+2,R30
001a9c 93e0 027f 	STS  _HX711_Buffer1+3,R30
001a9e 9508      	RET
                 
                 ;OPTIMIZER ADDED SUBROUTINE, CALLED 4 TIMES, CODE SIZE REDUCTION:15 WORDS
                 SUBOPT_0x15:
001a9f 93e0 027c 	STS  _HX711_Buffer1,R30
001aa1 93f0 027d 	STS  _HX711_Buffer1+1,R31
001aa3 9360 027e 	STS  _HX711_Buffer1+2,R22
001aa5 9370 027f 	STS  _HX711_Buffer1+3,R23
001aa7 9508      	RET
                 
                 ;OPTIMIZER ADDED SUBROUTINE, CALLED 4 TIMES, CODE SIZE REDUCTION:15 WORDS
                 SUBOPT_0x16:
001aa8 91a0 027c 	LDS  R26,_HX711_Buffer1
001aaa 91b0 027d 	LDS  R27,_HX711_Buffer1+1
001aac 9180 027e 	LDS  R24,_HX711_Buffer1+2
001aae 9190 027f 	LDS  R25,_HX711_Buffer1+3
001ab0 9508      	RET
                 
                 ;OPTIMIZER ADDED SUBROUTINE, CALLED 2 TIMES, CODE SIZE REDUCTION:3 WORDS
                 SUBOPT_0x17:
001ab1 93e0 0268 	STS  _Weight_Shiwu1,R30
001ab3 93f0 0269 	STS  _Weight_Shiwu1+1,R31
001ab5 9360 026a 	STS  _Weight_Shiwu1+2,R22
001ab7 9370 026b 	STS  _Weight_Shiwu1+3,R23
001ab9 9508      	RET
                 
                 ;OPTIMIZER ADDED SUBROUTINE, CALLED 3 TIMES, CODE SIZE REDUCTION:9 WORDS
                 SUBOPT_0x18:
001aba 91e0 0268 	LDS  R30,_Weight_Shiwu1
001abc 91f0 0269 	LDS  R31,_Weight_Shiwu1+1
001abe 9160 026a 	LDS  R22,_Weight_Shiwu1+2
001ac0 9170 026b 	LDS  R23,_Weight_Shiwu1+3
001ac2 9508      	RET
                 
                 ;OPTIMIZER ADDED SUBROUTINE, CALLED 2 TIMES, CODE SIZE REDUCTION:1 WORDS
                 SUBOPT_0x19:
001ac3 dff6      	RCALL SUBOPT_0x18
001ac4 940e 1cc4 	CALL __CDF1
001ac6 01df      	MOVW R26,R30
001ac7 01cb      	MOVW R24,R22
001ac8 9508      	RET
                 
                 ;OPTIMIZER ADDED SUBROUTINE, CALLED 2 TIMES, CODE SIZE REDUCTION:4 WORDS
                 SUBOPT_0x1A:
001ac9 e0e0      	LDI  R30,LOW(0)
001aca 93e0 0280 	STS  _HX711_Buffer2,R30
001acc 93e0 0281 	STS  _HX711_Buffer2+1,R30
001ace 93e0 0282 	STS  _HX711_Buffer2+2,R30
001ad0 93e0 0283 	STS  _HX711_Buffer2+3,R30
001ad2 9508      	RET
                 
                 ;OPTIMIZER ADDED SUBROUTINE, CALLED 4 TIMES, CODE SIZE REDUCTION:15 WORDS
                 SUBOPT_0x1B:
001ad3 93e0 0280 	STS  _HX711_Buffer2,R30
001ad5 93f0 0281 	STS  _HX711_Buffer2+1,R31
001ad7 9360 0282 	STS  _HX711_Buffer2+2,R22
001ad9 9370 0283 	STS  _HX711_Buffer2+3,R23
001adb 9508      	RET
                 
                 ;OPTIMIZER ADDED SUBROUTINE, CALLED 4 TIMES, CODE SIZE REDUCTION:15 WORDS
                 SUBOPT_0x1C:
001adc 91a0 0280 	LDS  R26,_HX711_Buffer2
001ade 91b0 0281 	LDS  R27,_HX711_Buffer2+1
001ae0 9180 0282 	LDS  R24,_HX711_Buffer2+2
001ae2 9190 0283 	LDS  R25,_HX711_Buffer2+3
001ae4 9508      	RET
                 
                 ;OPTIMIZER ADDED SUBROUTINE, CALLED 2 TIMES, CODE SIZE REDUCTION:3 WORDS
                 SUBOPT_0x1D:
001ae5 93e0 0270 	STS  _Weight_Shiwu2,R30
001ae7 93f0 0271 	STS  _Weight_Shiwu2+1,R31
001ae9 9360 0272 	STS  _Weight_Shiwu2+2,R22
001aeb 9370 0273 	STS  _Weight_Shiwu2+3,R23
001aed 9508      	RET
                 
                 ;OPTIMIZER ADDED SUBROUTINE, CALLED 3 TIMES, CODE SIZE REDUCTION:9 WORDS
                 SUBOPT_0x1E:
001aee 91e0 0270 	LDS  R30,_Weight_Shiwu2
001af0 91f0 0271 	LDS  R31,_Weight_Shiwu2+1
001af2 9160 0272 	LDS  R22,_Weight_Shiwu2+2
001af4 9170 0273 	LDS  R23,_Weight_Shiwu2+3
001af6 9508      	RET
                 
                 ;OPTIMIZER ADDED SUBROUTINE, CALLED 2 TIMES, CODE SIZE REDUCTION:1 WORDS
                 SUBOPT_0x1F:
001af7 dff6      	RCALL SUBOPT_0x1E
001af8 940e 1cc4 	CALL __CDF1
001afa 01df      	MOVW R26,R30
001afb 01cb      	MOVW R24,R22
001afc 9508      	RET
                 
                 ;OPTIMIZER ADDED SUBROUTINE, CALLED 3 TIMES, CODE SIZE REDUCTION:5 WORDS
                 SUBOPT_0x20:
001afd 93fa      	ST   -Y,R31
001afe 93ea      	ST   -Y,R30
001aff e0a7      	LDI  R26,LOW(7)
001b00 e0b0      	LDI  R27,0
001b01 940c 1434 	JMP  _sort_array
                 
                 ;OPTIMIZER ADDED SUBROUTINE, CALLED 2 TIMES, CODE SIZE REDUCTION:3 WORDS
                 SUBOPT_0x21:
001b03 91a0 0298 	LDS  R26,_scale_sum
001b05 91b0 0299 	LDS  R27,_scale_sum+1
001b07 9180 029a 	LDS  R24,_scale_sum+2
001b09 9190 029b 	LDS  R25,_scale_sum+3
001b0b 9508      	RET
                 
                 ;OPTIMIZER ADDED SUBROUTINE, CALLED 2 TIMES, CODE SIZE REDUCTION:3 WORDS
                 SUBOPT_0x22:
001b0c 91a0 029c 	LDS  R26,_scale1_sum
001b0e 91b0 029d 	LDS  R27,_scale1_sum+1
001b10 9180 029e 	LDS  R24,_scale1_sum+2
001b12 9190 029f 	LDS  R25,_scale1_sum+3
001b14 9508      	RET
                 
                 ;OPTIMIZER ADDED SUBROUTINE, CALLED 2 TIMES, CODE SIZE REDUCTION:3 WORDS
                 SUBOPT_0x23:
001b15 91a0 02a0 	LDS  R26,_scale2_sum
001b17 91b0 02a1 	LDS  R27,_scale2_sum+1
001b19 9180 02a2 	LDS  R24,_scale2_sum+2
001b1b 9190 02a3 	LDS  R25,_scale2_sum+3
001b1d 9508      	RET
                 
                 ;OPTIMIZER ADDED SUBROUTINE, CALLED 3 TIMES, CODE SIZE REDUCTION:5 WORDS
                 SUBOPT_0x24:
                +
001b1e e0e0     +LDI R30 , LOW ( 0x40000000 )
001b1f e0f0     +LDI R31 , HIGH ( 0x40000000 )
001b20 e060     +LDI R22 , BYTE3 ( 0x40000000 )
001b21 e470     +LDI R23 , BYTE4 ( 0x40000000 )
                 	__GETD1N 0x40000000
001b22 940e 1d9c 	CALL __DIVF21
001b24 9508      	RET
                 
                 ;OPTIMIZER ADDED SUBROUTINE, CALLED 3 TIMES, CODE SIZE REDUCTION:1 WORDS
                 SUBOPT_0x25:
001b25 931a      	ST   -Y,R17
001b26 930a      	ST   -Y,R16
                +
001b27 e000     +LDI R16 , LOW ( 0 )
001b28 e010     +LDI R17 , HIGH ( 0 )
                 	__GETWRN 16,17,0
001b29 9508      	RET
                 
                 ;OPTIMIZER ADDED SUBROUTINE, CALLED 3 TIMES, CODE SIZE REDUCTION:1 WORDS
                 SUBOPT_0x26:
                +
001b2a ee88     +LDI R24 , LOW ( 1000 )
001b2b e093     +LDI R25 , HIGH ( 1000 )
                +__DELAY_USW_LOOP :
001b2c 9701     +SBIW R24 , 1
001b2d f7f1     +BRNE __DELAY_USW_LOOP
                 	__DELAY_USW 1000
001b2e 9508      	RET
                 
                 ;OPTIMIZER ADDED SUBROUTINE, CALLED 3 TIMES, CODE SIZE REDUCTION:5 WORDS
                 SUBOPT_0x27:
                +
001b2f e0ea     +LDI R30 , LOW ( 0xA )
001b30 e0f0     +LDI R31 , HIGH ( 0xA )
001b31 e060     +LDI R22 , BYTE3 ( 0xA )
001b32 e070     +LDI R23 , BYTE4 ( 0xA )
                 	__GETD1N 0xA
001b33 940e 1e6f 	CALL __DIVD21
001b35 9508      	RET
                 
                 ;OPTIMIZER ADDED SUBROUTINE, CALLED 2 TIMES, CODE SIZE REDUCTION:3 WORDS
                 SUBOPT_0x28:
001b36 81ae      	LDD  R26,Y+6
001b37 81bf      	LDD  R27,Y+6+1
001b38 940e 1e1c 	CALL __LSLW2
001b3a 0fae      	ADD  R26,R30
001b3b 1fbf      	ADC  R27,R31
001b3c 940e 1ea7 	CALL __GETD1P
001b3e 9508      	RET
                 
                 ;OPTIMIZER ADDED SUBROUTINE, CALLED 3 TIMES, CODE SIZE REDUCTION:5 WORDS
                 SUBOPT_0x29:
001b3f 85a8      	LDD  R26,Y+8
001b40 85b9      	LDD  R27,Y+8+1
001b41 940e 1e1c 	CALL __LSLW2
001b43 0fae      	ADD  R26,R30
001b44 1fbf      	ADC  R27,R31
001b45 9508      	RET
                 
                 ;OPTIMIZER ADDED SUBROUTINE, CALLED 2 TIMES, CODE SIZE REDUCTION:1 WORDS
                 SUBOPT_0x2A:
001b46 940e 14a9 	CALL __lcd_write_data
001b48 e0a3      	LDI  R26,LOW(3)
001b49 e0b0      	LDI  R27,0
001b4a 940c 1c4e 	JMP  _delay_ms
                 
                 ;OPTIMIZER ADDED SUBROUTINE, CALLED 2 TIMES, CODE SIZE REDUCTION:2 WORDS
                 SUBOPT_0x2B:
001b4c 81a9      	LDD  R26,Y+1
001b4d 81ba      	LDD  R27,Y+1+1
001b4e 91ed      	LD   R30,X+
001b4f 83a9      	STD  Y+1,R26
001b50 83ba      	STD  Y+1+1,R27
001b51 2f1e      	MOV  R17,R30
001b52 30e0      	CPI  R30,0
001b53 9508      	RET
                 
                 ;OPTIMIZER ADDED SUBROUTINE, CALLED 3 TIMES, CODE SIZE REDUCTION:7 WORDS
                 SUBOPT_0x2C:
001b54 e3a0      	LDI  R26,LOW(48)
001b55 940e 1494 	CALL __lcd_write_nibble_G100
                +
001b57 ec88     +LDI R24 , LOW ( 200 )
001b58 e090     +LDI R25 , HIGH ( 200 )
                +__DELAY_USW_LOOP :
001b59 9701     +SBIW R24 , 1
001b5a f7f1     +BRNE __DELAY_USW_LOOP
                 	__DELAY_USW 200
001b5b 9508      	RET
                 
                 ;OPTIMIZER ADDED SUBROUTINE, CALLED 3 TIMES, CODE SIZE REDUCTION:3 WORDS
                 SUBOPT_0x2D:
001b5c 91ed      	LD   R30,X+
001b5d 91fd      	LD   R31,X+
001b5e 9631      	ADIW R30,1
001b5f 93fe      	ST   -X,R31
001b60 93ee      	ST   -X,R30
001b61 9508      	RET
                 
                 ;OPTIMIZER ADDED SUBROUTINE, CALLED 2 TIMES, CODE SIZE REDUCTION:2 WORDS
                 SUBOPT_0x2E:
001b62 93ba      	ST   -Y,R27
001b63 93aa      	ST   -Y,R26
001b64 9724      	SBIW R28,4
001b65 e0e0      	LDI  R30,LOW(0)
001b66 83e8      	ST   Y,R30
001b67 83e9      	STD  Y+1,R30
001b68 9508      	RET
                 
                 ;OPTIMIZER ADDED SUBROUTINE, CALLED 4 TIMES, CODE SIZE REDUCTION:33 WORDS
                 SUBOPT_0x2F:
                +
001b69 81ac     +LDD R26 , Y + 4
001b6a 81bd     +LDD R27 , Y + 4 + 1
001b6b 818e     +LDD R24 , Y + 4 + 2
001b6c 819f     +LDD R25 , Y + 4 + 3
                 	__GETD2S 4
                +
001b6d e0e0     +LDI R30 , LOW ( 0x41200000 )
001b6e e0f0     +LDI R31 , HIGH ( 0x41200000 )
001b6f e260     +LDI R22 , BYTE3 ( 0x41200000 )
001b70 e471     +LDI R23 , BYTE4 ( 0x41200000 )
                 	__GETD1N 0x41200000
001b71 940e 1d4e 	CALL __MULF12
                +
001b73 83ec     +STD Y + 4 , R30
001b74 83fd     +STD Y + 4 + 1 , R31
001b75 836e     +STD Y + 4 + 2 , R22
001b76 837f     +STD Y + 4 + 3 , R23
                 	__PUTD1S 4
001b77 9508      	RET
                 
                 ;OPTIMIZER ADDED SUBROUTINE, CALLED 4 TIMES, CODE SIZE REDUCTION:21 WORDS
                 SUBOPT_0x30:
                +
001b78 81ec     +LDD R30 , Y + 4
001b79 81fd     +LDD R31 , Y + 4 + 1
001b7a 816e     +LDD R22 , Y + 4 + 2
001b7b 817f     +LDD R23 , Y + 4 + 3
                 	__GETD1S 4
                +
001b7c 85ac     +LDD R26 , Y + 12
001b7d 85bd     +LDD R27 , Y + 12 + 1
001b7e 858e     +LDD R24 , Y + 12 + 2
001b7f 859f     +LDD R25 , Y + 12 + 3
                 	__GETD2S 12
001b80 940e 1de1 	CALL __CMPF12
001b82 9508      	RET
                 
                 ;OPTIMIZER ADDED SUBROUTINE, CALLED 5 TIMES, CODE SIZE REDUCTION:5 WORDS
                 SUBOPT_0x31:
                +
001b83 85ac     +LDD R26 , Y + 12
001b84 85bd     +LDD R27 , Y + 12 + 1
001b85 858e     +LDD R24 , Y + 12 + 2
001b86 859f     +LDD R25 , Y + 12 + 3
                 	__GETD2S 12
001b87 9508      	RET
                 
                 ;OPTIMIZER ADDED SUBROUTINE, CALLED 2 TIMES, CODE SIZE REDUCTION:6 WORDS
                 SUBOPT_0x32:
                +
001b88 eced     +LDI R30 , LOW ( 0x3DCCCCCD )
001b89 ecfc     +LDI R31 , HIGH ( 0x3DCCCCCD )
001b8a ec6c     +LDI R22 , BYTE3 ( 0x3DCCCCCD )
001b8b e37d     +LDI R23 , BYTE4 ( 0x3DCCCCCD )
                 	__GETD1N 0x3DCCCCCD
001b8c 940e 1d4e 	CALL __MULF12
                +
001b8e 87ec     +STD Y + 12 , R30
001b8f 87fd     +STD Y + 12 + 1 , R31
001b90 876e     +STD Y + 12 + 2 , R22
001b91 877f     +STD Y + 12 + 3 , R23
                 	__PUTD1S 12
001b92 5f3f      	SUBI R19,-LOW(1)
001b93 9508      	RET
                 
                 ;OPTIMIZER ADDED SUBROUTINE, CALLED 3 TIMES, CODE SIZE REDUCTION:5 WORDS
                 SUBOPT_0x33:
                +
001b94 e0e0     +LDI R30 , LOW ( 0x41200000 )
001b95 e0f0     +LDI R31 , HIGH ( 0x41200000 )
001b96 e260     +LDI R22 , BYTE3 ( 0x41200000 )
001b97 e471     +LDI R23 , BYTE4 ( 0x41200000 )
                 	__GETD1N 0x41200000
001b98 940e 1d4e 	CALL __MULF12
001b9a 9508      	RET
                 
                 ;OPTIMIZER ADDED SUBROUTINE, CALLED 3 TIMES, CODE SIZE REDUCTION:1 WORDS
                 SUBOPT_0x34:
                +
001b9b 87ec     +STD Y + 12 , R30
001b9c 87fd     +STD Y + 12 + 1 , R31
001b9d 876e     +STD Y + 12 + 2 , R22
001b9e 877f     +STD Y + 12 + 3 , R23
                 	__PUTD1S 12
001b9f 9508      	RET
                 
                 ;OPTIMIZER ADDED SUBROUTINE, CALLED 3 TIMES, CODE SIZE REDUCTION:1 WORDS
                 SUBOPT_0x35:
                +
001ba0 e0a0     +LDI R26 , LOW ( 0x3F000000 )
001ba1 e0b0     +LDI R27 , HIGH ( 0x3F000000 )
001ba2 e080     +LDI R24 , BYTE3 ( 0x3F000000 )
001ba3 e39f     +LDI R25 , BYTE4 ( 0x3F000000 )
                 	__GETD2N 0x3F000000
001ba4 9508      	RET
                 
                 ;OPTIMIZER ADDED SUBROUTINE, CALLED 3 TIMES, CODE SIZE REDUCTION:5 WORDS
                 SUBOPT_0x36:
                +
001ba5 eced     +LDI R30 , LOW ( 0x3DCCCCCD )
001ba6 ecfc     +LDI R31 , HIGH ( 0x3DCCCCCD )
001ba7 ec6c     +LDI R22 , BYTE3 ( 0x3DCCCCCD )
001ba8 e37d     +LDI R23 , BYTE4 ( 0x3DCCCCCD )
                 	__GETD1N 0x3DCCCCCD
001ba9 940e 1d4e 	CALL __MULF12
001bab 9508      	RET
                 
                 ;OPTIMIZER ADDED SUBROUTINE, CALLED 2 TIMES, CODE SIZE REDUCTION:1 WORDS
                 SUBOPT_0x37:
001bac 85a8      	LDD  R26,Y+8
001bad 85b9      	LDD  R27,Y+8+1
001bae 9611      	ADIW R26,1
001baf 87a8      	STD  Y+8,R26
001bb0 87b9      	STD  Y+8+1,R27
001bb1 9711      	SBIW R26,1
001bb2 9508      	RET
                 
                 ;OPTIMIZER ADDED SUBROUTINE, CALLED 3 TIMES, CODE SIZE REDUCTION:1 WORDS
                 SUBOPT_0x38:
001bb3 2fe0      	MOV  R30,R16
001bb4 5de0      	SUBI R30,-LOW(48)
001bb5 93ec      	ST   X,R30
001bb6 2fe0      	MOV  R30,R16
001bb7 9508      	RET
                 
                 ;OPTIMIZER ADDED SUBROUTINE, CALLED 3 TIMES, CODE SIZE REDUCTION:1 WORDS
                 SUBOPT_0x39:
001bb8 940e 1ecf 	CALL __SWAPD12
001bba 940e 1cf7 	CALL __SUBF12
001bbc 9508      	RET
                 
                 ;OPTIMIZER ADDED SUBROUTINE, CALLED 4 TIMES, CODE SIZE REDUCTION:6 WORDS
                 SUBOPT_0x3A:
001bbd 85e8      	LDD  R30,Y+8
001bbe 85f9      	LDD  R31,Y+8+1
001bbf 9631      	ADIW R30,1
001bc0 87e8      	STD  Y+8,R30
001bc1 87f9      	STD  Y+8+1,R31
001bc2 9508      	RET
                 
                 ;OPTIMIZER ADDED SUBROUTINE, CALLED 5 TIMES, CODE SIZE REDUCTION:13 WORDS
                 SUBOPT_0x3B:
001bc3 932a      	ST   -Y,R18
001bc4 81af      	LDD  R26,Y+7
001bc5 85b8      	LDD  R27,Y+7+1
001bc6 85e9      	LDD  R30,Y+9
001bc7 85fa      	LDD  R31,Y+9+1
001bc8 9509      	ICALL
001bc9 9508      	RET
                 
                 ;OPTIMIZER ADDED SUBROUTINE, CALLED 8 TIMES, CODE SIZE REDUCTION:25 WORDS
                 SUBOPT_0x3C:
                +
001bca 01fe     +MOVW R30 , R28
001bcb 5ae6     +SUBI R30 , LOW ( - 90 )
001bcc 4fff     +SBCI R31 , HIGH ( - 90 )
001bcd 9001     +LD R0 , Z +
001bce 81f0     +LD R31 , Z
001bcf 2de0     +MOV R30 , R0
                 	__GETW1SX 90
001bd0 9508      	RET
                 
                 ;OPTIMIZER ADDED SUBROUTINE, CALLED 7 TIMES, CODE SIZE REDUCTION:21 WORDS
                 SUBOPT_0x3D:
001bd1 9734      	SBIW R30,4
                +
001bd2 01de     +MOVW R26 , R28
001bd3 5aa6     +SUBI R26 , LOW ( - 90 )
001bd4 4fbf     +SBCI R27 , HIGH ( - 90 )
001bd5 93ed     +ST X + , R30
001bd6 93fc     +ST X , R31
                 	__PUTW1SX 90
001bd7 9508      	RET
                 
                 ;OPTIMIZER ADDED SUBROUTINE, CALLED 4 TIMES, CODE SIZE REDUCTION:6 WORDS
                 SUBOPT_0x3E:
001bd8 81af      	LDD  R26,Y+7
001bd9 85b8      	LDD  R27,Y+7+1
001bda 85e9      	LDD  R30,Y+9
001bdb 85fa      	LDD  R31,Y+9+1
001bdc 9509      	ICALL
001bdd 9508      	RET
                 
                 ;OPTIMIZER ADDED SUBROUTINE, CALLED 6 TIMES, CODE SIZE REDUCTION:17 WORDS
                 SUBOPT_0x3F:
                +
001bde 01de     +MOVW R26 , R28
001bdf 5aa6     +SUBI R26 , LOW ( - 90 )
001be0 4fbf     +SBCI R27 , HIGH ( - 90 )
001be1 900d     +LD R0 , X +
001be2 91bc     +LD R27 , X
001be3 2da0     +MOV R26 , R0
                 	__GETW2SX 90
001be4 9508      	RET
                 
                 ;OPTIMIZER ADDED SUBROUTINE, CALLED 4 TIMES, CODE SIZE REDUCTION:3 WORDS
                 SUBOPT_0x40:
                +
001be5 87ea     +STD Y + 10 , R30
001be6 87fb     +STD Y + 10 + 1 , R31
001be7 876c     +STD Y + 10 + 2 , R22
001be8 877d     +STD Y + 10 + 3 , R23
                 	__PUTD1S 10
001be9 9508      	RET
                 
                 ;OPTIMIZER ADDED SUBROUTINE, CALLED 6 TIMES, CODE SIZE REDUCTION:7 WORDS
                 SUBOPT_0x41:
001bea dfdf      	RCALL SUBOPT_0x3C
001beb cfe5      	RJMP SUBOPT_0x3D
                 
                 ;OPTIMIZER ADDED SUBROUTINE, CALLED 4 TIMES, CODE SIZE REDUCTION:3 WORDS
                 SUBOPT_0x42:
                +
001bec 85ea     +LDD R30 , Y + 10
001bed 85fb     +LDD R31 , Y + 10 + 1
001bee 856c     +LDD R22 , Y + 10 + 2
001bef 857d     +LDD R23 , Y + 10 + 3
                 	__GETD1S 10
001bf0 9508      	RET
                 
                 ;OPTIMIZER ADDED SUBROUTINE, CALLED 2 TIMES, CODE SIZE REDUCTION:2 WORDS
                 SUBOPT_0x43:
001bf1 87ee      	STD  Y+14,R30
001bf2 87ff      	STD  Y+14+1,R31
001bf3 85ae      	LDD  R26,Y+14
001bf4 85bf      	LDD  R27,Y+14+1
001bf5 940e 1999 	CALL _strlen
001bf7 2f1e      	MOV  R17,R30
001bf8 9508      	RET
                 
                 ;OPTIMIZER ADDED SUBROUTINE, CALLED 4 TIMES, CODE SIZE REDUCTION:6 WORDS
                 SUBOPT_0x44:
001bf9 dfe4      	RCALL SUBOPT_0x3F
001bfa 9614      	ADIW R26,4
001bfb 940e 1ea3 	CALL __GETW1P
001bfd 9508      	RET
                 
                 ;OPTIMIZER ADDED SUBROUTINE, CALLED 5 TIMES, CODE SIZE REDUCTION:5 WORDS
                 SUBOPT_0x45:
                +
001bfe 8be8     +STD Y + 16 , R30
001bff 8bf9     +STD Y + 16 + 1 , R31
001c00 8b6a     +STD Y + 16 + 2 , R22
001c01 8b7b     +STD Y + 16 + 3 , R23
                 	__PUTD1S 16
001c02 9508      	RET
                 
                 ;OPTIMIZER ADDED SUBROUTINE, CALLED 2 TIMES, CODE SIZE REDUCTION:12 WORDS
                 SUBOPT_0x46:
001c03 7f0b      	ANDI R16,LOW(251)
001c04 89ed      	LDD  R30,Y+21
001c05 93ea      	ST   -Y,R30
                +
001c06 01de     +MOVW R26 , R28
001c07 5aa9     +SUBI R26 , LOW ( - 87 )
001c08 4fbf     +SBCI R27 , HIGH ( - 87 )
001c09 900d     +LD R0 , X +
001c0a 91bc     +LD R27 , X
001c0b 2da0     +MOV R26 , R0
                 	__GETW2SX 87
                +
001c0c 01fe     +MOVW R30 , R28
001c0d 5ae7     +SUBI R30 , LOW ( - 89 )
001c0e 4fff     +SBCI R31 , HIGH ( - 89 )
001c0f 9001     +LD R0 , Z +
001c10 81f0     +LD R31 , Z
001c11 2de0     +MOV R30 , R0
                 	__GETW1SX 89
001c12 9509      	ICALL
001c13 3050      	CPI  R21,0
001c14 9508      	RET
                 
                 ;OPTIMIZER ADDED SUBROUTINE, CALLED 2 TIMES, CODE SIZE REDUCTION:3 WORDS
                 SUBOPT_0x47:
                +
001c15 89e8     +LDD R30 , Y + 16
001c16 89f9     +LDD R31 , Y + 16 + 1
001c17 896a     +LDD R22 , Y + 16 + 2
001c18 897b     +LDD R23 , Y + 16 + 3
                 	__GETD1S 16
                +
001c19 85aa     +LDD R26 , Y + 10
001c1a 85bb     +LDD R27 , Y + 10 + 1
001c1b 858c     +LDD R24 , Y + 10 + 2
001c1c 859d     +LDD R25 , Y + 10 + 3
                 	__GETD2S 10
001c1d 9508      	RET
                 
                 ;OPTIMIZER ADDED SUBROUTINE, CALLED 2 TIMES, CODE SIZE REDUCTION:1 WORDS
                 SUBOPT_0x48:
001c1e 01de      	MOVW R26,R28
001c1f 961c      	ADIW R26,12
001c20 940e 1e01 	CALL __ADDW2R15
001c22 940e 1ea3 	CALL __GETW1P
001c24 9508      	RET
                 
                 ;OPTIMIZER ADDED SUBROUTINE, CALLED 3 TIMES, CODE SIZE REDUCTION:1 WORDS
                 SUBOPT_0x49:
001c25 81ee      	LDD  R30,Y+6
001c26 81ff      	LDD  R31,Y+6+1
001c27 93fa      	ST   -Y,R31
001c28 93ea      	ST   -Y,R30
001c29 9508      	RET
                 
                 ;OPTIMIZER ADDED SUBROUTINE, CALLED 5 TIMES, CODE SIZE REDUCTION:5 WORDS
                 SUBOPT_0x4A:
                +
001c2a 87e9     +STD Y + 9 , R30
001c2b 87fa     +STD Y + 9 + 1 , R31
001c2c 876b     +STD Y + 9 + 2 , R22
001c2d 877c     +STD Y + 9 + 3 , R23
                 	__PUTD1S 9
001c2e 9508      	RET
                 
                 ;OPTIMIZER ADDED SUBROUTINE, CALLED 5 TIMES, CODE SIZE REDUCTION:13 WORDS
                 SUBOPT_0x4B:
001c2f 81ae      	LDD  R26,Y+6
001c30 81bf      	LDD  R27,Y+6+1
001c31 9611      	ADIW R26,1
001c32 83ae      	STD  Y+6,R26
001c33 83bf      	STD  Y+6+1,R27
001c34 9711      	SBIW R26,1
001c35 9508      	RET
                 
                 ;OPTIMIZER ADDED SUBROUTINE, CALLED 4 TIMES, CODE SIZE REDUCTION:3 WORDS
                 SUBOPT_0x4C:
                +
001c36 81aa     +LDD R26 , Y + 2
001c37 81bb     +LDD R27 , Y + 2 + 1
001c38 818c     +LDD R24 , Y + 2 + 2
001c39 819d     +LDD R25 , Y + 2 + 3
                 	__GETD2S 2
001c3a 9508      	RET
                 
                 ;OPTIMIZER ADDED SUBROUTINE, CALLED 4 TIMES, CODE SIZE REDUCTION:3 WORDS
                 SUBOPT_0x4D:
                +
001c3b 83ea     +STD Y + 2 , R30
001c3c 83fb     +STD Y + 2 + 1 , R31
001c3d 836c     +STD Y + 2 + 2 , R22
001c3e 837d     +STD Y + 2 + 3 , R23
                 	__PUTD1S 2
001c3f 9508      	RET
                 
                 ;OPTIMIZER ADDED SUBROUTINE, CALLED 3 TIMES, CODE SIZE REDUCTION:9 WORDS
                 SUBOPT_0x4E:
                +
001c40 81ea     +LDD R30 , Y + 2
001c41 81fb     +LDD R31 , Y + 2 + 1
001c42 816c     +LDD R22 , Y + 2 + 2
001c43 817d     +LDD R23 , Y + 2 + 3
                 	__GETD1S 2
                +
001c44 85a9     +LDD R26 , Y + 9
001c45 85ba     +LDD R27 , Y + 9 + 1
001c46 858b     +LDD R24 , Y + 9 + 2
001c47 859c     +LDD R25 , Y + 9 + 3
                 	__GETD2S 9
001c48 9508      	RET
                 
                 ;OPTIMIZER ADDED SUBROUTINE, CALLED 3 TIMES, CODE SIZE REDUCTION:1 WORDS
                 SUBOPT_0x4F:
                +
001c49 85a9     +LDD R26 , Y + 9
001c4a 85ba     +LDD R27 , Y + 9 + 1
001c4b 858b     +LDD R24 , Y + 9 + 2
001c4c 859c     +LDD R25 , Y + 9 + 3
                 	__GETD2S 9
001c4d 9508      	RET
                 
                 
                 	.CSEG
                 _delay_ms:
001c4e 9610      	adiw r26,0
001c4f f039      	breq __delay_ms1
                 __delay_ms0:
                +
001c50 ed80     +LDI R24 , LOW ( 0x7D0 )
001c51 e097     +LDI R25 , HIGH ( 0x7D0 )
                +__DELAY_USW_LOOP :
001c52 9701     +SBIW R24 , 1
001c53 f7f1     +BRNE __DELAY_USW_LOOP
                 	__DELAY_USW 0x7D0
001c54 95a8      	wdr
001c55 9711      	sbiw r26,1
001c56 f7c9      	brne __delay_ms0
                 __delay_ms1:
001c57 9508      	ret
                 
                 __ANEGF1:
001c58 9730      	SBIW R30,0
001c59 4060      	SBCI R22,0
001c5a 4070      	SBCI R23,0
001c5b f009      	BREQ __ANEGF10
001c5c 5870      	SUBI R23,0x80
                 __ANEGF10:
001c5d 9508      	RET
                 
                 __ROUND_REPACK:
001c5e 2355      	TST  R21
001c5f f442      	BRPL __REPACK
001c60 3850      	CPI  R21,0x80
001c61 f411      	BRNE __ROUND_REPACK0
001c62 ffe0      	SBRS R30,0
001c63 c004      	RJMP __REPACK
                 __ROUND_REPACK0:
001c64 9631      	ADIW R30,1
001c65 1f69      	ADC  R22,R25
001c66 1f79      	ADC  R23,R25
001c67 f06b      	BRVS __REPACK1
                 
                 __REPACK:
001c68 e850      	LDI  R21,0x80
001c69 2757      	EOR  R21,R23
001c6a f411      	BRNE __REPACK0
001c6b 935f      	PUSH R21
001c6c c0cf      	RJMP __ZERORES
                 __REPACK0:
001c6d 3f5f      	CPI  R21,0xFF
001c6e f031      	BREQ __REPACK1
001c6f 0f66      	LSL  R22
001c70 0c00      	LSL  R0
001c71 9557      	ROR  R21
001c72 9567      	ROR  R22
001c73 2f75      	MOV  R23,R21
001c74 9508      	RET
                 __REPACK1:
001c75 935f      	PUSH R21
001c76 2000      	TST  R0
001c77 f00a      	BRMI __REPACK2
001c78 c0cf      	RJMP __MAXRES
                 __REPACK2:
001c79 c0c8      	RJMP __MINRES
                 
                 __UNPACK:
001c7a e850      	LDI  R21,0x80
001c7b 2e19      	MOV  R1,R25
001c7c 2215      	AND  R1,R21
001c7d 0f88      	LSL  R24
001c7e 1f99      	ROL  R25
001c7f 2795      	EOR  R25,R21
001c80 0f55      	LSL  R21
001c81 9587      	ROR  R24
                 
                 __UNPACK1:
001c82 e850      	LDI  R21,0x80
001c83 2e07      	MOV  R0,R23
001c84 2205      	AND  R0,R21
001c85 0f66      	LSL  R22
001c86 1f77      	ROL  R23
001c87 2775      	EOR  R23,R21
001c88 0f55      	LSL  R21
001c89 9567      	ROR  R22
001c8a 9508      	RET
                 
                 __CFD1U:
001c8b 9468      	SET
001c8c c001      	RJMP __CFD1U0
                 __CFD1:
001c8d 94e8      	CLT
                 __CFD1U0:
001c8e 935f      	PUSH R21
001c8f dff2      	RCALL __UNPACK1
001c90 3870      	CPI  R23,0x80
001c91 f018      	BRLO __CFD10
001c92 3f7f      	CPI  R23,0xFF
001c93 f408      	BRCC __CFD10
001c94 c0a7      	RJMP __ZERORES
                 __CFD10:
001c95 e156      	LDI  R21,22
001c96 1b57      	SUB  R21,R23
001c97 f4aa      	BRPL __CFD11
001c98 9551      	NEG  R21
001c99 3058      	CPI  R21,8
001c9a f40e      	BRTC __CFD19
001c9b 3059      	CPI  R21,9
                 __CFD19:
001c9c f030      	BRLO __CFD17
001c9d efef      	SER  R30
001c9e efff      	SER  R31
001c9f ef6f      	SER  R22
001ca0 e77f      	LDI  R23,0x7F
001ca1 f977      	BLD  R23,7
001ca2 c01a      	RJMP __CFD15
                 __CFD17:
001ca3 2777      	CLR  R23
001ca4 2355      	TST  R21
001ca5 f0b9      	BREQ __CFD15
                 __CFD18:
001ca6 0fee      	LSL  R30
001ca7 1fff      	ROL  R31
001ca8 1f66      	ROL  R22
001ca9 1f77      	ROL  R23
001caa 955a      	DEC  R21
001cab f7d1      	BRNE __CFD18
001cac c010      	RJMP __CFD15
                 __CFD11:
001cad 2777      	CLR  R23
                 __CFD12:
001cae 3058      	CPI  R21,8
001caf f028      	BRLO __CFD13
001cb0 2fef      	MOV  R30,R31
001cb1 2ff6      	MOV  R31,R22
001cb2 2f67      	MOV  R22,R23
001cb3 5058      	SUBI R21,8
001cb4 cff9      	RJMP __CFD12
                 __CFD13:
001cb5 2355      	TST  R21
001cb6 f031      	BREQ __CFD15
                 __CFD14:
001cb7 9576      	LSR  R23
001cb8 9567      	ROR  R22
001cb9 95f7      	ROR  R31
001cba 95e7      	ROR  R30
001cbb 955a      	DEC  R21
001cbc f7d1      	BRNE __CFD14
                 __CFD15:
001cbd 2000      	TST  R0
001cbe f40a      	BRPL __CFD16
001cbf d154      	RCALL __ANEGD1
                 __CFD16:
001cc0 915f      	POP  R21
001cc1 9508      	RET
                 
                 __CDF1U:
001cc2 9468      	SET
001cc3 c001      	RJMP __CDF1U0
                 __CDF1:
001cc4 94e8      	CLT
                 __CDF1U0:
001cc5 9730      	SBIW R30,0
001cc6 4060      	SBCI R22,0
001cc7 4070      	SBCI R23,0
001cc8 f0b1      	BREQ __CDF10
001cc9 2400      	CLR  R0
001cca f026      	BRTS __CDF11
001ccb 2377      	TST  R23
001ccc f412      	BRPL __CDF11
001ccd 9400      	COM  R0
001cce d145      	RCALL __ANEGD1
                 __CDF11:
001ccf 2e17      	MOV  R1,R23
001cd0 e17e      	LDI  R23,30
001cd1 2011      	TST  R1
                 __CDF12:
001cd2 f032      	BRMI __CDF13
001cd3 957a      	DEC  R23
001cd4 0fee      	LSL  R30
001cd5 1fff      	ROL  R31
001cd6 1f66      	ROL  R22
001cd7 1c11      	ROL  R1
001cd8 cff9      	RJMP __CDF12
                 __CDF13:
001cd9 2fef      	MOV  R30,R31
001cda 2ff6      	MOV  R31,R22
001cdb 2d61      	MOV  R22,R1
001cdc 935f      	PUSH R21
001cdd df8a      	RCALL __REPACK
001cde 915f      	POP  R21
                 __CDF10:
001cdf 9508      	RET
                 
                 __SWAPACC:
001ce0 934f      	PUSH R20
001ce1 01af      	MOVW R20,R30
001ce2 01fd      	MOVW R30,R26
001ce3 01da      	MOVW R26,R20
001ce4 01ab      	MOVW R20,R22
001ce5 01bc      	MOVW R22,R24
001ce6 01ca      	MOVW R24,R20
001ce7 2d40      	MOV  R20,R0
001ce8 2c01      	MOV  R0,R1
001ce9 2e14      	MOV  R1,R20
001cea 914f      	POP  R20
001ceb 9508      	RET
                 
                 __UADD12:
001cec 0fea      	ADD  R30,R26
001ced 1ffb      	ADC  R31,R27
001cee 1f68      	ADC  R22,R24
001cef 9508      	RET
                 
                 __NEGMAN1:
001cf0 95e0      	COM  R30
001cf1 95f0      	COM  R31
001cf2 9560      	COM  R22
001cf3 5fef      	SUBI R30,-1
001cf4 4fff      	SBCI R31,-1
001cf5 4f6f      	SBCI R22,-1
001cf6 9508      	RET
                 
                 __SUBF12:
001cf7 935f      	PUSH R21
001cf8 df81      	RCALL __UNPACK
001cf9 3890      	CPI  R25,0x80
001cfa f171      	BREQ __ADDF129
001cfb e850      	LDI  R21,0x80
001cfc 2615      	EOR  R1,R21
                 
001cfd c004      	RJMP __ADDF120
                 
                 __ADDF12:
001cfe 935f      	PUSH R21
001cff df7a      	RCALL __UNPACK
001d00 3890      	CPI  R25,0x80
001d01 f139      	BREQ __ADDF129
                 
                 __ADDF120:
001d02 3870      	CPI  R23,0x80
001d03 f121      	BREQ __ADDF128
                 __ADDF121:
001d04 2f57      	MOV  R21,R23
001d05 1b59      	SUB  R21,R25
001d06 f12b      	BRVS __ADDF1211
001d07 f412      	BRPL __ADDF122
001d08 dfd7      	RCALL __SWAPACC
001d09 cffa      	RJMP __ADDF121
                 __ADDF122:
001d0a 3158      	CPI  R21,24
001d0b f018      	BRLO __ADDF123
001d0c 27aa      	CLR  R26
001d0d 27bb      	CLR  R27
001d0e 2788      	CLR  R24
                 __ADDF123:
001d0f 3058      	CPI  R21,8
001d10 f028      	BRLO __ADDF124
001d11 2fab      	MOV  R26,R27
001d12 2fb8      	MOV  R27,R24
001d13 2788      	CLR  R24
001d14 5058      	SUBI R21,8
001d15 cff9      	RJMP __ADDF123
                 __ADDF124:
001d16 2355      	TST  R21
001d17 f029      	BREQ __ADDF126
                 __ADDF125:
001d18 9586      	LSR  R24
001d19 95b7      	ROR  R27
001d1a 95a7      	ROR  R26
001d1b 955a      	DEC  R21
001d1c f7d9      	BRNE __ADDF125
                 __ADDF126:
001d1d 2d50      	MOV  R21,R0
001d1e 2551      	EOR  R21,R1
001d1f f072      	BRMI __ADDF127
001d20 dfcb      	RCALL __UADD12
001d21 f438      	BRCC __ADDF129
001d22 9567      	ROR  R22
001d23 95f7      	ROR  R31
001d24 95e7      	ROR  R30
001d25 9573      	INC  R23
001d26 f413      	BRVC __ADDF129
001d27 c020      	RJMP __MAXRES
                 __ADDF128:
001d28 dfb7      	RCALL __SWAPACC
                 __ADDF129:
001d29 df3e      	RCALL __REPACK
001d2a 915f      	POP  R21
001d2b 9508      	RET
                 __ADDF1211:
001d2c f7d8      	BRCC __ADDF128
001d2d cffb      	RJMP __ADDF129
                 __ADDF127:
001d2e 1bea      	SUB  R30,R26
001d2f 0bfb      	SBC  R31,R27
001d30 0b68      	SBC  R22,R24
001d31 f051      	BREQ __ZERORES
001d32 f410      	BRCC __ADDF1210
001d33 9400      	COM  R0
001d34 dfbb      	RCALL __NEGMAN1
                 __ADDF1210:
001d35 2366      	TST  R22
001d36 f392      	BRMI __ADDF129
001d37 0fee      	LSL  R30
001d38 1fff      	ROL  R31
001d39 1f66      	ROL  R22
001d3a 957a      	DEC  R23
001d3b f7cb      	BRVC __ADDF1210
                 
                 __ZERORES:
001d3c 27ee      	CLR  R30
001d3d 27ff      	CLR  R31
001d3e 2766      	CLR  R22
001d3f 2777      	CLR  R23
001d40 915f      	POP  R21
001d41 9508      	RET
                 
                 __MINRES:
001d42 efef      	SER  R30
001d43 efff      	SER  R31
001d44 e76f      	LDI  R22,0x7F
001d45 ef7f      	SER  R23
001d46 915f      	POP  R21
001d47 9508      	RET
                 
                 __MAXRES:
001d48 efef      	SER  R30
001d49 efff      	SER  R31
001d4a e76f      	LDI  R22,0x7F
001d4b e77f      	LDI  R23,0x7F
001d4c 915f      	POP  R21
001d4d 9508      	RET
                 
                 __MULF12:
001d4e 935f      	PUSH R21
001d4f df2a      	RCALL __UNPACK
001d50 3870      	CPI  R23,0x80
001d51 f351      	BREQ __ZERORES
001d52 3890      	CPI  R25,0x80
001d53 f341      	BREQ __ZERORES
001d54 2401      	EOR  R0,R1
001d55 9408      	SEC
001d56 1f79      	ADC  R23,R25
001d57 f423      	BRVC __MULF124
001d58 f31c      	BRLT __ZERORES
                 __MULF125:
001d59 2000      	TST  R0
001d5a f33a      	BRMI __MINRES
001d5b cfec      	RJMP __MAXRES
                 __MULF124:
001d5c 920f      	PUSH R0
001d5d 931f      	PUSH R17
001d5e 932f      	PUSH R18
001d5f 933f      	PUSH R19
001d60 934f      	PUSH R20
001d61 2711      	CLR  R17
001d62 2722      	CLR  R18
001d63 2799      	CLR  R25
001d64 9f68      	MUL  R22,R24
001d65 01a0      	MOVW R20,R0
001d66 9f8f      	MUL  R24,R31
001d67 2d30      	MOV  R19,R0
001d68 0d41      	ADD  R20,R1
001d69 1f59      	ADC  R21,R25
001d6a 9f6b      	MUL  R22,R27
001d6b 0d30      	ADD  R19,R0
001d6c 1d41      	ADC  R20,R1
001d6d 1f59      	ADC  R21,R25
001d6e 9f8e      	MUL  R24,R30
001d6f d027      	RCALL __MULF126
001d70 9fbf      	MUL  R27,R31
001d71 d025      	RCALL __MULF126
001d72 9f6a      	MUL  R22,R26
001d73 d023      	RCALL __MULF126
001d74 9fbe      	MUL  R27,R30
001d75 d01d      	RCALL __MULF127
001d76 9faf      	MUL  R26,R31
001d77 d01b      	RCALL __MULF127
001d78 9fae      	MUL  R26,R30
001d79 0d11      	ADD  R17,R1
001d7a 1f29      	ADC  R18,R25
001d7b 1f39      	ADC  R19,R25
001d7c 1f49      	ADC  R20,R25
001d7d 1f59      	ADC  R21,R25
001d7e 2fe3      	MOV  R30,R19
001d7f 2ff4      	MOV  R31,R20
001d80 2f65      	MOV  R22,R21
001d81 2f52      	MOV  R21,R18
001d82 914f      	POP  R20
001d83 913f      	POP  R19
001d84 912f      	POP  R18
001d85 911f      	POP  R17
001d86 900f      	POP  R0
001d87 2366      	TST  R22
001d88 f02a      	BRMI __MULF122
001d89 0f55      	LSL  R21
001d8a 1fee      	ROL  R30
001d8b 1fff      	ROL  R31
001d8c 1f66      	ROL  R22
001d8d c002      	RJMP __MULF123
                 __MULF122:
001d8e 9573      	INC  R23
001d8f f24b      	BRVS __MULF125
                 __MULF123:
001d90 decd      	RCALL __ROUND_REPACK
001d91 915f      	POP  R21
001d92 9508      	RET
                 
                 __MULF127:
001d93 0d10      	ADD  R17,R0
001d94 1d21      	ADC  R18,R1
001d95 1f39      	ADC  R19,R25
001d96 c002      	RJMP __MULF128
                 __MULF126:
001d97 0d20      	ADD  R18,R0
001d98 1d31      	ADC  R19,R1
                 __MULF128:
001d99 1f49      	ADC  R20,R25
001d9a 1f59      	ADC  R21,R25
001d9b 9508      	RET
                 
                 __DIVF21:
001d9c 935f      	PUSH R21
001d9d dedc      	RCALL __UNPACK
001d9e 3870      	CPI  R23,0x80
001d9f f421      	BRNE __DIVF210
001da0 2011      	TST  R1
                 __DIVF211:
001da1 f40a      	BRPL __DIVF219
001da2 cf9f      	RJMP __MINRES
                 __DIVF219:
001da3 cfa4      	RJMP __MAXRES
                 __DIVF210:
001da4 3890      	CPI  R25,0x80
001da5 f409      	BRNE __DIVF218
                 __DIVF217:
001da6 cf95      	RJMP __ZERORES
                 __DIVF218:
001da7 2401      	EOR  R0,R1
001da8 9408      	SEC
001da9 0b97      	SBC  R25,R23
001daa f41b      	BRVC __DIVF216
001dab f3d4      	BRLT __DIVF217
001dac 2000      	TST  R0
001dad cff3      	RJMP __DIVF211
                 __DIVF216:
001dae 2f79      	MOV  R23,R25
001daf 931f      	PUSH R17
001db0 932f      	PUSH R18
001db1 933f      	PUSH R19
001db2 934f      	PUSH R20
001db3 2411      	CLR  R1
001db4 2711      	CLR  R17
001db5 2722      	CLR  R18
001db6 2733      	CLR  R19
001db7 2744      	CLR  R20
001db8 2755      	CLR  R21
001db9 e290      	LDI  R25,32
                 __DIVF212:
001dba 17ae      	CP   R26,R30
001dbb 07bf      	CPC  R27,R31
001dbc 0786      	CPC  R24,R22
001dbd 0741      	CPC  R20,R17
001dbe f030      	BRLO __DIVF213
001dbf 1bae      	SUB  R26,R30
001dc0 0bbf      	SBC  R27,R31
001dc1 0b86      	SBC  R24,R22
001dc2 0b41      	SBC  R20,R17
001dc3 9408      	SEC
001dc4 c001      	RJMP __DIVF214
                 __DIVF213:
001dc5 9488      	CLC
                 __DIVF214:
001dc6 1f55      	ROL  R21
001dc7 1f22      	ROL  R18
001dc8 1f33      	ROL  R19
001dc9 1c11      	ROL  R1
001dca 1faa      	ROL  R26
001dcb 1fbb      	ROL  R27
001dcc 1f88      	ROL  R24
001dcd 1f44      	ROL  R20
001dce 959a      	DEC  R25
001dcf f751      	BRNE __DIVF212
001dd0 01f9      	MOVW R30,R18
001dd1 2d61      	MOV  R22,R1
001dd2 914f      	POP  R20
001dd3 913f      	POP  R19
001dd4 912f      	POP  R18
001dd5 911f      	POP  R17
001dd6 2366      	TST  R22
001dd7 f032      	BRMI __DIVF215
001dd8 0f55      	LSL  R21
001dd9 1fee      	ROL  R30
001dda 1fff      	ROL  R31
001ddb 1f66      	ROL  R22
001ddc 957a      	DEC  R23
001ddd f243      	BRVS __DIVF217
                 __DIVF215:
001dde de7f      	RCALL __ROUND_REPACK
001ddf 915f      	POP  R21
001de0 9508      	RET
                 
                 __CMPF12:
001de1 2399      	TST  R25
001de2 f09a      	BRMI __CMPF120
001de3 2377      	TST  R23
001de4 f042      	BRMI __CMPF121
001de5 1797      	CP   R25,R23
001de6 f048      	BRLO __CMPF122
001de7 f429      	BRNE __CMPF121
001de8 17ae      	CP   R26,R30
001de9 07bf      	CPC  R27,R31
001dea 0786      	CPC  R24,R22
001deb f020      	BRLO __CMPF122
001dec f031      	BREQ __CMPF123
                 __CMPF121:
001ded 9498      	CLZ
001dee 9488      	CLC
001def 9508      	RET
                 __CMPF122:
001df0 9498      	CLZ
001df1 9408      	SEC
001df2 9508      	RET
                 __CMPF123:
001df3 9418      	SEZ
001df4 9488      	CLC
001df5 9508      	RET
                 __CMPF120:
001df6 2377      	TST  R23
001df7 f7c2      	BRPL __CMPF122
001df8 1797      	CP   R25,R23
001df9 f398      	BRLO __CMPF121
001dfa f7a9      	BRNE __CMPF122
001dfb 17ea      	CP   R30,R26
001dfc 07fb      	CPC  R31,R27
001dfd 0768      	CPC  R22,R24
001dfe f388      	BRLO __CMPF122
001dff f399      	BREQ __CMPF123
001e00 cfec      	RJMP __CMPF121
                 
                 __ADDW2R15:
001e01 2400      	CLR  R0
001e02 0daf      	ADD  R26,R15
001e03 1db0      	ADC  R27,R0
001e04 9508      	RET
                 
                 __ADDD12:
001e05 0fea      	ADD  R30,R26
001e06 1ffb      	ADC  R31,R27
001e07 1f68      	ADC  R22,R24
001e08 1f79      	ADC  R23,R25
001e09 9508      	RET
                 
                 __SUBD12:
001e0a 1bea      	SUB  R30,R26
001e0b 0bfb      	SBC  R31,R27
001e0c 0b68      	SBC  R22,R24
001e0d 0b79      	SBC  R23,R25
001e0e 9508      	RET
                 
                 __XORD12:
001e0f 27ea      	EOR  R30,R26
001e10 27fb      	EOR  R31,R27
001e11 2768      	EOR  R22,R24
001e12 2779      	EOR  R23,R25
001e13 9508      	RET
                 
                 __ANEGD1:
001e14 95f0      	COM  R31
001e15 9560      	COM  R22
001e16 9570      	COM  R23
001e17 95e1      	NEG  R30
001e18 4fff      	SBCI R31,-1
001e19 4f6f      	SBCI R22,-1
001e1a 4f7f      	SBCI R23,-1
001e1b 9508      	RET
                 
                 __LSLW2:
001e1c 0fee      	LSL  R30
001e1d 1fff      	ROL  R31
001e1e 0fee      	LSL  R30
001e1f 1fff      	ROL  R31
001e20 9508      	RET
                 
                 __LSLD1:
001e21 0fee      	LSL  R30
001e22 1fff      	ROL  R31
001e23 1f66      	ROL  R22
001e24 1f77      	ROL  R23
001e25 9508      	RET
                 
                 __CBD1:
001e26 2ffe      	MOV  R31,R30
001e27 0fff      	ADD  R31,R31
001e28 0bff      	SBC  R31,R31
001e29 2f6f      	MOV  R22,R31
001e2a 2f7f      	MOV  R23,R31
001e2b 9508      	RET
                 
                 __CWD1:
001e2c 2f6f      	MOV  R22,R31
001e2d 0f66      	ADD  R22,R22
001e2e 0b66      	SBC  R22,R22
001e2f 2f76      	MOV  R23,R22
001e30 9508      	RET
                 
                 __MULB1W2U:
001e31 2f6e      	MOV  R22,R30
001e32 9f6a      	MUL  R22,R26
001e33 01f0      	MOVW R30,R0
001e34 9f6b      	MUL  R22,R27
001e35 0df0      	ADD  R31,R0
001e36 9508      	RET
                 
                 __DIVB21U:
001e37 2400      	CLR  R0
001e38 e098      	LDI  R25,8
                 __DIVB21U1:
001e39 0faa      	LSL  R26
001e3a 1c00      	ROL  R0
001e3b 1a0e      	SUB  R0,R30
001e3c f410      	BRCC __DIVB21U2
001e3d 0e0e      	ADD  R0,R30
001e3e c001      	RJMP __DIVB21U3
                 __DIVB21U2:
001e3f 60a1      	SBR  R26,1
                 __DIVB21U3:
001e40 959a      	DEC  R25
001e41 f7b9      	BRNE __DIVB21U1
001e42 2fea      	MOV  R30,R26
001e43 2da0      	MOV  R26,R0
001e44 9508      	RET
                 
                 __DIVB21:
001e45 d03e      	RCALL __CHKSIGNB
001e46 dff0      	RCALL __DIVB21U
001e47 f40e      	BRTC __DIVB211
001e48 95e1      	NEG  R30
                 __DIVB211:
001e49 9508      	RET
                 
                 __DIVD21U:
001e4a 933f      	PUSH R19
001e4b 934f      	PUSH R20
001e4c 935f      	PUSH R21
001e4d 2400      	CLR  R0
001e4e 2411      	CLR  R1
001e4f 2744      	CLR  R20
001e50 2755      	CLR  R21
001e51 e230      	LDI  R19,32
                 __DIVD21U1:
001e52 0faa      	LSL  R26
001e53 1fbb      	ROL  R27
001e54 1f88      	ROL  R24
001e55 1f99      	ROL  R25
001e56 1c00      	ROL  R0
001e57 1c11      	ROL  R1
001e58 1f44      	ROL  R20
001e59 1f55      	ROL  R21
001e5a 1a0e      	SUB  R0,R30
001e5b 0a1f      	SBC  R1,R31
001e5c 0b46      	SBC  R20,R22
001e5d 0b57      	SBC  R21,R23
001e5e f428      	BRCC __DIVD21U2
001e5f 0e0e      	ADD  R0,R30
001e60 1e1f      	ADC  R1,R31
001e61 1f46      	ADC  R20,R22
001e62 1f57      	ADC  R21,R23
001e63 c001      	RJMP __DIVD21U3
                 __DIVD21U2:
001e64 60a1      	SBR  R26,1
                 __DIVD21U3:
001e65 953a      	DEC  R19
001e66 f759      	BRNE __DIVD21U1
001e67 01fd      	MOVW R30,R26
001e68 01bc      	MOVW R22,R24
001e69 01d0      	MOVW R26,R0
001e6a 01ca      	MOVW R24,R20
001e6b 915f      	POP  R21
001e6c 914f      	POP  R20
001e6d 913f      	POP  R19
001e6e 9508      	RET
                 
                 __DIVD21:
001e6f d020      	RCALL __CHKSIGND
001e70 dfd9      	RCALL __DIVD21U
001e71 f40e      	BRTC __DIVD211
001e72 dfa1      	RCALL __ANEGD1
                 __DIVD211:
001e73 9508      	RET
                 
                 __MODB21:
001e74 94e8      	CLT
001e75 ffa7      	SBRS R26,7
001e76 c002      	RJMP __MODB211
001e77 95a1      	NEG  R26
001e78 9468      	SET
                 __MODB211:
001e79 fde7      	SBRC R30,7
001e7a 95e1      	NEG  R30
001e7b dfbb      	RCALL __DIVB21U
001e7c 2fea      	MOV  R30,R26
001e7d f40e      	BRTC __MODB212
001e7e 95e1      	NEG  R30
                 __MODB212:
001e7f 9508      	RET
                 
                 __MODD21U:
001e80 dfc9      	RCALL __DIVD21U
001e81 01fd      	MOVW R30,R26
001e82 01bc      	MOVW R22,R24
001e83 9508      	RET
                 
                 __CHKSIGNB:
001e84 94e8      	CLT
001e85 ffe7      	SBRS R30,7
001e86 c002      	RJMP __CHKSB1
001e87 95e1      	NEG  R30
001e88 9468      	SET
                 __CHKSB1:
001e89 ffa7      	SBRS R26,7
001e8a c004      	RJMP __CHKSB2
001e8b 95a1      	NEG  R26
001e8c f800      	BLD  R0,0
001e8d 9403      	INC  R0
001e8e fa00      	BST  R0,0
                 __CHKSB2:
001e8f 9508      	RET
                 
                 __CHKSIGND:
001e90 94e8      	CLT
001e91 ff77      	SBRS R23,7
001e92 c002      	RJMP __CHKSD1
001e93 df80      	RCALL __ANEGD1
001e94 9468      	SET
                 __CHKSD1:
001e95 ff97      	SBRS R25,7
001e96 c00b      	RJMP __CHKSD2
001e97 2400      	CLR  R0
001e98 95a0      	COM  R26
001e99 95b0      	COM  R27
001e9a 9580      	COM  R24
001e9b 9590      	COM  R25
001e9c 9611      	ADIW R26,1
001e9d 1d80      	ADC  R24,R0
001e9e 1d90      	ADC  R25,R0
001e9f f800      	BLD  R0,0
001ea0 9403      	INC  R0
001ea1 fa00      	BST  R0,0
                 __CHKSD2:
001ea2 9508      	RET
                 
                 __GETW1P:
001ea3 91ed      	LD   R30,X+
001ea4 91fc      	LD   R31,X
001ea5 9711      	SBIW R26,1
001ea6 9508      	RET
                 
                 __GETD1P:
001ea7 91ed      	LD   R30,X+
001ea8 91fd      	LD   R31,X+
001ea9 916d      	LD   R22,X+
001eaa 917c      	LD   R23,X
001eab 9713      	SBIW R26,3
001eac 9508      	RET
                 
                 __PUTDP1:
001ead 93ed      	ST   X+,R30
001eae 93fd      	ST   X+,R31
001eaf 936d      	ST   X+,R22
001eb0 937c      	ST   X,R23
001eb1 9508      	RET
                 
                 __GETW1PF:
001eb2 9005      	LPM  R0,Z+
001eb3 91f4      	LPM  R31,Z
001eb4 2de0      	MOV  R30,R0
001eb5 9508      	RET
                 
                 __GETD1S0:
001eb6 81e8      	LD   R30,Y
001eb7 81f9      	LDD  R31,Y+1
001eb8 816a      	LDD  R22,Y+2
001eb9 817b      	LDD  R23,Y+3
001eba 9508      	RET
                 
                 __GETD2S0:
001ebb 81a8      	LD   R26,Y
001ebc 81b9      	LDD  R27,Y+1
001ebd 818a      	LDD  R24,Y+2
001ebe 819b      	LDD  R25,Y+3
001ebf 9508      	RET
                 
                 __PUTD1S0:
001ec0 83e8      	ST   Y,R30
001ec1 83f9      	STD  Y+1,R31
001ec2 836a      	STD  Y+2,R22
001ec3 837b      	STD  Y+3,R23
001ec4 9508      	RET
                 
                 __PUTPARD1:
001ec5 937a      	ST   -Y,R23
001ec6 936a      	ST   -Y,R22
001ec7 93fa      	ST   -Y,R31
001ec8 93ea      	ST   -Y,R30
001ec9 9508      	RET
                 
                 __PUTPARD2:
001eca 939a      	ST   -Y,R25
001ecb 938a      	ST   -Y,R24
001ecc 93ba      	ST   -Y,R27
001ecd 93aa      	ST   -Y,R26
001ece 9508      	RET
                 
                 __SWAPD12:
001ecf 2e18      	MOV  R1,R24
001ed0 2f86      	MOV  R24,R22
001ed1 2d61      	MOV  R22,R1
001ed2 2e19      	MOV  R1,R25
001ed3 2f97      	MOV  R25,R23
001ed4 2d71      	MOV  R23,R1
                 
                 __SWAPW12:
001ed5 2e1b      	MOV  R1,R27
001ed6 2fbf      	MOV  R27,R31
001ed7 2df1      	MOV  R31,R1
                 
                 __SWAPB12:
001ed8 2e1a      	MOV  R1,R26
001ed9 2fae      	MOV  R26,R30
001eda 2de1      	MOV  R30,R1
001edb 9508      	RET
                 
                 __CPD10:
001edc 9730      	SBIW R30,0
001edd 4060      	SBCI R22,0
001ede 4070      	SBCI R23,0
001edf 9508      	RET
                 
                 __SAVELOCR6:
001ee0 935a      	ST   -Y,R21
                 __SAVELOCR5:
001ee1 934a      	ST   -Y,R20
                 __SAVELOCR4:
001ee2 933a      	ST   -Y,R19
                 __SAVELOCR3:
001ee3 932a      	ST   -Y,R18
                 __SAVELOCR2:
001ee4 931a      	ST   -Y,R17
001ee5 930a      	ST   -Y,R16
001ee6 9508      	RET
                 
                 __LOADLOCR6:
001ee7 815d      	LDD  R21,Y+5
                 __LOADLOCR5:
001ee8 814c      	LDD  R20,Y+4
                 __LOADLOCR4:
001ee9 813b      	LDD  R19,Y+3
                 __LOADLOCR3:
001eea 812a      	LDD  R18,Y+2
                 __LOADLOCR2:
001eeb 8119      	LDD  R17,Y+1
001eec 8108      	LD   R16,Y
001eed 9508      	RET
                 
                 ;END OF CODE MARKER
                 __END_OF_CODE:


RESOURCE USE INFORMATION
------------------------

Notice:
The register and instruction counts are symbol table hit counts,
and hence implicitly used resources are not counted, eg, the
'lpm' instruction without operands implicitly uses r0 and z,
none of which are counted.

x,y,z are separate entities in the symbol table and are
counted separately from r26..r31 here.

.dseg memory usage only counts static data declared with .byte

ATmega32A register use summary:
r0 :  74 r1 :  36 r2 :   1 r3 :   0 r4 :   0 r5 :   4 r6 :   4 r7 :   3 
r8 :   2 r9 :   4 r10:   0 r11:   0 r12:   0 r13:   0 r14:   0 r15:   6 
r16:  75 r17: 103 r18:  61 r19:  42 r20:  50 r21:  90 r22: 174 r23: 146 
r24: 106 r25:  91 r26: 276 r27: 149 r28:  42 r29:   1 r30: 583 r31: 238 
x  :  51 y  : 492 z  :  28 
Registers used: 28 out of 35 (80.0%)

ATmega32A instruction use summary:
.lds  :   0 .lds.l:   0 .sts  :   0 .sts.l:   0 adc   :  30 add   :  20 
adiw  :  46 and   :   5 andi  :   8 asr   :   0 bclr  :   0 bld   :   5 
brbc  :   0 brbs  :   0 brcc  :   9 brcs  :   1 break :   0 breq  :  50 
brge  :   5 brhc  :   0 brhs  :   0 brid  :   0 brie  :   0 brlo  :  30 
brlt  :   4 brmi  :  11 brne  :  65 brpl  :  11 brsh  :   9 brtc  :   5 
brts  :   2 brvc  :   4 brvs  :   4 bset  :   0 bst   :   4 call  : 383 
cbi   :  14 cbr   :   1 clc   :   3 clh   :   0 cli   :   1 cln   :   0 
clr   :  58 cls   :   0 clt   :   7 clv   :   0 clz   :   2 com   :  14 
cp    :  19 cpc   :  27 cpi   :  91 cpse  :   0 dec   :  15 des   :   0 
eor   :  11 fmul  :   0 fmuls :   0 fmulsu:   0 icall :   3 ijmp  :   0 
in    :   9 inc   :   9 jmp   :  28 ld    :  77 ldd   : 222 ldi   : 334 
lds   : 100 lpm   :  17 lsl   :  18 lsr   :   3 mov   :  90 movw  :  66 
mul   :  13 muls  :   0 mulsu :   0 neg   :   9 nop   :   0 or    :   1 
ori   :  10 out   :  35 pop   :  32 push  :  32 rcall :  68 ret   : 147 
reti  :   2 rjmp  : 164 rol   :  38 ror   :  15 sbc   :  16 sbci  :  32 
sbi   :  14 sbic  :   3 sbis  :   4 sbiw  :  37 sbr   :   4 sbrc  :   4 
sbrs  :  22 sec   :   5 seh   :   0 sei   :   1 sen   :   0 ser   :   8 
ses   :   0 set   :   7 sev   :   0 sez   :   1 sleep :   0 spm   :   0 
st    : 149 std   : 109 sts   :  94 sub   :   9 subi  :  62 swap  :   1 
tst   :  26 wdr   :   1 
Instructions used: 83 out of 116 (71.6%)

ATmega32A memory use summary [bytes]:
Segment   Begin    End      Code   Data   Used    Size   Use%
---------------------------------------------------------------
[.cseg] 0x000000 0x003ddc   7454   8382  15836   32768  48.3%
[.dseg] 0x000060 0x000344      0    228    228    2048  11.1%
[.eseg] 0x000000 0x000000      0      0      0    1024   0.0%

Assembly complete, 0 errors, 9 warnings
