
AVRASM ver. 2.1.30  D:\Flash Sony Backup\Dynamic scaling 2\17(fuzzy) 0.5s data send\List\Project.asm Sun Jun 06 19:26:07 2021

D:\Flash Sony Backup\Dynamic scaling 2\17(fuzzy) 0.5s data send\List\Project.asm(1087): warning: Register r4 already defined by the .DEF directive
D:\Flash Sony Backup\Dynamic scaling 2\17(fuzzy) 0.5s data send\List\Project.asm(1088): warning: Register r5 already defined by the .DEF directive
D:\Flash Sony Backup\Dynamic scaling 2\17(fuzzy) 0.5s data send\List\Project.asm(1089): warning: Register r7 already defined by the .DEF directive
D:\Flash Sony Backup\Dynamic scaling 2\17(fuzzy) 0.5s data send\List\Project.asm(1090): warning: Register r6 already defined by the .DEF directive
D:\Flash Sony Backup\Dynamic scaling 2\17(fuzzy) 0.5s data send\List\Project.asm(1091): warning: Register r9 already defined by the .DEF directive
D:\Flash Sony Backup\Dynamic scaling 2\17(fuzzy) 0.5s data send\List\Project.asm(1092): warning: Register r8 already defined by the .DEF directive
D:\Flash Sony Backup\Dynamic scaling 2\17(fuzzy) 0.5s data send\List\Project.asm(1093): warning: Register r11 already defined by the .DEF directive
D:\Flash Sony Backup\Dynamic scaling 2\17(fuzzy) 0.5s data send\List\Project.asm(1094): warning: Register r10 already defined by the .DEF directive
                 
                 
                 ;CodeVisionAVR C Compiler V3.12 Advanced
                 ;(C) Copyright 1998-2014 Pavel Haiduc, HP InfoTech s.r.l.
                 ;http://www.hpinfotech.com
                 
                 ;Build configuration    : Release
                 ;Chip type              : ATmega32A
                 ;Program type           : Application
                 ;Clock frequency        : 8.000000 MHz
                 ;Memory model           : Small
                 ;Optimize for           : Size
                 ;(s)printf features     : float, width, precision
                 ;(s)scanf features      : int, width
                 ;External RAM size      : 0
                 ;Data Stack size        : 512 byte(s)
                 ;Heap size              : 0 byte(s)
                 ;Promote 'char' to 'int': Yes
                 ;'char' is unsigned     : Yes
                 ;8 bit enums            : Yes
                 ;Global 'const' stored in FLASH: Yes
                 ;Enhanced function parameter passing: Yes
                 ;Enhanced core instructions: On
                 ;Automatic register allocation for global variables: On
                 ;Smart register allocation: On
                 
                 	#define _MODEL_SMALL_
                 
                 	#pragma AVRPART ADMIN PART_NAME ATmega32A
                 	#pragma AVRPART MEMORY PROG_FLASH 32768
                 	#pragma AVRPART MEMORY EEPROM 1024
                 	#pragma AVRPART MEMORY INT_SRAM SIZE 2048
                 	#pragma AVRPART MEMORY INT_SRAM START_ADDR 0x60
                 
                 	#define CALL_SUPPORTED 1
                 
                 	.LISTMAC
                 	.EQU UDRE=0x5
                 	.EQU RXC=0x7
                 	.EQU USR=0xB
                 	.EQU UDR=0xC
                 	.EQU SPSR=0xE
                 	.EQU SPDR=0xF
                 	.EQU EERE=0x0
                 	.EQU EEWE=0x1
                 	.EQU EEMWE=0x2
                 	.EQU EECR=0x1C
                 	.EQU EEDR=0x1D
                 	.EQU EEARL=0x1E
                 	.EQU EEARH=0x1F
                 	.EQU WDTCR=0x21
                 	.EQU MCUCR=0x35
                 	.EQU SPL=0x3D
                 	.EQU SPH=0x3E
                 	.EQU SREG=0x3F
                 
                 	.DEF R0X0=R0
                 	.DEF R0X1=R1
                 	.DEF R0X2=R2
                 	.DEF R0X3=R3
                 	.DEF R0X4=R4
                 	.DEF R0X5=R5
                 	.DEF R0X6=R6
                 	.DEF R0X7=R7
                 	.DEF R0X8=R8
                 	.DEF R0X9=R9
                 	.DEF R0XA=R10
                 	.DEF R0XB=R11
                 	.DEF R0XC=R12
                 	.DEF R0XD=R13
                 	.DEF R0XE=R14
                 	.DEF R0XF=R15
                 	.DEF R0X10=R16
                 	.DEF R0X11=R17
                 	.DEF R0X12=R18
                 	.DEF R0X13=R19
                 	.DEF R0X14=R20
                 	.DEF R0X15=R21
                 	.DEF R0X16=R22
                 	.DEF R0X17=R23
                 	.DEF R0X18=R24
                 	.DEF R0X19=R25
                 	.DEF R0X1A=R26
                 	.DEF R0X1B=R27
                 	.DEF R0X1C=R28
                 	.DEF R0X1D=R29
                 	.DEF R0X1E=R30
                 	.DEF R0X1F=R31
                 
                 	.EQU __SRAM_START=0x0060
                 	.EQU __SRAM_END=0x085F
                 	.EQU __DSTACK_SIZE=0x0200
                 	.EQU __HEAP_SIZE=0x0000
                 	.EQU __CLEAR_SRAM_SIZE=__SRAM_END-__SRAM_START+1
                 
                 	.MACRO __CPD1N
                 	CPI  R30,LOW(@0)
                 	LDI  R26,HIGH(@0)
                 	CPC  R31,R26
                 	LDI  R26,BYTE3(@0)
                 	CPC  R22,R26
                 	LDI  R26,BYTE4(@0)
                 	CPC  R23,R26
                 	.ENDM
                 
                 	.MACRO __CPD2N
                 	CPI  R26,LOW(@0)
                 	LDI  R30,HIGH(@0)
                 	CPC  R27,R30
                 	LDI  R30,BYTE3(@0)
                 	CPC  R24,R30
                 	LDI  R30,BYTE4(@0)
                 	CPC  R25,R30
                 	.ENDM
                 
                 	.MACRO __CPWRR
                 	CP   R@0,R@2
                 	CPC  R@1,R@3
                 	.ENDM
                 
                 	.MACRO __CPWRN
                 	CPI  R@0,LOW(@2)
                 	LDI  R30,HIGH(@2)
                 	CPC  R@1,R30
                 	.ENDM
                 
                 	.MACRO __ADDB1MN
                 	SUBI R30,LOW(-@0-(@1))
                 	.ENDM
                 
                 	.MACRO __ADDB2MN
                 	SUBI R26,LOW(-@0-(@1))
                 	.ENDM
                 
                 	.MACRO __ADDW1MN
                 	SUBI R30,LOW(-@0-(@1))
                 	SBCI R31,HIGH(-@0-(@1))
                 	.ENDM
                 
                 	.MACRO __ADDW2MN
                 	SUBI R26,LOW(-@0-(@1))
                 	SBCI R27,HIGH(-@0-(@1))
                 	.ENDM
                 
                 	.MACRO __ADDW1FN
                 	SUBI R30,LOW(-2*@0-(@1))
                 	SBCI R31,HIGH(-2*@0-(@1))
                 	.ENDM
                 
                 	.MACRO __ADDD1FN
                 	SUBI R30,LOW(-2*@0-(@1))
                 	SBCI R31,HIGH(-2*@0-(@1))
                 	SBCI R22,BYTE3(-2*@0-(@1))
                 	.ENDM
                 
                 	.MACRO __ADDD1N
                 	SUBI R30,LOW(-@0)
                 	SBCI R31,HIGH(-@0)
                 	SBCI R22,BYTE3(-@0)
                 	SBCI R23,BYTE4(-@0)
                 	.ENDM
                 
                 	.MACRO __ADDD2N
                 	SUBI R26,LOW(-@0)
                 	SBCI R27,HIGH(-@0)
                 	SBCI R24,BYTE3(-@0)
                 	SBCI R25,BYTE4(-@0)
                 	.ENDM
                 
                 	.MACRO __SUBD1N
                 	SUBI R30,LOW(@0)
                 	SBCI R31,HIGH(@0)
                 	SBCI R22,BYTE3(@0)
                 	SBCI R23,BYTE4(@0)
                 	.ENDM
                 
                 	.MACRO __SUBD2N
                 	SUBI R26,LOW(@0)
                 	SBCI R27,HIGH(@0)
                 	SBCI R24,BYTE3(@0)
                 	SBCI R25,BYTE4(@0)
                 	.ENDM
                 
                 	.MACRO __ANDBMNN
                 	LDS  R30,@0+(@1)
                 	ANDI R30,LOW(@2)
                 	STS  @0+(@1),R30
                 	.ENDM
                 
                 	.MACRO __ANDWMNN
                 	LDS  R30,@0+(@1)
                 	ANDI R30,LOW(@2)
                 	STS  @0+(@1),R30
                 	LDS  R30,@0+(@1)+1
                 	ANDI R30,HIGH(@2)
                 	STS  @0+(@1)+1,R30
                 	.ENDM
                 
                 	.MACRO __ANDD1N
                 	ANDI R30,LOW(@0)
                 	ANDI R31,HIGH(@0)
                 	ANDI R22,BYTE3(@0)
                 	ANDI R23,BYTE4(@0)
                 	.ENDM
                 
                 	.MACRO __ANDD2N
                 	ANDI R26,LOW(@0)
                 	ANDI R27,HIGH(@0)
                 	ANDI R24,BYTE3(@0)
                 	ANDI R25,BYTE4(@0)
                 	.ENDM
                 
                 	.MACRO __ORBMNN
                 	LDS  R30,@0+(@1)
                 	ORI  R30,LOW(@2)
                 	STS  @0+(@1),R30
                 	.ENDM
                 
                 	.MACRO __ORWMNN
                 	LDS  R30,@0+(@1)
                 	ORI  R30,LOW(@2)
                 	STS  @0+(@1),R30
                 	LDS  R30,@0+(@1)+1
                 	ORI  R30,HIGH(@2)
                 	STS  @0+(@1)+1,R30
                 	.ENDM
                 
                 	.MACRO __ORD1N
                 	ORI  R30,LOW(@0)
                 	ORI  R31,HIGH(@0)
                 	ORI  R22,BYTE3(@0)
                 	ORI  R23,BYTE4(@0)
                 	.ENDM
                 
                 	.MACRO __ORD2N
                 	ORI  R26,LOW(@0)
                 	ORI  R27,HIGH(@0)
                 	ORI  R24,BYTE3(@0)
                 	ORI  R25,BYTE4(@0)
                 	.ENDM
                 
                 	.MACRO __DELAY_USB
                 	LDI  R24,LOW(@0)
                 __DELAY_USB_LOOP:
                 	DEC  R24
                 	BRNE __DELAY_USB_LOOP
                 	.ENDM
                 
                 	.MACRO __DELAY_USW
                 	LDI  R24,LOW(@0)
                 	LDI  R25,HIGH(@0)
                 __DELAY_USW_LOOP:
                 	SBIW R24,1
                 	BRNE __DELAY_USW_LOOP
                 	.ENDM
                 
                 	.MACRO __GETD1S
                 	LDD  R30,Y+@0
                 	LDD  R31,Y+@0+1
                 	LDD  R22,Y+@0+2
                 	LDD  R23,Y+@0+3
                 	.ENDM
                 
                 	.MACRO __GETD2S
                 	LDD  R26,Y+@0
                 	LDD  R27,Y+@0+1
                 	LDD  R24,Y+@0+2
                 	LDD  R25,Y+@0+3
                 	.ENDM
                 
                 	.MACRO __PUTD1S
                 	STD  Y+@0,R30
                 	STD  Y+@0+1,R31
                 	STD  Y+@0+2,R22
                 	STD  Y+@0+3,R23
                 	.ENDM
                 
                 	.MACRO __PUTD2S
                 	STD  Y+@0,R26
                 	STD  Y+@0+1,R27
                 	STD  Y+@0+2,R24
                 	STD  Y+@0+3,R25
                 	.ENDM
                 
                 	.MACRO __PUTDZ2
                 	STD  Z+@0,R26
                 	STD  Z+@0+1,R27
                 	STD  Z+@0+2,R24
                 	STD  Z+@0+3,R25
                 	.ENDM
                 
                 	.MACRO __CLRD1S
                 	STD  Y+@0,R30
                 	STD  Y+@0+1,R30
                 	STD  Y+@0+2,R30
                 	STD  Y+@0+3,R30
                 	.ENDM
                 
                 	.MACRO __POINTB1MN
                 	LDI  R30,LOW(@0+(@1))
                 	.ENDM
                 
                 	.MACRO __POINTW1MN
                 	LDI  R30,LOW(@0+(@1))
                 	LDI  R31,HIGH(@0+(@1))
                 	.ENDM
                 
                 	.MACRO __POINTD1M
                 	LDI  R30,LOW(@0)
                 	LDI  R31,HIGH(@0)
                 	LDI  R22,BYTE3(@0)
                 	LDI  R23,BYTE4(@0)
                 	.ENDM
                 
                 	.MACRO __POINTW1FN
                 	LDI  R30,LOW(2*@0+(@1))
                 	LDI  R31,HIGH(2*@0+(@1))
                 	.ENDM
                 
                 	.MACRO __POINTD1FN
                 	LDI  R30,LOW(2*@0+(@1))
                 	LDI  R31,HIGH(2*@0+(@1))
                 	LDI  R22,BYTE3(2*@0+(@1))
                 	LDI  R23,BYTE4(2*@0+(@1))
                 	.ENDM
                 
                 	.MACRO __POINTB2MN
                 	LDI  R26,LOW(@0+(@1))
                 	.ENDM
                 
                 	.MACRO __POINTW2MN
                 	LDI  R26,LOW(@0+(@1))
                 	LDI  R27,HIGH(@0+(@1))
                 	.ENDM
                 
                 	.MACRO __POINTW2FN
                 	LDI  R26,LOW(2*@0+(@1))
                 	LDI  R27,HIGH(2*@0+(@1))
                 	.ENDM
                 
                 	.MACRO __POINTD2FN
                 	LDI  R26,LOW(2*@0+(@1))
                 	LDI  R27,HIGH(2*@0+(@1))
                 	LDI  R24,BYTE3(2*@0+(@1))
                 	LDI  R25,BYTE4(2*@0+(@1))
                 	.ENDM
                 
                 	.MACRO __POINTBRM
                 	LDI  R@0,LOW(@1)
                 	.ENDM
                 
                 	.MACRO __POINTWRM
                 	LDI  R@0,LOW(@2)
                 	LDI  R@1,HIGH(@2)
                 	.ENDM
                 
                 	.MACRO __POINTBRMN
                 	LDI  R@0,LOW(@1+(@2))
                 	.ENDM
                 
                 	.MACRO __POINTWRMN
                 	LDI  R@0,LOW(@2+(@3))
                 	LDI  R@1,HIGH(@2+(@3))
                 	.ENDM
                 
                 	.MACRO __POINTWRFN
                 	LDI  R@0,LOW(@2*2+(@3))
                 	LDI  R@1,HIGH(@2*2+(@3))
                 	.ENDM
                 
                 	.MACRO __GETD1N
                 	LDI  R30,LOW(@0)
                 	LDI  R31,HIGH(@0)
                 	LDI  R22,BYTE3(@0)
                 	LDI  R23,BYTE4(@0)
                 	.ENDM
                 
                 	.MACRO __GETD2N
                 	LDI  R26,LOW(@0)
                 	LDI  R27,HIGH(@0)
                 	LDI  R24,BYTE3(@0)
                 	LDI  R25,BYTE4(@0)
                 	.ENDM
                 
                 	.MACRO __GETB1MN
                 	LDS  R30,@0+(@1)
                 	.ENDM
                 
                 	.MACRO __GETB1HMN
                 	LDS  R31,@0+(@1)
                 	.ENDM
                 
                 	.MACRO __GETW1MN
                 	LDS  R30,@0+(@1)
                 	LDS  R31,@0+(@1)+1
                 	.ENDM
                 
                 	.MACRO __GETD1MN
                 	LDS  R30,@0+(@1)
                 	LDS  R31,@0+(@1)+1
                 	LDS  R22,@0+(@1)+2
                 	LDS  R23,@0+(@1)+3
                 	.ENDM
                 
                 	.MACRO __GETBRMN
                 	LDS  R@0,@1+(@2)
                 	.ENDM
                 
                 	.MACRO __GETWRMN
                 	LDS  R@0,@2+(@3)
                 	LDS  R@1,@2+(@3)+1
                 	.ENDM
                 
                 	.MACRO __GETWRZ
                 	LDD  R@0,Z+@2
                 	LDD  R@1,Z+@2+1
                 	.ENDM
                 
                 	.MACRO __GETD2Z
                 	LDD  R26,Z+@0
                 	LDD  R27,Z+@0+1
                 	LDD  R24,Z+@0+2
                 	LDD  R25,Z+@0+3
                 	.ENDM
                 
                 	.MACRO __GETB2MN
                 	LDS  R26,@0+(@1)
                 	.ENDM
                 
                 	.MACRO __GETW2MN
                 	LDS  R26,@0+(@1)
                 	LDS  R27,@0+(@1)+1
                 	.ENDM
                 
                 	.MACRO __GETD2MN
                 	LDS  R26,@0+(@1)
                 	LDS  R27,@0+(@1)+1
                 	LDS  R24,@0+(@1)+2
                 	LDS  R25,@0+(@1)+3
                 	.ENDM
                 
                 	.MACRO __PUTB1MN
                 	STS  @0+(@1),R30
                 	.ENDM
                 
                 	.MACRO __PUTW1MN
                 	STS  @0+(@1),R30
                 	STS  @0+(@1)+1,R31
                 	.ENDM
                 
                 	.MACRO __PUTD1MN
                 	STS  @0+(@1),R30
                 	STS  @0+(@1)+1,R31
                 	STS  @0+(@1)+2,R22
                 	STS  @0+(@1)+3,R23
                 	.ENDM
                 
                 	.MACRO __PUTB1EN
                 	LDI  R26,LOW(@0+(@1))
                 	LDI  R27,HIGH(@0+(@1))
                 	CALL __EEPROMWRB
                 	.ENDM
                 
                 	.MACRO __PUTW1EN
                 	LDI  R26,LOW(@0+(@1))
                 	LDI  R27,HIGH(@0+(@1))
                 	CALL __EEPROMWRW
                 	.ENDM
                 
                 	.MACRO __PUTD1EN
                 	LDI  R26,LOW(@0+(@1))
                 	LDI  R27,HIGH(@0+(@1))
                 	CALL __EEPROMWRD
                 	.ENDM
                 
                 	.MACRO __PUTBR0MN
                 	STS  @0+(@1),R0
                 	.ENDM
                 
                 	.MACRO __PUTBMRN
                 	STS  @0+(@1),R@2
                 	.ENDM
                 
                 	.MACRO __PUTWMRN
                 	STS  @0+(@1),R@2
                 	STS  @0+(@1)+1,R@3
                 	.ENDM
                 
                 	.MACRO __PUTBZR
                 	STD  Z+@1,R@0
                 	.ENDM
                 
                 	.MACRO __PUTWZR
                 	STD  Z+@2,R@0
                 	STD  Z+@2+1,R@1
                 	.ENDM
                 
                 	.MACRO __GETW1R
                 	MOV  R30,R@0
                 	MOV  R31,R@1
                 	.ENDM
                 
                 	.MACRO __GETW2R
                 	MOV  R26,R@0
                 	MOV  R27,R@1
                 	.ENDM
                 
                 	.MACRO __GETWRN
                 	LDI  R@0,LOW(@2)
                 	LDI  R@1,HIGH(@2)
                 	.ENDM
                 
                 	.MACRO __PUTW1R
                 	MOV  R@0,R30
                 	MOV  R@1,R31
                 	.ENDM
                 
                 	.MACRO __PUTW2R
                 	MOV  R@0,R26
                 	MOV  R@1,R27
                 	.ENDM
                 
                 	.MACRO __ADDWRN
                 	SUBI R@0,LOW(-@2)
                 	SBCI R@1,HIGH(-@2)
                 	.ENDM
                 
                 	.MACRO __ADDWRR
                 	ADD  R@0,R@2
                 	ADC  R@1,R@3
                 	.ENDM
                 
                 	.MACRO __SUBWRN
                 	SUBI R@0,LOW(@2)
                 	SBCI R@1,HIGH(@2)
                 	.ENDM
                 
                 	.MACRO __SUBWRR
                 	SUB  R@0,R@2
                 	SBC  R@1,R@3
                 	.ENDM
                 
                 	.MACRO __ANDWRN
                 	ANDI R@0,LOW(@2)
                 	ANDI R@1,HIGH(@2)
                 	.ENDM
                 
                 	.MACRO __ANDWRR
                 	AND  R@0,R@2
                 	AND  R@1,R@3
                 	.ENDM
                 
                 	.MACRO __ORWRN
                 	ORI  R@0,LOW(@2)
                 	ORI  R@1,HIGH(@2)
                 	.ENDM
                 
                 	.MACRO __ORWRR
                 	OR   R@0,R@2
                 	OR   R@1,R@3
                 	.ENDM
                 
                 	.MACRO __EORWRR
                 	EOR  R@0,R@2
                 	EOR  R@1,R@3
                 	.ENDM
                 
                 	.MACRO __GETWRS
                 	LDD  R@0,Y+@2
                 	LDD  R@1,Y+@2+1
                 	.ENDM
                 
                 	.MACRO __PUTBSR
                 	STD  Y+@1,R@0
                 	.ENDM
                 
                 	.MACRO __PUTWSR
                 	STD  Y+@2,R@0
                 	STD  Y+@2+1,R@1
                 	.ENDM
                 
                 	.MACRO __MOVEWRR
                 	MOV  R@0,R@2
                 	MOV  R@1,R@3
                 	.ENDM
                 
                 	.MACRO __INWR
                 	IN   R@0,@2
                 	IN   R@1,@2+1
                 	.ENDM
                 
                 	.MACRO __OUTWR
                 	OUT  @2+1,R@1
                 	OUT  @2,R@0
                 	.ENDM
                 
                 	.MACRO __CALL1MN
                 	LDS  R30,@0+(@1)
                 	LDS  R31,@0+(@1)+1
                 	ICALL
                 	.ENDM
                 
                 	.MACRO __CALL1FN
                 	LDI  R30,LOW(2*@0+(@1))
                 	LDI  R31,HIGH(2*@0+(@1))
                 	CALL __GETW1PF
                 	ICALL
                 	.ENDM
                 
                 	.MACRO __CALL2EN
                 	PUSH R26
                 	PUSH R27
                 	LDI  R26,LOW(@0+(@1))
                 	LDI  R27,HIGH(@0+(@1))
                 	CALL __EEPROMRDW
                 	POP  R27
                 	POP  R26
                 	ICALL
                 	.ENDM
                 
                 	.MACRO __CALL2EX
                 	SUBI R26,LOW(-@0)
                 	SBCI R27,HIGH(-@0)
                 	CALL __EEPROMRDD
                 	ICALL
                 	.ENDM
                 
                 	.MACRO __GETW1STACK
                 	IN   R30,SPL
                 	IN   R31,SPH
                 	ADIW R30,@0+1
                 	LD   R0,Z+
                 	LD   R31,Z
                 	MOV  R30,R0
                 	.ENDM
                 
                 	.MACRO __GETD1STACK
                 	IN   R30,SPL
                 	IN   R31,SPH
                 	ADIW R30,@0+1
                 	LD   R0,Z+
                 	LD   R1,Z+
                 	LD   R22,Z
                 	MOVW R30,R0
                 	.ENDM
                 
                 	.MACRO __NBST
                 	BST  R@0,@1
                 	IN   R30,SREG
                 	LDI  R31,0x40
                 	EOR  R30,R31
                 	OUT  SREG,R30
                 	.ENDM
                 
                 
                 	.MACRO __PUTB1SN
                 	LDD  R26,Y+@0
                 	LDD  R27,Y+@0+1
                 	SUBI R26,LOW(-@1)
                 	SBCI R27,HIGH(-@1)
                 	ST   X,R30
                 	.ENDM
                 
                 	.MACRO __PUTW1SN
                 	LDD  R26,Y+@0
                 	LDD  R27,Y+@0+1
                 	SUBI R26,LOW(-@1)
                 	SBCI R27,HIGH(-@1)
                 	ST   X+,R30
                 	ST   X,R31
                 	.ENDM
                 
                 	.MACRO __PUTD1SN
                 	LDD  R26,Y+@0
                 	LDD  R27,Y+@0+1
                 	SUBI R26,LOW(-@1)
                 	SBCI R27,HIGH(-@1)
                 	CALL __PUTDP1
                 	.ENDM
                 
                 	.MACRO __PUTB1SNS
                 	LDD  R26,Y+@0
                 	LDD  R27,Y+@0+1
                 	ADIW R26,@1
                 	ST   X,R30
                 	.ENDM
                 
                 	.MACRO __PUTW1SNS
                 	LDD  R26,Y+@0
                 	LDD  R27,Y+@0+1
                 	ADIW R26,@1
                 	ST   X+,R30
                 	ST   X,R31
                 	.ENDM
                 
                 	.MACRO __PUTD1SNS
                 	LDD  R26,Y+@0
                 	LDD  R27,Y+@0+1
                 	ADIW R26,@1
                 	CALL __PUTDP1
                 	.ENDM
                 
                 	.MACRO __PUTB1PMN
                 	LDS  R26,@0
                 	LDS  R27,@0+1
                 	SUBI R26,LOW(-@1)
                 	SBCI R27,HIGH(-@1)
                 	ST   X,R30
                 	.ENDM
                 
                 	.MACRO __PUTW1PMN
                 	LDS  R26,@0
                 	LDS  R27,@0+1
                 	SUBI R26,LOW(-@1)
                 	SBCI R27,HIGH(-@1)
                 	ST   X+,R30
                 	ST   X,R31
                 	.ENDM
                 
                 	.MACRO __PUTD1PMN
                 	LDS  R26,@0
                 	LDS  R27,@0+1
                 	SUBI R26,LOW(-@1)
                 	SBCI R27,HIGH(-@1)
                 	CALL __PUTDP1
                 	.ENDM
                 
                 	.MACRO __PUTB1PMNS
                 	LDS  R26,@0
                 	LDS  R27,@0+1
                 	ADIW R26,@1
                 	ST   X,R30
                 	.ENDM
                 
                 	.MACRO __PUTW1PMNS
                 	LDS  R26,@0
                 	LDS  R27,@0+1
                 	ADIW R26,@1
                 	ST   X+,R30
                 	ST   X,R31
                 	.ENDM
                 
                 	.MACRO __PUTD1PMNS
                 	LDS  R26,@0
                 	LDS  R27,@0+1
                 	ADIW R26,@1
                 	CALL __PUTDP1
                 	.ENDM
                 
                 	.MACRO __PUTB1RN
                 	MOVW R26,R@0
                 	SUBI R26,LOW(-@1)
                 	SBCI R27,HIGH(-@1)
                 	ST   X,R30
                 	.ENDM
                 
                 	.MACRO __PUTW1RN
                 	MOVW R26,R@0
                 	SUBI R26,LOW(-@1)
                 	SBCI R27,HIGH(-@1)
                 	ST   X+,R30
                 	ST   X,R31
                 	.ENDM
                 
                 	.MACRO __PUTD1RN
                 	MOVW R26,R@0
                 	SUBI R26,LOW(-@1)
                 	SBCI R27,HIGH(-@1)
                 	CALL __PUTDP1
                 	.ENDM
                 
                 	.MACRO __PUTB1RNS
                 	MOVW R26,R@0
                 	ADIW R26,@1
                 	ST   X,R30
                 	.ENDM
                 
                 	.MACRO __PUTW1RNS
                 	MOVW R26,R@0
                 	ADIW R26,@1
                 	ST   X+,R30
                 	ST   X,R31
                 	.ENDM
                 
                 	.MACRO __PUTD1RNS
                 	MOVW R26,R@0
                 	ADIW R26,@1
                 	CALL __PUTDP1
                 	.ENDM
                 
                 	.MACRO __PUTB1RON
                 	MOV  R26,R@0
                 	MOV  R27,R@1
                 	SUBI R26,LOW(-@2)
                 	SBCI R27,HIGH(-@2)
                 	ST   X,R30
                 	.ENDM
                 
                 	.MACRO __PUTW1RON
                 	MOV  R26,R@0
                 	MOV  R27,R@1
                 	SUBI R26,LOW(-@2)
                 	SBCI R27,HIGH(-@2)
                 	ST   X+,R30
                 	ST   X,R31
                 	.ENDM
                 
                 	.MACRO __PUTD1RON
                 	MOV  R26,R@0
                 	MOV  R27,R@1
                 	SUBI R26,LOW(-@2)
                 	SBCI R27,HIGH(-@2)
                 	CALL __PUTDP1
                 	.ENDM
                 
                 	.MACRO __PUTB1RONS
                 	MOV  R26,R@0
                 	MOV  R27,R@1
                 	ADIW R26,@2
                 	ST   X,R30
                 	.ENDM
                 
                 	.MACRO __PUTW1RONS
                 	MOV  R26,R@0
                 	MOV  R27,R@1
                 	ADIW R26,@2
                 	ST   X+,R30
                 	ST   X,R31
                 	.ENDM
                 
                 	.MACRO __PUTD1RONS
                 	MOV  R26,R@0
                 	MOV  R27,R@1
                 	ADIW R26,@2
                 	CALL __PUTDP1
                 	.ENDM
                 
                 
                 	.MACRO __GETB1SX
                 	MOVW R30,R28
                 	SUBI R30,LOW(-@0)
                 	SBCI R31,HIGH(-@0)
                 	LD   R30,Z
                 	.ENDM
                 
                 	.MACRO __GETB1HSX
                 	MOVW R30,R28
                 	SUBI R30,LOW(-@0)
                 	SBCI R31,HIGH(-@0)
                 	LD   R31,Z
                 	.ENDM
                 
                 	.MACRO __GETW1SX
                 	MOVW R30,R28
                 	SUBI R30,LOW(-@0)
                 	SBCI R31,HIGH(-@0)
                 	LD   R0,Z+
                 	LD   R31,Z
                 	MOV  R30,R0
                 	.ENDM
                 
                 	.MACRO __GETD1SX
                 	MOVW R30,R28
                 	SUBI R30,LOW(-@0)
                 	SBCI R31,HIGH(-@0)
                 	LD   R0,Z+
                 	LD   R1,Z+
                 	LD   R22,Z+
                 	LD   R23,Z
                 	MOVW R30,R0
                 	.ENDM
                 
                 	.MACRO __GETB2SX
                 	MOVW R26,R28
                 	SUBI R26,LOW(-@0)
                 	SBCI R27,HIGH(-@0)
                 	LD   R26,X
                 	.ENDM
                 
                 	.MACRO __GETW2SX
                 	MOVW R26,R28
                 	SUBI R26,LOW(-@0)
                 	SBCI R27,HIGH(-@0)
                 	LD   R0,X+
                 	LD   R27,X
                 	MOV  R26,R0
                 	.ENDM
                 
                 	.MACRO __GETD2SX
                 	MOVW R26,R28
                 	SUBI R26,LOW(-@0)
                 	SBCI R27,HIGH(-@0)
                 	LD   R0,X+
                 	LD   R1,X+
                 	LD   R24,X+
                 	LD   R25,X
                 	MOVW R26,R0
                 	.ENDM
                 
                 	.MACRO __GETBRSX
                 	MOVW R30,R28
                 	SUBI R30,LOW(-@1)
                 	SBCI R31,HIGH(-@1)
                 	LD   R@0,Z
                 	.ENDM
                 
                 	.MACRO __GETWRSX
                 	MOVW R30,R28
                 	SUBI R30,LOW(-@2)
                 	SBCI R31,HIGH(-@2)
                 	LD   R@0,Z+
                 	LD   R@1,Z
                 	.ENDM
                 
                 	.MACRO __GETBRSX2
                 	MOVW R26,R28
                 	SUBI R26,LOW(-@1)
                 	SBCI R27,HIGH(-@1)
                 	LD   R@0,X
                 	.ENDM
                 
                 	.MACRO __GETWRSX2
                 	MOVW R26,R28
                 	SUBI R26,LOW(-@2)
                 	SBCI R27,HIGH(-@2)
                 	LD   R@0,X+
                 	LD   R@1,X
                 	.ENDM
                 
                 	.MACRO __LSLW8SX
                 	MOVW R30,R28
                 	SUBI R30,LOW(-@0)
                 	SBCI R31,HIGH(-@0)
                 	LD   R31,Z
                 	CLR  R30
                 	.ENDM
                 
                 	.MACRO __PUTB1SX
                 	MOVW R26,R28
                 	SUBI R26,LOW(-@0)
                 	SBCI R27,HIGH(-@0)
                 	ST   X,R30
                 	.ENDM
                 
                 	.MACRO __PUTW1SX
                 	MOVW R26,R28
                 	SUBI R26,LOW(-@0)
                 	SBCI R27,HIGH(-@0)
                 	ST   X+,R30
                 	ST   X,R31
                 	.ENDM
                 
                 	.MACRO __PUTD1SX
                 	MOVW R26,R28
                 	SUBI R26,LOW(-@0)
                 	SBCI R27,HIGH(-@0)
                 	ST   X+,R30
                 	ST   X+,R31
                 	ST   X+,R22
                 	ST   X,R23
                 	.ENDM
                 
                 	.MACRO __CLRW1SX
                 	MOVW R26,R28
                 	SUBI R26,LOW(-@0)
                 	SBCI R27,HIGH(-@0)
                 	ST   X+,R30
                 	ST   X,R30
                 	.ENDM
                 
                 	.MACRO __CLRD1SX
                 	MOVW R26,R28
                 	SUBI R26,LOW(-@0)
                 	SBCI R27,HIGH(-@0)
                 	ST   X+,R30
                 	ST   X+,R30
                 	ST   X+,R30
                 	ST   X,R30
                 	.ENDM
                 
                 	.MACRO __PUTB2SX
                 	MOVW R30,R28
                 	SUBI R30,LOW(-@0)
                 	SBCI R31,HIGH(-@0)
                 	ST   Z,R26
                 	.ENDM
                 
                 	.MACRO __PUTW2SX
                 	MOVW R30,R28
                 	SUBI R30,LOW(-@0)
                 	SBCI R31,HIGH(-@0)
                 	ST   Z+,R26
                 	ST   Z,R27
                 	.ENDM
                 
                 	.MACRO __PUTD2SX
                 	MOVW R30,R28
                 	SUBI R30,LOW(-@0)
                 	SBCI R31,HIGH(-@0)
                 	ST   Z+,R26
                 	ST   Z+,R27
                 	ST   Z+,R24
                 	ST   Z,R25
                 	.ENDM
                 
                 	.MACRO __PUTBSRX
                 	MOVW R30,R28
                 	SUBI R30,LOW(-@1)
                 	SBCI R31,HIGH(-@1)
                 	ST   Z,R@0
                 	.ENDM
                 
                 	.MACRO __PUTWSRX
                 	MOVW R30,R28
                 	SUBI R30,LOW(-@2)
                 	SBCI R31,HIGH(-@2)
                 	ST   Z+,R@0
                 	ST   Z,R@1
                 	.ENDM
                 
                 	.MACRO __PUTB1SNX
                 	MOVW R26,R28
                 	SUBI R26,LOW(-@0)
                 	SBCI R27,HIGH(-@0)
                 	LD   R0,X+
                 	LD   R27,X
                 	MOV  R26,R0
                 	SUBI R26,LOW(-@1)
                 	SBCI R27,HIGH(-@1)
                 	ST   X,R30
                 	.ENDM
                 
                 	.MACRO __PUTW1SNX
                 	MOVW R26,R28
                 	SUBI R26,LOW(-@0)
                 	SBCI R27,HIGH(-@0)
                 	LD   R0,X+
                 	LD   R27,X
                 	MOV  R26,R0
                 	SUBI R26,LOW(-@1)
                 	SBCI R27,HIGH(-@1)
                 	ST   X+,R30
                 	ST   X,R31
                 	.ENDM
                 
                 	.MACRO __PUTD1SNX
                 	MOVW R26,R28
                 	SUBI R26,LOW(-@0)
                 	SBCI R27,HIGH(-@0)
                 	LD   R0,X+
                 	LD   R27,X
                 	MOV  R26,R0
                 	SUBI R26,LOW(-@1)
                 	SBCI R27,HIGH(-@1)
                 	ST   X+,R30
                 	ST   X+,R31
                 	ST   X+,R22
                 	ST   X,R23
                 	.ENDM
                 
                 	.MACRO __MULBRR
                 	MULS R@0,R@1
                 	MOVW R30,R0
                 	.ENDM
                 
                 	.MACRO __MULBRRU
                 	MUL  R@0,R@1
                 	MOVW R30,R0
                 	.ENDM
                 
                 	.MACRO __MULBRR0
                 	MULS R@0,R@1
                 	.ENDM
                 
                 	.MACRO __MULBRRU0
                 	MUL  R@0,R@1
                 	.ENDM
                 
                 	.MACRO __MULBNWRU
                 	LDI  R26,@2
                 	MUL  R26,R@0
                 	MOVW R30,R0
                 	MUL  R26,R@1
                 	ADD  R31,R0
                 	.ENDM
                 
                 ;NAME DEFINITIONS FOR GLOBAL VARIABLES ALLOCATED TO REGISTERS
                 	.DEF _measure_counter=R4
                 	.DEF _measure_counter_msb=R5
                 	.DEF _rx_wr_index=R7
                 	.DEF _rx_rd_index=R6
                 	.DEF _rx_counter=R9
                 	.DEF __lcd_x=R8
                 	.DEF __lcd_y=R11
                 	.DEF __lcd_maxx=R10
                 
                 	.CSEG
                 	.ORG 0x00
                 
                 ;START OF CODE MARKER
                 __START_OF_CODE:
                 
                 ;INTERRUPT VECTORS
000000 940c 1089 	JMP  __RESET
000002 940c 0000 	JMP  0x00
000004 940c 0000 	JMP  0x00
000006 940c 10db 	JMP  _ext_int2_isr
000008 940c 0000 	JMP  0x00
00000a 940c 0000 	JMP  0x00
00000c 940c 0000 	JMP  0x00
00000e 940c 0000 	JMP  0x00
000010 940c 0000 	JMP  0x00
000012 940c 10e1 	JMP  _timer1_ovf_isr
000014 940c 0000 	JMP  0x00
000016 940c 0000 	JMP  0x00
000018 940c 0000 	JMP  0x00
00001a 940c 10b8 	JMP  _usart_rx_isr
00001c 940c 0000 	JMP  0x00
00001e 940c 0000 	JMP  0x00
000020 940c 0000 	JMP  0x00
000022 940c 0000 	JMP  0x00
000024 940c 0000 	JMP  0x00
000026 940c 0000 	JMP  0x00
000028 940c 0000 	JMP  0x00
                 
                 _fuzzy:
00002a 000b
00002b 000b
00002c 000b
00002d 000b      	.DB  0xB,0x0,0xB,0x0,0xB,0x0,0xB,0x0
00002e 000b
00002f 000b
000030 000b
000031 000b      	.DB  0xB,0x0,0xB,0x0,0xB,0x0,0xB,0x0
000032 000b
000033 000c
000034 000c
000035 000d      	.DB  0xB,0x0,0xC,0x0,0xC,0x0,0xD,0x0
000036 000c
000037 000c
000038 000b
000039 000c      	.DB  0xC,0x0,0xC,0x0,0xB,0x0,0xC,0x0
00003a 000c
00003b 000d
00003c 000e
00003d 000d      	.DB  0xC,0x0,0xD,0x0,0xE,0x0,0xD,0x0
00003e 000b
00003f 0011
000040 001e
000041 001e      	.DB  0xB,0x0,0x11,0x0,0x1E,0x0,0x1E,0x0
000042 001e
000043 001e
000044 001e
000045 002c      	.DB  0x1E,0x0,0x1E,0x0,0x1E,0x0,0x2C,0x0
000046 0033
000047 0039
000048 003d
000049 0041      	.DB  0x33,0x0,0x39,0x0,0x3D,0x0,0x41,0x0
00004a 0046
00004b 0046
00004c 0046
00004d 0046      	.DB  0x46,0x0,0x46,0x0,0x46,0x0,0x46,0x0
00004e 0046
00004f 0046
000050 0046
000051 0046      	.DB  0x46,0x0,0x46,0x0,0x46,0x0,0x46,0x0
000052 0046
000053 000b
000054 000b
000055 000b      	.DB  0x46,0x0,0xB,0x0,0xB,0x0,0xB,0x0
000056 000b
000057 000b
000058 000b
000059 000b      	.DB  0xB,0x0,0xB,0x0,0xB,0x0,0xB,0x0
00005a 000b
00005b 000b
00005c 000c
00005d 000c      	.DB  0xB,0x0,0xB,0x0,0xC,0x0,0xC,0x0
00005e 000d
00005f 000c
000060 000c
000061 000b      	.DB  0xD,0x0,0xC,0x0,0xC,0x0,0xB,0x0
000062 000c
000063 000c
000064 000d
000065 000e      	.DB  0xC,0x0,0xC,0x0,0xD,0x0,0xE,0x0
000066 000d
000067 000b
000068 0011
000069 001e      	.DB  0xD,0x0,0xB,0x0,0x11,0x0,0x1E,0x0
00006a 001e
00006b 001e
00006c 001e
00006d 001e      	.DB  0x1E,0x0,0x1E,0x0,0x1E,0x0,0x1E,0x0
00006e 002c
00006f 0033
000070 0039
000071 003d      	.DB  0x2C,0x0,0x33,0x0,0x39,0x0,0x3D,0x0
000072 0041
000073 0046
000074 0046
000075 0046      	.DB  0x41,0x0,0x46,0x0,0x46,0x0,0x46,0x0
000076 0046
000077 0046
000078 0046
000079 0046      	.DB  0x46,0x0,0x46,0x0,0x46,0x0,0x46,0x0
00007a 0046
00007b 0046
00007c 000b
00007d 000b      	.DB  0x46,0x0,0x46,0x0,0xB,0x0,0xB,0x0
00007e 000b
00007f 000b
000080 000b
000081 000b      	.DB  0xB,0x0,0xB,0x0,0xB,0x0,0xB,0x0
000082 000b
000083 000b
000084 000b
000085 000c      	.DB  0xB,0x0,0xB,0x0,0xB,0x0,0xC,0x0
000086 000c
000087 000d
000088 000c
000089 000c      	.DB  0xC,0x0,0xD,0x0,0xC,0x0,0xC,0x0
00008a 000b
00008b 000c
00008c 000c
00008d 000d      	.DB  0xB,0x0,0xC,0x0,0xC,0x0,0xD,0x0
00008e 000e
00008f 000d
000090 000b
000091 0011      	.DB  0xE,0x0,0xD,0x0,0xB,0x0,0x11,0x0
000092 001e
000093 001e
000094 001e
000095 001e      	.DB  0x1E,0x0,0x1E,0x0,0x1E,0x0,0x1E,0x0
000096 001e
000097 002c
000098 0033
000099 0039      	.DB  0x1E,0x0,0x2C,0x0,0x33,0x0,0x39,0x0
00009a 003d
00009b 0041
00009c 0046
00009d 0046      	.DB  0x3D,0x0,0x41,0x0,0x46,0x0,0x46,0x0
00009e 0046
00009f 0046
0000a0 0046
0000a1 0046      	.DB  0x46,0x0,0x46,0x0,0x46,0x0,0x46,0x0
0000a2 0046
0000a3 0046
0000a4 0046
0000a5 000b      	.DB  0x46,0x0,0x46,0x0,0x46,0x0,0xB,0x0
0000a6 000b
0000a7 000b
0000a8 000b
0000a9 000b      	.DB  0xB,0x0,0xB,0x0,0xB,0x0,0xB,0x0
0000aa 000b
0000ab 000b
0000ac 000b
0000ad 000b      	.DB  0xB,0x0,0xB,0x0,0xB,0x0,0xB,0x0
0000ae 000c
0000af 000c
0000b0 000d
0000b1 000c      	.DB  0xC,0x0,0xC,0x0,0xD,0x0,0xC,0x0
0000b2 000c
0000b3 000b
0000b4 000c
0000b5 000c      	.DB  0xC,0x0,0xB,0x0,0xC,0x0,0xC,0x0
0000b6 000d
0000b7 000e
0000b8 000d
0000b9 000b      	.DB  0xD,0x0,0xE,0x0,0xD,0x0,0xB,0x0
0000ba 0011
0000bb 001e
0000bc 001e
0000bd 001e      	.DB  0x11,0x0,0x1E,0x0,0x1E,0x0,0x1E,0x0
0000be 001e
0000bf 001e
0000c0 002c
0000c1 0033      	.DB  0x1E,0x0,0x1E,0x0,0x2C,0x0,0x33,0x0
0000c2 0039
0000c3 003d
0000c4 0041
0000c5 0046      	.DB  0x39,0x0,0x3D,0x0,0x41,0x0,0x46,0x0
0000c6 0046
0000c7 0046
0000c8 0046
0000c9 0046      	.DB  0x46,0x0,0x46,0x0,0x46,0x0,0x46,0x0
0000ca 0046
0000cb 0046
0000cc 0046
0000cd 0046      	.DB  0x46,0x0,0x46,0x0,0x46,0x0,0x46,0x0
0000ce 000b
0000cf 000b
0000d0 000b
0000d1 000b      	.DB  0xB,0x0,0xB,0x0,0xB,0x0,0xB,0x0
0000d2 000b
0000d3 000b
0000d4 000b
0000d5 000b      	.DB  0xB,0x0,0xB,0x0,0xB,0x0,0xB,0x0
0000d6 000b
0000d7 000c
0000d8 000c
0000d9 000d      	.DB  0xB,0x0,0xC,0x0,0xC,0x0,0xD,0x0
0000da 000c
0000db 000c
0000dc 000b
0000dd 000c      	.DB  0xC,0x0,0xC,0x0,0xB,0x0,0xC,0x0
0000de 000c
0000df 000d
0000e0 000e
0000e1 000d      	.DB  0xC,0x0,0xD,0x0,0xE,0x0,0xD,0x0
0000e2 000b
0000e3 0011
0000e4 001e
0000e5 001e      	.DB  0xB,0x0,0x11,0x0,0x1E,0x0,0x1E,0x0
0000e6 001e
0000e7 001e
0000e8 001e
0000e9 002c      	.DB  0x1E,0x0,0x1E,0x0,0x1E,0x0,0x2C,0x0
0000ea 0033
0000eb 0039
0000ec 003d
0000ed 0041      	.DB  0x33,0x0,0x39,0x0,0x3D,0x0,0x41,0x0
0000ee 0046
0000ef 0046
0000f0 0046
0000f1 0046      	.DB  0x46,0x0,0x46,0x0,0x46,0x0,0x46,0x0
0000f2 0046
0000f3 0046
0000f4 0046
0000f5 0046      	.DB  0x46,0x0,0x46,0x0,0x46,0x0,0x46,0x0
0000f6 0046
0000f7 000b
0000f8 000b
0000f9 000b      	.DB  0x46,0x0,0xB,0x0,0xB,0x0,0xB,0x0
0000fa 000b
0000fb 000b
0000fc 000b
0000fd 000b      	.DB  0xB,0x0,0xB,0x0,0xB,0x0,0xB,0x0
0000fe 000b
0000ff 000b
000100 000c
000101 000c      	.DB  0xB,0x0,0xB,0x0,0xC,0x0,0xC,0x0
000102 000d
000103 000c
000104 000c
000105 000b      	.DB  0xD,0x0,0xC,0x0,0xC,0x0,0xB,0x0
000106 000c
000107 000c
000108 000d
000109 000e      	.DB  0xC,0x0,0xC,0x0,0xD,0x0,0xE,0x0
00010a 000d
00010b 000b
00010c 0011
00010d 001e      	.DB  0xD,0x0,0xB,0x0,0x11,0x0,0x1E,0x0
00010e 001e
00010f 001e
000110 001e
000111 001e      	.DB  0x1E,0x0,0x1E,0x0,0x1E,0x0,0x1E,0x0
000112 002c
000113 0033
000114 0039
000115 003d      	.DB  0x2C,0x0,0x33,0x0,0x39,0x0,0x3D,0x0
000116 0041
000117 0046
000118 0046
000119 0046      	.DB  0x41,0x0,0x46,0x0,0x46,0x0,0x46,0x0
00011a 0046
00011b 0046
00011c 0046
00011d 0046      	.DB  0x46,0x0,0x46,0x0,0x46,0x0,0x46,0x0
00011e 0046
00011f 0046
000120 000b
000121 000b      	.DB  0x46,0x0,0x46,0x0,0xB,0x0,0xB,0x0
000122 000b
000123 000b
000124 000b
000125 000b      	.DB  0xB,0x0,0xB,0x0,0xB,0x0,0xB,0x0
000126 000b
000127 000b
000128 000b
000129 000c      	.DB  0xB,0x0,0xB,0x0,0xB,0x0,0xC,0x0
00012a 000c
00012b 000d
00012c 000c
00012d 000c      	.DB  0xC,0x0,0xD,0x0,0xC,0x0,0xC,0x0
00012e 000b
00012f 000c
000130 000c
000131 000d      	.DB  0xB,0x0,0xC,0x0,0xC,0x0,0xD,0x0
000132 000e
000133 000d
000134 000b
000135 0011      	.DB  0xE,0x0,0xD,0x0,0xB,0x0,0x11,0x0
000136 001e
000137 001e
000138 001e
000139 001e      	.DB  0x1E,0x0,0x1E,0x0,0x1E,0x0,0x1E,0x0
00013a 001e
00013b 002c
00013c 0033
00013d 0039      	.DB  0x1E,0x0,0x2C,0x0,0x33,0x0,0x39,0x0
00013e 003d
00013f 0041
000140 0046
000141 0046      	.DB  0x3D,0x0,0x41,0x0,0x46,0x0,0x46,0x0
000142 0046
000143 0046
000144 0046
000145 0046      	.DB  0x46,0x0,0x46,0x0,0x46,0x0,0x46,0x0
000146 0046
000147 0046
000148 0046
000149 000b      	.DB  0x46,0x0,0x46,0x0,0x46,0x0,0xB,0x0
00014a 000b
00014b 000b
00014c 000b
00014d 000b      	.DB  0xB,0x0,0xB,0x0,0xB,0x0,0xB,0x0
00014e 000b
00014f 000b
000150 000b
000151 000b      	.DB  0xB,0x0,0xB,0x0,0xB,0x0,0xB,0x0
000152 000c
000153 000c
000154 000d
000155 000c      	.DB  0xC,0x0,0xC,0x0,0xD,0x0,0xC,0x0
000156 000c
000157 000b
000158 000c
000159 000c      	.DB  0xC,0x0,0xB,0x0,0xC,0x0,0xC,0x0
00015a 000d
00015b 000e
00015c 000d
00015d 000b      	.DB  0xD,0x0,0xE,0x0,0xD,0x0,0xB,0x0
00015e 0011
00015f 001e
000160 001e
000161 001e      	.DB  0x11,0x0,0x1E,0x0,0x1E,0x0,0x1E,0x0
000162 001e
000163 001e
000164 002c
000165 0033      	.DB  0x1E,0x0,0x1E,0x0,0x2C,0x0,0x33,0x0
000166 0039
000167 003d
000168 0041
000169 0046      	.DB  0x39,0x0,0x3D,0x0,0x41,0x0,0x46,0x0
00016a 0046
00016b 0046
00016c 0046
00016d 0046      	.DB  0x46,0x0,0x46,0x0,0x46,0x0,0x46,0x0
00016e 0046
00016f 0046
000170 0046
000171 0046      	.DB  0x46,0x0,0x46,0x0,0x46,0x0,0x46,0x0
000172 000b
000173 000b
000174 000b
000175 000b      	.DB  0xB,0x0,0xB,0x0,0xB,0x0,0xB,0x0
000176 000b
000177 000b
000178 000b
000179 000b      	.DB  0xB,0x0,0xB,0x0,0xB,0x0,0xB,0x0
00017a 000b
00017b 000c
00017c 000c
00017d 000d      	.DB  0xB,0x0,0xC,0x0,0xC,0x0,0xD,0x0
00017e 000c
00017f 000c
000180 000b
000181 000c      	.DB  0xC,0x0,0xC,0x0,0xB,0x0,0xC,0x0
000182 000c
000183 000d
000184 000e
000185 000d      	.DB  0xC,0x0,0xD,0x0,0xE,0x0,0xD,0x0
000186 000b
000187 0011
000188 001e
000189 001e      	.DB  0xB,0x0,0x11,0x0,0x1E,0x0,0x1E,0x0
00018a 001e
00018b 001e
00018c 001e
00018d 002c      	.DB  0x1E,0x0,0x1E,0x0,0x1E,0x0,0x2C,0x0
00018e 0033
00018f 0039
000190 003d
000191 0041      	.DB  0x33,0x0,0x39,0x0,0x3D,0x0,0x41,0x0
000192 0046
000193 0046
000194 0046
000195 0046      	.DB  0x46,0x0,0x46,0x0,0x46,0x0,0x46,0x0
000196 0046
000197 0046
000198 0046
000199 0046      	.DB  0x46,0x0,0x46,0x0,0x46,0x0,0x46,0x0
00019a 0046
00019b 000b
00019c 000b
00019d 000b      	.DB  0x46,0x0,0xB,0x0,0xB,0x0,0xB,0x0
00019e 000b
00019f 000b
0001a0 000b
0001a1 000b      	.DB  0xB,0x0,0xB,0x0,0xB,0x0,0xB,0x0
0001a2 000b
0001a3 000b
0001a4 000c
0001a5 000c      	.DB  0xB,0x0,0xB,0x0,0xC,0x0,0xC,0x0
0001a6 000d
0001a7 000c
0001a8 000c
0001a9 000b      	.DB  0xD,0x0,0xC,0x0,0xC,0x0,0xB,0x0
0001aa 000c
0001ab 000c
0001ac 000d
0001ad 000e      	.DB  0xC,0x0,0xC,0x0,0xD,0x0,0xE,0x0
0001ae 000d
0001af 000b
0001b0 0011
0001b1 001e      	.DB  0xD,0x0,0xB,0x0,0x11,0x0,0x1E,0x0
0001b2 001e
0001b3 001e
0001b4 001e
0001b5 001e      	.DB  0x1E,0x0,0x1E,0x0,0x1E,0x0,0x1E,0x0
0001b6 002c
0001b7 0033
0001b8 0039
0001b9 003d      	.DB  0x2C,0x0,0x33,0x0,0x39,0x0,0x3D,0x0
0001ba 0041
0001bb 0046
0001bc 0046
0001bd 0046      	.DB  0x41,0x0,0x46,0x0,0x46,0x0,0x46,0x0
0001be 0046
0001bf 0046
0001c0 0046
0001c1 0046      	.DB  0x46,0x0,0x46,0x0,0x46,0x0,0x46,0x0
0001c2 0046
0001c3 0046
0001c4 000b
0001c5 000b      	.DB  0x46,0x0,0x46,0x0,0xB,0x0,0xB,0x0
0001c6 000b
0001c7 000b
0001c8 000b
0001c9 000b      	.DB  0xB,0x0,0xB,0x0,0xB,0x0,0xB,0x0
0001ca 000b
0001cb 000b
0001cc 000b
0001cd 000c      	.DB  0xB,0x0,0xB,0x0,0xB,0x0,0xC,0x0
0001ce 000c
0001cf 000d
0001d0 000c
0001d1 000c      	.DB  0xC,0x0,0xD,0x0,0xC,0x0,0xC,0x0
0001d2 000b
0001d3 000c
0001d4 000c
0001d5 000d      	.DB  0xB,0x0,0xC,0x0,0xC,0x0,0xD,0x0
0001d6 000e
0001d7 000d
0001d8 000b
0001d9 0011      	.DB  0xE,0x0,0xD,0x0,0xB,0x0,0x11,0x0
0001da 001e
0001db 001e
0001dc 001e
0001dd 001e      	.DB  0x1E,0x0,0x1E,0x0,0x1E,0x0,0x1E,0x0
0001de 001e
0001df 002c
0001e0 0033
0001e1 0039      	.DB  0x1E,0x0,0x2C,0x0,0x33,0x0,0x39,0x0
0001e2 003d
0001e3 0041
0001e4 0046
0001e5 0046      	.DB  0x3D,0x0,0x41,0x0,0x46,0x0,0x46,0x0
0001e6 0046
0001e7 0046
0001e8 0046
0001e9 0046      	.DB  0x46,0x0,0x46,0x0,0x46,0x0,0x46,0x0
0001ea 0046
0001eb 0046
0001ec 0046
0001ed 000c      	.DB  0x46,0x0,0x46,0x0,0x46,0x0,0xC,0x0
0001ee 000c
0001ef 000c
0001f0 000c
0001f1 000c      	.DB  0xC,0x0,0xC,0x0,0xC,0x0,0xC,0x0
0001f2 000c
0001f3 000c
0001f4 000c
0001f5 000c      	.DB  0xC,0x0,0xC,0x0,0xC,0x0,0xC,0x0
0001f6 000c
0001f7 000c
0001f8 000d
0001f9 000c      	.DB  0xC,0x0,0xC,0x0,0xD,0x0,0xC,0x0
0001fa 000c
0001fb 000c
0001fc 000c
0001fd 000c      	.DB  0xC,0x0,0xC,0x0,0xC,0x0,0xC,0x0
0001fe 000d
0001ff 000e
000200 000d
000201 000c      	.DB  0xD,0x0,0xE,0x0,0xD,0x0,0xC,0x0
000202 0011
000203 001e
000204 001e
000205 001e      	.DB  0x11,0x0,0x1E,0x0,0x1E,0x0,0x1E,0x0
000206 001e
000207 001e
000208 002c
000209 0033      	.DB  0x1E,0x0,0x1E,0x0,0x2C,0x0,0x33,0x0
00020a 0039
00020b 003d
00020c 0041
00020d 0046      	.DB  0x39,0x0,0x3D,0x0,0x41,0x0,0x46,0x0
00020e 0046
00020f 0046
000210 0046
000211 0046      	.DB  0x46,0x0,0x46,0x0,0x46,0x0,0x46,0x0
000212 0046
000213 0046
000214 0046
000215 0046      	.DB  0x46,0x0,0x46,0x0,0x46,0x0,0x46,0x0
000216 000c
000217 000c
000218 000c
000219 000c      	.DB  0xC,0x0,0xC,0x0,0xC,0x0,0xC,0x0
00021a 000c
00021b 000c
00021c 000c
00021d 000c      	.DB  0xC,0x0,0xC,0x0,0xC,0x0,0xC,0x0
00021e 000c
00021f 000c
000220 000c
000221 000d      	.DB  0xC,0x0,0xC,0x0,0xC,0x0,0xD,0x0
000222 000c
000223 000c
000224 000c
000225 000c      	.DB  0xC,0x0,0xC,0x0,0xC,0x0,0xC,0x0
000226 000c
000227 000d
000228 000e
000229 000d      	.DB  0xC,0x0,0xD,0x0,0xE,0x0,0xD,0x0
00022a 000c
00022b 0011
00022c 001e
00022d 001e      	.DB  0xC,0x0,0x11,0x0,0x1E,0x0,0x1E,0x0
00022e 001e
00022f 001e
000230 001e
000231 002c      	.DB  0x1E,0x0,0x1E,0x0,0x1E,0x0,0x2C,0x0
000232 0033
000233 0039
000234 003d
000235 0041      	.DB  0x33,0x0,0x39,0x0,0x3D,0x0,0x41,0x0
000236 0046
000237 0046
000238 0046
000239 0046      	.DB  0x46,0x0,0x46,0x0,0x46,0x0,0x46,0x0
00023a 0046
00023b 0046
00023c 0046
00023d 0046      	.DB  0x46,0x0,0x46,0x0,0x46,0x0,0x46,0x0
00023e 0046
00023f 000c
000240 000c
000241 000c      	.DB  0x46,0x0,0xC,0x0,0xC,0x0,0xC,0x0
000242 000c
000243 000c
000244 000c
000245 000c      	.DB  0xC,0x0,0xC,0x0,0xC,0x0,0xC,0x0
000246 000c
000247 000c
000248 000c
000249 000c      	.DB  0xC,0x0,0xC,0x0,0xC,0x0,0xC,0x0
00024a 000d
00024b 000c
00024c 000c
00024d 000c      	.DB  0xD,0x0,0xC,0x0,0xC,0x0,0xC,0x0
00024e 000c
00024f 000c
000250 000d
000251 000e      	.DB  0xC,0x0,0xC,0x0,0xD,0x0,0xE,0x0
000252 000d
000253 000c
000254 0011
000255 001e      	.DB  0xD,0x0,0xC,0x0,0x11,0x0,0x1E,0x0
000256 001e
000257 001e
000258 001e
000259 001e      	.DB  0x1E,0x0,0x1E,0x0,0x1E,0x0,0x1E,0x0
00025a 002c
00025b 0033
00025c 0039
00025d 003d      	.DB  0x2C,0x0,0x33,0x0,0x39,0x0,0x3D,0x0
00025e 0042
00025f 0047
000260 0047
000261 0047      	.DB  0x42,0x0,0x47,0x0,0x47,0x0,0x47,0x0
000262 0047
000263 0047
000264 0047
000265 0047      	.DB  0x47,0x0,0x47,0x0,0x47,0x0,0x47,0x0
000266 0047
000267 0047
000268 000c
000269 000c      	.DB  0x47,0x0,0x47,0x0,0xC,0x0,0xC,0x0
00026a 000c
00026b 000c
00026c 000c
00026d 000c      	.DB  0xC,0x0,0xC,0x0,0xC,0x0,0xC,0x0
00026e 000c
00026f 000c
000270 000c
000271 000c      	.DB  0xC,0x0,0xC,0x0,0xC,0x0,0xC,0x0
000272 000c
000273 000d
000274 000c
000275 000c      	.DB  0xC,0x0,0xD,0x0,0xC,0x0,0xC,0x0
000276 000c
000277 000c
000278 000c
000279 000d      	.DB  0xC,0x0,0xC,0x0,0xC,0x0,0xD,0x0
00027a 000e
00027b 000d
00027c 000c
00027d 0011      	.DB  0xE,0x0,0xD,0x0,0xC,0x0,0x11,0x0
00027e 001e
00027f 001e
000280 001e
000281 001e      	.DB  0x1E,0x0,0x1E,0x0,0x1E,0x0,0x1E,0x0
000282 001e
000283 002c
000284 0033
000285 0039      	.DB  0x1E,0x0,0x2C,0x0,0x33,0x0,0x39,0x0
000286 003d
000287 0042
000288 0047
000289 0047      	.DB  0x3D,0x0,0x42,0x0,0x47,0x0,0x47,0x0
00028a 0047
00028b 0047
00028c 0047
00028d 0047      	.DB  0x47,0x0,0x47,0x0,0x47,0x0,0x47,0x0
00028e 0047
00028f 0047
000290 0047
000291 000c      	.DB  0x47,0x0,0x47,0x0,0x47,0x0,0xC,0x0
000292 000c
000293 000c
000294 000c
000295 000c      	.DB  0xC,0x0,0xC,0x0,0xC,0x0,0xC,0x0
000296 000c
000297 000c
000298 000c
000299 000c      	.DB  0xC,0x0,0xC,0x0,0xC,0x0,0xC,0x0
00029a 000c
00029b 000c
00029c 000d
00029d 000c      	.DB  0xC,0x0,0xC,0x0,0xD,0x0,0xC,0x0
00029e 000c
00029f 000c
0002a0 000c
0002a1 000c      	.DB  0xC,0x0,0xC,0x0,0xC,0x0,0xC,0x0
0002a2 000d
0002a3 000e
0002a4 000d
0002a5 000c      	.DB  0xD,0x0,0xE,0x0,0xD,0x0,0xC,0x0
0002a6 0011
0002a7 001e
0002a8 001e
0002a9 001e      	.DB  0x11,0x0,0x1E,0x0,0x1E,0x0,0x1E,0x0
0002aa 001e
0002ab 001e
0002ac 002d
0002ad 0033      	.DB  0x1E,0x0,0x1E,0x0,0x2D,0x0,0x33,0x0
0002ae 0039
0002af 003d
0002b0 0042
0002b1 0047      	.DB  0x39,0x0,0x3D,0x0,0x42,0x0,0x47,0x0
0002b2 0047
0002b3 0047
0002b4 0047
0002b5 0047      	.DB  0x47,0x0,0x47,0x0,0x47,0x0,0x47,0x0
0002b6 0047
0002b7 0047
0002b8 0047
0002b9 0047      	.DB  0x47,0x0,0x47,0x0,0x47,0x0,0x47,0x0
0002ba 000d
0002bb 000d
0002bc 000d
0002bd 000d      	.DB  0xD,0x0,0xD,0x0,0xD,0x0,0xD,0x0
0002be 000d
0002bf 000d
0002c0 000d
0002c1 000d      	.DB  0xD,0x0,0xD,0x0,0xD,0x0,0xD,0x0
0002c2 000d
0002c3 000d
0002c4 000d
0002c5 000d      	.DB  0xD,0x0,0xD,0x0,0xD,0x0,0xD,0x0
0002c6 000d
0002c7 000d
0002c8 000d
0002c9 000d      	.DB  0xD,0x0,0xD,0x0,0xD,0x0,0xD,0x0
0002ca 000d
0002cb 000d
0002cc 000e
0002cd 000d      	.DB  0xD,0x0,0xD,0x0,0xE,0x0,0xD,0x0
0002ce 000d
0002cf 0011
0002d0 001e
0002d1 001e      	.DB  0xD,0x0,0x11,0x0,0x1E,0x0,0x1E,0x0
0002d2 001e
0002d3 001e
0002d4 001e
0002d5 002d      	.DB  0x1E,0x0,0x1E,0x0,0x1E,0x0,0x2D,0x0
0002d6 0034
0002d7 0039
0002d8 003d
0002d9 0043      	.DB  0x34,0x0,0x39,0x0,0x3D,0x0,0x43,0x0
0002da 0048
0002db 0048
0002dc 0048
0002dd 0048      	.DB  0x48,0x0,0x48,0x0,0x48,0x0,0x48,0x0
0002de 0048
0002df 0048
0002e0 0048
0002e1 0048      	.DB  0x48,0x0,0x48,0x0,0x48,0x0,0x48,0x0
0002e2 0048
0002e3 000d
0002e4 000d
0002e5 000d      	.DB  0x48,0x0,0xD,0x0,0xD,0x0,0xD,0x0
0002e6 000d
0002e7 000d
0002e8 000d
0002e9 000d      	.DB  0xD,0x0,0xD,0x0,0xD,0x0,0xD,0x0
0002ea 000d
0002eb 000d
0002ec 000d
0002ed 000d      	.DB  0xD,0x0,0xD,0x0,0xD,0x0,0xD,0x0
0002ee 000d
0002ef 000d
0002f0 000d
0002f1 000d      	.DB  0xD,0x0,0xD,0x0,0xD,0x0,0xD,0x0
0002f2 000d
0002f3 000d
0002f4 000d
0002f5 000e      	.DB  0xD,0x0,0xD,0x0,0xD,0x0,0xE,0x0
0002f6 000d
0002f7 000d
0002f8 0011
0002f9 001e      	.DB  0xD,0x0,0xD,0x0,0x11,0x0,0x1E,0x0
0002fa 001e
0002fb 001e
0002fc 001e
0002fd 001e      	.DB  0x1E,0x0,0x1E,0x0,0x1E,0x0,0x1E,0x0
0002fe 002e
0002ff 0035
000300 0039
000301 003e      	.DB  0x2E,0x0,0x35,0x0,0x39,0x0,0x3E,0x0
000302 0043
000303 0049
000304 0049
000305 0049      	.DB  0x43,0x0,0x49,0x0,0x49,0x0,0x49,0x0
000306 0049
000307 0049
000308 0049
000309 0049      	.DB  0x49,0x0,0x49,0x0,0x49,0x0,0x49,0x0
00030a 0049
00030b 0049
00030c 000d
00030d 000d      	.DB  0x49,0x0,0x49,0x0,0xD,0x0,0xD,0x0
00030e 000d
00030f 000d
000310 000d
000311 000d      	.DB  0xD,0x0,0xD,0x0,0xD,0x0,0xD,0x0
000312 000d
000313 000d
000314 000d
000315 000d      	.DB  0xD,0x0,0xD,0x0,0xD,0x0,0xD,0x0
000316 000d
000317 000d
000318 000d
000319 000d      	.DB  0xD,0x0,0xD,0x0,0xD,0x0,0xD,0x0
00031a 000d
00031b 000d
00031c 000d
00031d 000d      	.DB  0xD,0x0,0xD,0x0,0xD,0x0,0xD,0x0
00031e 000e
00031f 000d
000320 000d
000321 0011      	.DB  0xE,0x0,0xD,0x0,0xD,0x0,0x11,0x0
000322 001e
000323 001e
000324 001e
000325 001e      	.DB  0x1E,0x0,0x1E,0x0,0x1E,0x0,0x1E,0x0
000326 001e
000327 002e
000328 0035
000329 0039      	.DB  0x1E,0x0,0x2E,0x0,0x35,0x0,0x39,0x0
00032a 003e
00032b 0043
00032c 0049
00032d 0049      	.DB  0x3E,0x0,0x43,0x0,0x49,0x0,0x49,0x0
00032e 0049
00032f 0049
000330 0049
000331 0049      	.DB  0x49,0x0,0x49,0x0,0x49,0x0,0x49,0x0
000332 0049
000333 0049
000334 0049
000335 000d      	.DB  0x49,0x0,0x49,0x0,0x49,0x0,0xD,0x0
000336 000d
000337 000d
000338 000d
000339 000d      	.DB  0xD,0x0,0xD,0x0,0xD,0x0,0xD,0x0
00033a 000d
00033b 000d
00033c 000d
00033d 000d      	.DB  0xD,0x0,0xD,0x0,0xD,0x0,0xD,0x0
00033e 000d
00033f 000d
000340 000d
000341 000d      	.DB  0xD,0x0,0xD,0x0,0xD,0x0,0xD,0x0
000342 000d
000343 000d
000344 000d
000345 000d      	.DB  0xD,0x0,0xD,0x0,0xD,0x0,0xD,0x0
000346 000d
000347 000e
000348 000d
000349 000d      	.DB  0xD,0x0,0xE,0x0,0xD,0x0,0xD,0x0
00034a 0011
00034b 001e
00034c 001e
00034d 001e      	.DB  0x11,0x0,0x1E,0x0,0x1E,0x0,0x1E,0x0
00034e 001e
00034f 001e
000350 002d
000351 0034      	.DB  0x1E,0x0,0x1E,0x0,0x2D,0x0,0x34,0x0
000352 0039
000353 003d
000354 0043
000355 0048      	.DB  0x39,0x0,0x3D,0x0,0x43,0x0,0x48,0x0
000356 0048
000357 0048
000358 0048
000359 0048      	.DB  0x48,0x0,0x48,0x0,0x48,0x0,0x48,0x0
00035a 0048
00035b 0048
00035c 0048
00035d 0048      	.DB  0x48,0x0,0x48,0x0,0x48,0x0,0x48,0x0
00035e 000c
00035f 000c
000360 000c
000361 000c      	.DB  0xC,0x0,0xC,0x0,0xC,0x0,0xC,0x0
000362 000c
000363 000c
000364 000c
000365 000c      	.DB  0xC,0x0,0xC,0x0,0xC,0x0,0xC,0x0
000366 000c
000367 000c
000368 000c
000369 000d      	.DB  0xC,0x0,0xC,0x0,0xC,0x0,0xD,0x0
00036a 000c
00036b 000c
00036c 000c
00036d 000c      	.DB  0xC,0x0,0xC,0x0,0xC,0x0,0xC,0x0
00036e 000c
00036f 000d
000370 000e
000371 000d      	.DB  0xC,0x0,0xD,0x0,0xE,0x0,0xD,0x0
000372 000c
000373 0011
000374 001e
000375 001e      	.DB  0xC,0x0,0x11,0x0,0x1E,0x0,0x1E,0x0
000376 001e
000377 001e
000378 001e
000379 002d      	.DB  0x1E,0x0,0x1E,0x0,0x1E,0x0,0x2D,0x0
00037a 0033
00037b 0039
00037c 003d
00037d 0042      	.DB  0x33,0x0,0x39,0x0,0x3D,0x0,0x42,0x0
00037e 0047
00037f 0047
000380 0047
000381 0047      	.DB  0x47,0x0,0x47,0x0,0x47,0x0,0x47,0x0
000382 0047
000383 0047
000384 0047
000385 0047      	.DB  0x47,0x0,0x47,0x0,0x47,0x0,0x47,0x0
000386 0047
000387 000c
000388 000c
000389 000c      	.DB  0x47,0x0,0xC,0x0,0xC,0x0,0xC,0x0
00038a 000c
00038b 000c
00038c 000c
00038d 000c      	.DB  0xC,0x0,0xC,0x0,0xC,0x0,0xC,0x0
00038e 000c
00038f 000c
000390 000c
000391 000c      	.DB  0xC,0x0,0xC,0x0,0xC,0x0,0xC,0x0
000392 000d
000393 000c
000394 000c
000395 000c      	.DB  0xD,0x0,0xC,0x0,0xC,0x0,0xC,0x0
000396 000c
000397 000c
000398 000d
000399 000e      	.DB  0xC,0x0,0xC,0x0,0xD,0x0,0xE,0x0
00039a 000d
00039b 000c
00039c 0011
00039d 001e      	.DB  0xD,0x0,0xC,0x0,0x11,0x0,0x1E,0x0
00039e 001e
00039f 001e
0003a0 001e
0003a1 001e      	.DB  0x1E,0x0,0x1E,0x0,0x1E,0x0,0x1E,0x0
0003a2 002c
0003a3 0033
0003a4 0039
0003a5 003d      	.DB  0x2C,0x0,0x33,0x0,0x39,0x0,0x3D,0x0
0003a6 0042
0003a7 0047
0003a8 0047
0003a9 0047      	.DB  0x42,0x0,0x47,0x0,0x47,0x0,0x47,0x0
0003aa 0047
0003ab 0047
0003ac 0047
0003ad 0047      	.DB  0x47,0x0,0x47,0x0,0x47,0x0,0x47,0x0
0003ae 0047
0003af 0047
0003b0 000c
0003b1 000c      	.DB  0x47,0x0,0x47,0x0,0xC,0x0,0xC,0x0
0003b2 000c
0003b3 000c
0003b4 000c
0003b5 000c      	.DB  0xC,0x0,0xC,0x0,0xC,0x0,0xC,0x0
0003b6 000c
0003b7 000c
0003b8 000c
0003b9 000c      	.DB  0xC,0x0,0xC,0x0,0xC,0x0,0xC,0x0
0003ba 000c
0003bb 000d
0003bc 000c
0003bd 000c      	.DB  0xC,0x0,0xD,0x0,0xC,0x0,0xC,0x0
0003be 000c
0003bf 000c
0003c0 000c
0003c1 000d      	.DB  0xC,0x0,0xC,0x0,0xC,0x0,0xD,0x0
0003c2 000e
0003c3 000d
0003c4 000c
0003c5 0011      	.DB  0xE,0x0,0xD,0x0,0xC,0x0,0x11,0x0
0003c6 001e
0003c7 001e
0003c8 001e
0003c9 001e      	.DB  0x1E,0x0,0x1E,0x0,0x1E,0x0,0x1E,0x0
0003ca 001e
0003cb 002c
0003cc 0033
0003cd 0039      	.DB  0x1E,0x0,0x2C,0x0,0x33,0x0,0x39,0x0
0003ce 003d
0003cf 0042
0003d0 0047
0003d1 0047      	.DB  0x3D,0x0,0x42,0x0,0x47,0x0,0x47,0x0
0003d2 0047
0003d3 0047
0003d4 0047
0003d5 0047      	.DB  0x47,0x0,0x47,0x0,0x47,0x0,0x47,0x0
0003d6 0047
0003d7 0047
0003d8 0047
0003d9 000c      	.DB  0x47,0x0,0x47,0x0,0x47,0x0,0xC,0x0
0003da 000c
0003db 000c
0003dc 000c
0003dd 000c      	.DB  0xC,0x0,0xC,0x0,0xC,0x0,0xC,0x0
0003de 000c
0003df 000c
0003e0 000c
0003e1 000c      	.DB  0xC,0x0,0xC,0x0,0xC,0x0,0xC,0x0
0003e2 000c
0003e3 000c
0003e4 000d
0003e5 000c      	.DB  0xC,0x0,0xC,0x0,0xD,0x0,0xC,0x0
0003e6 000c
0003e7 000c
0003e8 000c
0003e9 000c      	.DB  0xC,0x0,0xC,0x0,0xC,0x0,0xC,0x0
0003ea 000d
0003eb 000e
0003ec 000d
0003ed 000c      	.DB  0xD,0x0,0xE,0x0,0xD,0x0,0xC,0x0
0003ee 0011
0003ef 001e
0003f0 001e
0003f1 001e      	.DB  0x11,0x0,0x1E,0x0,0x1E,0x0,0x1E,0x0
0003f2 001e
0003f3 001e
0003f4 002c
0003f5 0033      	.DB  0x1E,0x0,0x1E,0x0,0x2C,0x0,0x33,0x0
0003f6 0039
0003f7 003d
0003f8 0041
0003f9 0046      	.DB  0x39,0x0,0x3D,0x0,0x41,0x0,0x46,0x0
0003fa 0046
0003fb 0046
0003fc 0046
0003fd 0046      	.DB  0x46,0x0,0x46,0x0,0x46,0x0,0x46,0x0
0003fe 0046
0003ff 0046
000400 0046
000401 0046      	.DB  0x46,0x0,0x46,0x0,0x46,0x0,0x46,0x0
000402 000c
000403 000c
000404 000c
000405 000c      	.DB  0xC,0x0,0xC,0x0,0xC,0x0,0xC,0x0
000406 000c
000407 000c
000408 000c
000409 000c      	.DB  0xC,0x0,0xC,0x0,0xC,0x0,0xC,0x0
00040a 000c
00040b 000c
00040c 000c
00040d 000d      	.DB  0xC,0x0,0xC,0x0,0xC,0x0,0xD,0x0
00040e 000c
00040f 000c
000410 000c
000411 000c      	.DB  0xC,0x0,0xC,0x0,0xC,0x0,0xC,0x0
000412 000c
000413 000d
000414 000e
000415 000d      	.DB  0xC,0x0,0xD,0x0,0xE,0x0,0xD,0x0
000416 000c
000417 0011
000418 001e
000419 001e      	.DB  0xC,0x0,0x11,0x0,0x1E,0x0,0x1E,0x0
00041a 001e
00041b 001e
00041c 001e
00041d 002c      	.DB  0x1E,0x0,0x1E,0x0,0x1E,0x0,0x2C,0x0
00041e 0033
00041f 0039
000420 003d
000421 0041      	.DB  0x33,0x0,0x39,0x0,0x3D,0x0,0x41,0x0
000422 0046
000423 0046
000424 0046
000425 0046      	.DB  0x46,0x0,0x46,0x0,0x46,0x0,0x46,0x0
000426 0046
000427 0046
000428 0046
000429 0046      	.DB  0x46,0x0,0x46,0x0,0x46,0x0,0x46,0x0
00042a 0046
00042b 000b
00042c 000b
00042d 000b      	.DB  0x46,0x0,0xB,0x0,0xB,0x0,0xB,0x0
00042e 000b
00042f 000b
000430 000b
000431 000b      	.DB  0xB,0x0,0xB,0x0,0xB,0x0,0xB,0x0
000432 000b
000433 000b
000434 000c
000435 000c      	.DB  0xB,0x0,0xB,0x0,0xC,0x0,0xC,0x0
000436 000d
000437 000c
000438 000c
000439 000b      	.DB  0xD,0x0,0xC,0x0,0xC,0x0,0xB,0x0
00043a 000c
00043b 000c
00043c 000d
00043d 000e      	.DB  0xC,0x0,0xC,0x0,0xD,0x0,0xE,0x0
00043e 000d
00043f 000b
000440 0011
000441 001e      	.DB  0xD,0x0,0xB,0x0,0x11,0x0,0x1E,0x0
000442 001e
000443 001e
000444 001e
000445 001e      	.DB  0x1E,0x0,0x1E,0x0,0x1E,0x0,0x1E,0x0
000446 002c
000447 0033
000448 0039
000449 003d      	.DB  0x2C,0x0,0x33,0x0,0x39,0x0,0x3D,0x0
00044a 0041
00044b 0046
00044c 0046
00044d 0046      	.DB  0x41,0x0,0x46,0x0,0x46,0x0,0x46,0x0
00044e 0046
00044f 0046
000450 0046
000451 0046      	.DB  0x46,0x0,0x46,0x0,0x46,0x0,0x46,0x0
000452 0046
000453 0046
000454 000c
000455 000c      	.DB  0x46,0x0,0x46,0x0,0xC,0x0,0xC,0x0
000456 000c
000457 000c
000458 000c
000459 000c      	.DB  0xC,0x0,0xC,0x0,0xC,0x0,0xC,0x0
00045a 000c
00045b 000c
00045c 000c
00045d 000d      	.DB  0xC,0x0,0xC,0x0,0xC,0x0,0xD,0x0
00045e 000e
00045f 000f
000460 000e
000461 000d      	.DB  0xE,0x0,0xF,0x0,0xE,0x0,0xD,0x0
000462 000d
000463 000d
000464 000e
000465 000f      	.DB  0xD,0x0,0xD,0x0,0xE,0x0,0xF,0x0
000466 0010
000467 0011
000468 000e
000469 0019      	.DB  0x10,0x0,0x11,0x0,0xE,0x0,0x19,0x0
00046a 0028
00046b 0026
00046c 0025
00046d 0024      	.DB  0x28,0x0,0x26,0x0,0x25,0x0,0x24,0x0
00046e 0024
00046f 002d
000470 0034
000471 0039      	.DB  0x24,0x0,0x2D,0x0,0x34,0x0,0x39,0x0
000472 003d
000473 0042
000474 0046
000475 0046      	.DB  0x3D,0x0,0x42,0x0,0x46,0x0,0x46,0x0
000476 0046
000477 0046
000478 0046
000479 0046      	.DB  0x46,0x0,0x46,0x0,0x46,0x0,0x46,0x0
00047a 0046
00047b 0046
00047c 0046
00047d 000c      	.DB  0x46,0x0,0x46,0x0,0x46,0x0,0xC,0x0
00047e 000c
00047f 000c
000480 000c
000481 000c      	.DB  0xC,0x0,0xC,0x0,0xC,0x0,0xC,0x0
000482 000c
000483 000c
000484 000c
000485 000c      	.DB  0xC,0x0,0xC,0x0,0xC,0x0,0xC,0x0
000486 000e
000487 000f
000488 0010
000489 000f      	.DB  0xE,0x0,0xF,0x0,0x10,0x0,0xF,0x0
00048a 000e
00048b 000e
00048c 000e
00048d 000f      	.DB  0xE,0x0,0xE,0x0,0xE,0x0,0xF,0x0
00048e 0010
00048f 0012
000490 0014
000491 0011      	.DB  0x10,0x0,0x12,0x0,0x14,0x0,0x11,0x0
000492 001e
000493 002d
000494 002a
000495 0029      	.DB  0x1E,0x0,0x2D,0x0,0x2A,0x0,0x29,0x0
000496 0028
000497 0028
000498 002e
000499 0035      	.DB  0x28,0x0,0x28,0x0,0x2E,0x0,0x35,0x0
00049a 0039
00049b 003e
00049c 0042
00049d 0046      	.DB  0x39,0x0,0x3E,0x0,0x42,0x0,0x46,0x0
00049e 0046
00049f 0046
0004a0 0046
0004a1 0046      	.DB  0x46,0x0,0x46,0x0,0x46,0x0,0x46,0x0
0004a2 0046
0004a3 0046
0004a4 0046
0004a5 0046      	.DB  0x46,0x0,0x46,0x0,0x46,0x0,0x46,0x0
0004a6 000c
0004a7 000c
0004a8 000c
0004a9 000c      	.DB  0xC,0x0,0xC,0x0,0xC,0x0,0xC,0x0
0004aa 000c
0004ab 000c
0004ac 000c
0004ad 000c      	.DB  0xC,0x0,0xC,0x0,0xC,0x0,0xC,0x0
0004ae 000c
0004af 000f
0004b0 0010
0004b1 0011      	.DB  0xC,0x0,0xF,0x0,0x10,0x0,0x11,0x0
0004b2 0010
0004b3 000f
0004b4 000f
0004b5 000f      	.DB  0x10,0x0,0xF,0x0,0xF,0x0,0xF,0x0
0004b6 0010
0004b7 0011
0004b8 0013
0004b9 0016      	.DB  0x10,0x0,0x11,0x0,0x13,0x0,0x16,0x0
0004ba 0013
0004bb 0021
0004bc 0031
0004bd 002e      	.DB  0x13,0x0,0x21,0x0,0x31,0x0,0x2E,0x0
0004be 002c
0004bf 002c
0004c0 002c
0004c1 0030      	.DB  0x2C,0x0,0x2C,0x0,0x2C,0x0,0x30,0x0
0004c2 0035
0004c3 003a
0004c4 003e
0004c5 0042      	.DB  0x35,0x0,0x3A,0x0,0x3E,0x0,0x42,0x0
0004c6 0047
0004c7 0047
0004c8 0047
0004c9 0047      	.DB  0x47,0x0,0x47,0x0,0x47,0x0,0x47,0x0
0004ca 0047
0004cb 0047
0004cc 0047
0004cd 0047      	.DB  0x47,0x0,0x47,0x0,0x47,0x0,0x47,0x0
0004ce 0047
0004cf 000c
0004d0 000c
0004d1 000c      	.DB  0x47,0x0,0xC,0x0,0xC,0x0,0xC,0x0
0004d2 000c
0004d3 000c
0004d4 000c
0004d5 000c      	.DB  0xC,0x0,0xC,0x0,0xC,0x0,0xC,0x0
0004d6 000c
0004d7 000c
0004d8 000f
0004d9 0011      	.DB  0xC,0x0,0xC,0x0,0xF,0x0,0x11,0x0
0004da 0012
0004db 0011
0004dc 0010
0004dd 0010      	.DB  0x12,0x0,0x11,0x0,0x10,0x0,0x10,0x0
0004de 0010
0004df 0011
0004e0 0012
0004e1 0014      	.DB  0x10,0x0,0x11,0x0,0x12,0x0,0x14,0x0
0004e2 0018
0004e3 0015
0004e4 0021
0004e5 0033      	.DB  0x18,0x0,0x15,0x0,0x21,0x0,0x33,0x0
0004e6 0030
0004e7 002e
0004e8 002e
0004e9 002e      	.DB  0x30,0x0,0x2E,0x0,0x2E,0x0,0x2E,0x0
0004ea 0032
0004eb 0036
0004ec 003a
0004ed 003e      	.DB  0x32,0x0,0x36,0x0,0x3A,0x0,0x3E,0x0
0004ee 0042
0004ef 0047
0004f0 0047
0004f1 0047      	.DB  0x42,0x0,0x47,0x0,0x47,0x0,0x47,0x0
0004f2 0047
0004f3 0047
0004f4 0047
0004f5 0047      	.DB  0x47,0x0,0x47,0x0,0x47,0x0,0x47,0x0
0004f6 0047
0004f7 0047
0004f8 000c
0004f9 000c      	.DB  0x47,0x0,0x47,0x0,0xC,0x0,0xC,0x0
0004fa 000c
0004fb 000c
0004fc 000c
0004fd 000c      	.DB  0xC,0x0,0xC,0x0,0xC,0x0,0xC,0x0
0004fe 000c
0004ff 000c
000500 000c
000501 000f      	.DB  0xC,0x0,0xC,0x0,0xC,0x0,0xF,0x0
000502 0012
000503 0013
000504 0012
000505 0012      	.DB  0x12,0x0,0x13,0x0,0x12,0x0,0x12,0x0
000506 0012
000507 0012
000508 0012
000509 0013      	.DB  0x12,0x0,0x12,0x0,0x12,0x0,0x13,0x0
00050a 0015
00050b 0019
00050c 0017
00050d 0022      	.DB  0x15,0x0,0x19,0x0,0x17,0x0,0x22,0x0
00050e 0035
00050f 0032
000510 0030
000511 0030      	.DB  0x35,0x0,0x32,0x0,0x30,0x0,0x30,0x0
000512 0030
000513 0033
000514 0037
000515 003b      	.DB  0x30,0x0,0x33,0x0,0x37,0x0,0x3B,0x0
000516 003e
000517 0042
000518 0047
000519 0047      	.DB  0x3E,0x0,0x42,0x0,0x47,0x0,0x47,0x0
00051a 0047
00051b 0047
00051c 0047
00051d 0047      	.DB  0x47,0x0,0x47,0x0,0x47,0x0,0x47,0x0
00051e 0047
00051f 0047
000520 0047
000521 000d      	.DB  0x47,0x0,0x47,0x0,0x47,0x0,0xD,0x0
000522 000d
000523 000d
000524 000d
000525 000d      	.DB  0xD,0x0,0xD,0x0,0xD,0x0,0xD,0x0
000526 000d
000527 000d
000528 000d
000529 000d      	.DB  0xD,0x0,0xD,0x0,0xD,0x0,0xD,0x0
00052a 0010
00052b 0012
00052c 0014
00052d 0013      	.DB  0x10,0x0,0x12,0x0,0x14,0x0,0x13,0x0
00052e 0013
00052f 0013
000530 0013
000531 0013      	.DB  0x13,0x0,0x13,0x0,0x13,0x0,0x13,0x0
000532 0014
000533 0015
000534 001a
000535 0019      	.DB  0x14,0x0,0x15,0x0,0x1A,0x0,0x19,0x0
000536 0023
000537 0035
000538 0033
000539 0032      	.DB  0x23,0x0,0x35,0x0,0x33,0x0,0x32,0x0
00053a 0032
00053b 0032
00053c 0035
00053d 0038      	.DB  0x32,0x0,0x32,0x0,0x35,0x0,0x38,0x0
00053e 003b
00053f 003f
000540 0043
000541 0048      	.DB  0x3B,0x0,0x3F,0x0,0x43,0x0,0x48,0x0
000542 0048
000543 0048
000544 0048
000545 0048      	.DB  0x48,0x0,0x48,0x0,0x48,0x0,0x48,0x0
000546 0048
000547 0048
000548 0048
000549 0048      	.DB  0x48,0x0,0x48,0x0,0x48,0x0,0x48,0x0
00054a 000d
00054b 000d
00054c 000d
00054d 000d      	.DB  0xD,0x0,0xD,0x0,0xD,0x0,0xD,0x0
00054e 000d
00054f 000d
000550 000d
000551 000d      	.DB  0xD,0x0,0xD,0x0,0xD,0x0,0xD,0x0
000552 000d
000553 0010
000554 0013
000555 0014      	.DB  0xD,0x0,0x10,0x0,0x13,0x0,0x14,0x0
000556 0014
000557 0014
000558 0014
000559 0014      	.DB  0x14,0x0,0x14,0x0,0x14,0x0,0x14,0x0
00055a 0014
00055b 0014
00055c 0015
00055d 001b      	.DB  0x14,0x0,0x14,0x0,0x15,0x0,0x1B,0x0
00055e 001b
00055f 0023
000560 0035
000561 0034      	.DB  0x1B,0x0,0x23,0x0,0x35,0x0,0x34,0x0
000562 0034
000563 0034
000564 0034
000565 0037      	.DB  0x34,0x0,0x34,0x0,0x34,0x0,0x37,0x0
000566 0039
000567 003b
000568 003f
000569 0043      	.DB  0x39,0x0,0x3B,0x0,0x3F,0x0,0x43,0x0
00056a 0049
00056b 0049
00056c 0049
00056d 0049      	.DB  0x49,0x0,0x49,0x0,0x49,0x0,0x49,0x0
00056e 0049
00056f 0049
000570 0049
000571 0049      	.DB  0x49,0x0,0x49,0x0,0x49,0x0,0x49,0x0
000572 0049
000573 000d
000574 000d
000575 000d      	.DB  0x49,0x0,0xD,0x0,0xD,0x0,0xD,0x0
000576 000d
000577 000d
000578 000d
000579 000d      	.DB  0xD,0x0,0xD,0x0,0xD,0x0,0xD,0x0
00057a 000d
00057b 000d
00057c 0010
00057d 0013      	.DB  0xD,0x0,0xD,0x0,0x10,0x0,0x13,0x0
00057e 0014
00057f 0015
000580 0015
000581 0015      	.DB  0x14,0x0,0x15,0x0,0x15,0x0,0x15,0x0
000582 0015
000583 0015
000584 0015
000585 0015      	.DB  0x15,0x0,0x15,0x0,0x15,0x0,0x15,0x0
000586 001c
000587 001c
000588 0024
000589 0035      	.DB  0x1C,0x0,0x1C,0x0,0x24,0x0,0x35,0x0
00058a 0035
00058b 0035
00058c 0035
00058d 0035      	.DB  0x35,0x0,0x35,0x0,0x35,0x0,0x35,0x0
00058e 0038
00058f 003a
000590 003c
000591 003f      	.DB  0x38,0x0,0x3A,0x0,0x3C,0x0,0x3F,0x0
000592 0044
000593 004a
000594 004a
000595 004a      	.DB  0x44,0x0,0x4A,0x0,0x4A,0x0,0x4A,0x0
000596 004a
000597 004a
000598 004a
000599 004a      	.DB  0x4A,0x0,0x4A,0x0,0x4A,0x0,0x4A,0x0
00059a 004a
00059b 004a
00059c 000d
00059d 000d      	.DB  0x4A,0x0,0x4A,0x0,0xD,0x0,0xD,0x0
00059e 000d
00059f 000d
0005a0 000d
0005a1 000d      	.DB  0xD,0x0,0xD,0x0,0xD,0x0,0xD,0x0
0005a2 000d
0005a3 000d
0005a4 000d
0005a5 0010      	.DB  0xD,0x0,0xD,0x0,0xD,0x0,0x10,0x0
0005a6 0012
0005a7 0014
0005a8 0016
0005a9 0016      	.DB  0x12,0x0,0x14,0x0,0x16,0x0,0x16,0x0
0005aa 0016
0005ab 0016
0005ac 0016
0005ad 0016      	.DB  0x16,0x0,0x16,0x0,0x16,0x0,0x16,0x0
0005ae 0015
0005af 001d
0005b0 001e
0005b1 0025      	.DB  0x15,0x0,0x1D,0x0,0x1E,0x0,0x25,0x0
0005b2 0035
0005b3 0036
0005b4 0037
0005b5 0037      	.DB  0x35,0x0,0x36,0x0,0x37,0x0,0x37,0x0
0005b6 0037
0005b7 0039
0005b8 003c
0005b9 003d      	.DB  0x37,0x0,0x39,0x0,0x3C,0x0,0x3D,0x0
0005ba 0040
0005bb 0045
0005bc 004b
0005bd 004b      	.DB  0x40,0x0,0x45,0x0,0x4B,0x0,0x4B,0x0
0005be 004b
0005bf 004b
0005c0 004b
0005c1 004b      	.DB  0x4B,0x0,0x4B,0x0,0x4B,0x0,0x4B,0x0
0005c2 004b
0005c3 004b
0005c4 004b
0005c5 000c      	.DB  0x4B,0x0,0x4B,0x0,0x4B,0x0,0xC,0x0
0005c6 000c
0005c7 000c
0005c8 000c
0005c9 000c      	.DB  0xC,0x0,0xC,0x0,0xC,0x0,0xC,0x0
0005ca 000c
0005cb 000c
0005cc 000c
0005cd 000c      	.DB  0xC,0x0,0xC,0x0,0xC,0x0,0xC,0x0
0005ce 000f
0005cf 0012
0005d0 0014
0005d1 0017      	.DB  0xF,0x0,0x12,0x0,0x14,0x0,0x17,0x0
0005d2 0017
0005d3 0017
0005d4 0017
0005d5 0017      	.DB  0x17,0x0,0x17,0x0,0x17,0x0,0x17,0x0
0005d6 0017
0005d7 0015
0005d8 001f
0005d9 0020      	.DB  0x17,0x0,0x15,0x0,0x1F,0x0,0x20,0x0
0005da 0027
0005db 0035
0005dc 0037
0005dd 0039      	.DB  0x27,0x0,0x35,0x0,0x37,0x0,0x39,0x0
0005de 0039
0005df 0039
0005e0 003b
0005e1 003d      	.DB  0x39,0x0,0x39,0x0,0x3B,0x0,0x3D,0x0
0005e2 003f
0005e3 0041
0005e4 0046
0005e5 004c      	.DB  0x3F,0x0,0x41,0x0,0x46,0x0,0x4C,0x0
0005e6 004c
0005e7 004c
0005e8 004c
0005e9 004c      	.DB  0x4C,0x0,0x4C,0x0,0x4C,0x0,0x4C,0x0
0005ea 004c
0005eb 004c
0005ec 004c
0005ed 004c      	.DB  0x4C,0x0,0x4C,0x0,0x4C,0x0,0x4C,0x0
0005ee 000c
0005ef 000c
0005f0 000c
0005f1 000c      	.DB  0xC,0x0,0xC,0x0,0xC,0x0,0xC,0x0
0005f2 000c
0005f3 000c
0005f4 000c
0005f5 000c      	.DB  0xC,0x0,0xC,0x0,0xC,0x0,0xC,0x0
0005f6 000c
0005f7 000f
0005f8 0012
0005f9 0014      	.DB  0xC,0x0,0xF,0x0,0x12,0x0,0x14,0x0
0005fa 0017
0005fb 0019
0005fc 0019
0005fd 0019      	.DB  0x17,0x0,0x19,0x0,0x19,0x0,0x19,0x0
0005fe 0018
0005ff 0018
000600 0016
000601 0020      	.DB  0x18,0x0,0x18,0x0,0x16,0x0,0x20,0x0
000602 0022
000603 0029
000604 0036
000605 0039      	.DB  0x22,0x0,0x29,0x0,0x36,0x0,0x39,0x0
000606 003a
000607 003a
000608 003a
000609 003d      	.DB  0x3A,0x0,0x3A,0x0,0x3A,0x0,0x3D,0x0
00060a 003f
00060b 0041
00060c 0043
00060d 0047      	.DB  0x3F,0x0,0x41,0x0,0x43,0x0,0x47,0x0
00060e 004e
00060f 004e
000610 004e
000611 004e      	.DB  0x4E,0x0,0x4E,0x0,0x4E,0x0,0x4E,0x0
000612 004e
000613 004e
000614 004e
000615 004e      	.DB  0x4E,0x0,0x4E,0x0,0x4E,0x0,0x4E,0x0
000616 004e
000617 000c
000618 000c
000619 000c      	.DB  0x4E,0x0,0xC,0x0,0xC,0x0,0xC,0x0
00061a 000c
00061b 000c
00061c 000c
00061d 000c      	.DB  0xC,0x0,0xC,0x0,0xC,0x0,0xC,0x0
00061e 000c
00061f 000c
000620 000f
000621 0012      	.DB  0xC,0x0,0xC,0x0,0xF,0x0,0x12,0x0
000622 0014
000623 0017
000624 001a
000625 001a      	.DB  0x14,0x0,0x17,0x0,0x1A,0x0,0x1A,0x0
000626 001a
000627 001a
000628 0019
000629 0018      	.DB  0x1A,0x0,0x1A,0x0,0x19,0x0,0x18,0x0
00062a 0022
00062b 0024
00062c 002b
00062d 0038      	.DB  0x22,0x0,0x24,0x0,0x2B,0x0,0x38,0x0
00062e 003b
00062f 003c
000630 003c
000631 003c      	.DB  0x3B,0x0,0x3C,0x0,0x3C,0x0,0x3C,0x0
000632 003e
000633 0040
000634 0043
000635 0045      	.DB  0x3E,0x0,0x40,0x0,0x43,0x0,0x45,0x0
000636 0049
000637 0050
000638 0050
000639 0050      	.DB  0x49,0x0,0x50,0x0,0x50,0x0,0x50,0x0
00063a 0050
00063b 0050
00063c 0050
00063d 0050      	.DB  0x50,0x0,0x50,0x0,0x50,0x0,0x50,0x0
00063e 0050
00063f 0050
000640 000c
000641 000c      	.DB  0x50,0x0,0x50,0x0,0xC,0x0,0xC,0x0
000642 000c
000643 000c
000644 000c
000645 000c      	.DB  0xC,0x0,0xC,0x0,0xC,0x0,0xC,0x0
000646 000c
000647 000c
000648 000c
000649 000f      	.DB  0xC,0x0,0xC,0x0,0xC,0x0,0xF,0x0
00064a 0012
00064b 0014
00064c 0017
00064d 001a      	.DB  0x12,0x0,0x14,0x0,0x17,0x0,0x1A,0x0
00064e 001b
00064f 001b
000650 001b
000651 001a      	.DB  0x1B,0x0,0x1B,0x0,0x1B,0x0,0x1A,0x0
000652 0019
000653 0025
000654 0027
000655 002e      	.DB  0x19,0x0,0x25,0x0,0x27,0x0,0x2E,0x0
000656 003b
000657 003d
000658 003e
000659 003e      	.DB  0x3B,0x0,0x3D,0x0,0x3E,0x0,0x3E,0x0
00065a 003e
00065b 0040
00065c 0043
00065d 0045      	.DB  0x3E,0x0,0x40,0x0,0x43,0x0,0x45,0x0
00065e 0048
00065f 004b
000660 0053
000661 0053      	.DB  0x48,0x0,0x4B,0x0,0x53,0x0,0x53,0x0
000662 0053
000663 0053
000664 0053
000665 0053      	.DB  0x53,0x0,0x53,0x0,0x53,0x0,0x53,0x0
000666 0053
000667 0053
000668 0053
000669 000c      	.DB  0x53,0x0,0x53,0x0,0x53,0x0,0xC,0x0
00066a 000c
00066b 000c
00066c 000c
00066d 000c      	.DB  0xC,0x0,0xC,0x0,0xC,0x0,0xC,0x0
00066e 000c
00066f 000c
000670 000c
000671 000c      	.DB  0xC,0x0,0xC,0x0,0xC,0x0,0xC,0x0
000672 000f
000673 0012
000674 0014
000675 0017      	.DB  0xF,0x0,0x12,0x0,0x14,0x0,0x17,0x0
000676 001a
000677 001d
000678 001c
000679 001c      	.DB  0x1A,0x0,0x1D,0x0,0x1C,0x0,0x1C,0x0
00067a 001c
00067b 001b
00067c 0027
00067d 0029      	.DB  0x1C,0x0,0x1B,0x0,0x27,0x0,0x29,0x0
00067e 0031
00067f 003f
000680 0040
000681 0040      	.DB  0x31,0x0,0x3F,0x0,0x40,0x0,0x40,0x0
000682 0041
000683 0041
000684 0043
000685 0045      	.DB  0x41,0x0,0x41,0x0,0x43,0x0,0x45,0x0
000686 0048
000687 004b
000688 004f
000689 0057      	.DB  0x48,0x0,0x4B,0x0,0x4F,0x0,0x57,0x0
00068a 0057
00068b 0057
00068c 0057
00068d 0057      	.DB  0x57,0x0,0x57,0x0,0x57,0x0,0x57,0x0
00068e 0057
00068f 0057
000690 0057
000691 0057      	.DB  0x57,0x0,0x57,0x0,0x57,0x0,0x57,0x0
000692 000b
000693 000b
000694 000b
000695 000b      	.DB  0xB,0x0,0xB,0x0,0xB,0x0,0xB,0x0
000696 000b
000697 000b
000698 000b
000699 000b      	.DB  0xB,0x0,0xB,0x0,0xB,0x0,0xB,0x0
00069a 000b
00069b 000f
00069c 0012
00069d 0014      	.DB  0xB,0x0,0xF,0x0,0x12,0x0,0x14,0x0
00069e 0017
00069f 001a
0006a0 001e
0006a1 001e      	.DB  0x17,0x0,0x1A,0x0,0x1E,0x0,0x1E,0x0
0006a2 001e
0006a3 001e
0006a4 001e
0006a5 0029      	.DB  0x1E,0x0,0x1E,0x0,0x1E,0x0,0x29,0x0
0006a6 002d
0006a7 0036
0006a8 0044
0006a9 0044      	.DB  0x2D,0x0,0x36,0x0,0x44,0x0,0x44,0x0
0006aa 0044
0006ab 0044
0006ac 0044
0006ad 0046      	.DB  0x44,0x0,0x44,0x0,0x44,0x0,0x46,0x0
0006ae 0049
0006af 004c
0006b0 004f
0006b1 0054      	.DB  0x49,0x0,0x4C,0x0,0x4F,0x0,0x54,0x0
0006b2 005b
0006b3 005b
0006b4 005b
0006b5 005b      	.DB  0x5B,0x0,0x5B,0x0,0x5B,0x0,0x5B,0x0
0006b6 005b
0006b7 005b
0006b8 005b
0006b9 005b      	.DB  0x5B,0x0,0x5B,0x0,0x5B,0x0,0x5B,0x0
0006ba 005b
0006bb 000c
0006bc 000c
0006bd 000c      	.DB  0x5B,0x0,0xC,0x0,0xC,0x0,0xC,0x0
0006be 000c
0006bf 000c
0006c0 000c
0006c1 000c      	.DB  0xC,0x0,0xC,0x0,0xC,0x0,0xC,0x0
0006c2 000c
0006c3 000c
0006c4 0010
0006c5 0013      	.DB  0xC,0x0,0xC,0x0,0x10,0x0,0x13,0x0
0006c6 0016
0006c7 0019
0006c8 001c
0006c9 001f      	.DB  0x16,0x0,0x19,0x0,0x1C,0x0,0x1F,0x0
0006ca 001f
0006cb 0020
0006cc 0020
0006cd 0020      	.DB  0x1F,0x0,0x20,0x0,0x20,0x0,0x20,0x0
0006ce 002d
0006cf 0030
0006d0 0037
0006d1 0045      	.DB  0x2D,0x0,0x30,0x0,0x37,0x0,0x45,0x0
0006d2 0045
0006d3 0045
0006d4 0045
0006d5 0045      	.DB  0x45,0x0,0x45,0x0,0x45,0x0,0x45,0x0
0006d6 0046
0006d7 0049
0006d8 004c
0006d9 004f      	.DB  0x46,0x0,0x49,0x0,0x4C,0x0,0x4F,0x0
0006da 0054
0006db 005b
0006dc 005b
0006dd 005b      	.DB  0x54,0x0,0x5B,0x0,0x5B,0x0,0x5B,0x0
0006de 005b
0006df 005b
0006e0 005b
0006e1 005b      	.DB  0x5B,0x0,0x5B,0x0,0x5B,0x0,0x5B,0x0
0006e2 005b
0006e3 005b
0006e4 000c
0006e5 000c      	.DB  0x5B,0x0,0x5B,0x0,0xC,0x0,0xC,0x0
0006e6 000c
0006e7 000c
0006e8 000c
0006e9 000c      	.DB  0xC,0x0,0xC,0x0,0xC,0x0,0xC,0x0
0006ea 000c
0006eb 000c
0006ec 000c
0006ed 0012      	.DB  0xC,0x0,0xC,0x0,0xC,0x0,0x12,0x0
0006ee 0014
0006ef 0017
0006f0 001a
0006f1 001d      	.DB  0x14,0x0,0x17,0x0,0x1A,0x0,0x1D,0x0
0006f2 0021
0006f3 0021
0006f4 0021
0006f5 0021      	.DB  0x21,0x0,0x21,0x0,0x21,0x0,0x21,0x0
0006f6 0022
0006f7 0030
0006f8 0033
0006f9 0039      	.DB  0x22,0x0,0x30,0x0,0x33,0x0,0x39,0x0
0006fa 0047
0006fb 0046
0006fc 0046
0006fd 0046      	.DB  0x47,0x0,0x46,0x0,0x46,0x0,0x46,0x0
0006fe 0046
0006ff 0046
000700 0049
000701 004c      	.DB  0x46,0x0,0x46,0x0,0x49,0x0,0x4C,0x0
000702 004f
000703 0054
000704 005b
000705 005b      	.DB  0x4F,0x0,0x54,0x0,0x5B,0x0,0x5B,0x0
000706 005b
000707 005b
000708 005b
000709 005b      	.DB  0x5B,0x0,0x5B,0x0,0x5B,0x0,0x5B,0x0
00070a 005b
00070b 005b
00070c 005b
00070d 000c      	.DB  0x5B,0x0,0x5B,0x0,0x5B,0x0,0xC,0x0
00070e 000c
00070f 000c
000710 000c
000711 000c      	.DB  0xC,0x0,0xC,0x0,0xC,0x0,0xC,0x0
000712 000c
000713 000c
000714 000c
000715 000c      	.DB  0xC,0x0,0xC,0x0,0xC,0x0,0xC,0x0
000716 0012
000717 0016
000718 0018
000719 001b      	.DB  0x12,0x0,0x16,0x0,0x18,0x0,0x1B,0x0
00071a 001e
00071b 0022
00071c 0022
00071d 0022      	.DB  0x1E,0x0,0x22,0x0,0x22,0x0,0x22,0x0
00071e 0022
00071f 0024
000720 0033
000721 0035      	.DB  0x22,0x0,0x24,0x0,0x33,0x0,0x35,0x0
000722 003b
000723 0048
000724 0047
000725 0047      	.DB  0x3B,0x0,0x48,0x0,0x47,0x0,0x47,0x0
000726 0047
000727 0047
000728 0047
000729 0049      	.DB  0x47,0x0,0x47,0x0,0x47,0x0,0x49,0x0
00072a 004c
00072b 004f
00072c 0054
00072d 005b      	.DB  0x4C,0x0,0x4F,0x0,0x54,0x0,0x5B,0x0
00072e 005b
00072f 005b
000730 005b
000731 005b      	.DB  0x5B,0x0,0x5B,0x0,0x5B,0x0,0x5B,0x0
000732 005b
000733 005b
000734 005b
000735 005b      	.DB  0x5B,0x0,0x5B,0x0,0x5B,0x0,0x5B,0x0
000736 000c
000737 000c
000738 000c
000739 000c      	.DB  0xC,0x0,0xC,0x0,0xC,0x0,0xC,0x0
00073a 000c
00073b 000c
00073c 000c
00073d 000c      	.DB  0xC,0x0,0xC,0x0,0xC,0x0,0xC,0x0
00073e 000c
00073f 0013
000740 0017
000741 0019      	.DB  0xC,0x0,0x13,0x0,0x17,0x0,0x19,0x0
000742 001c
000743 001f
000744 0023
000745 0023      	.DB  0x1C,0x0,0x1F,0x0,0x23,0x0,0x23,0x0
000746 0023
000747 0023
000748 0025
000749 0034      	.DB  0x23,0x0,0x23,0x0,0x25,0x0,0x34,0x0
00074a 0037
00074b 003c
00074c 0049
00074d 0048      	.DB  0x37,0x0,0x3C,0x0,0x49,0x0,0x48,0x0
00074e 0048
00074f 0048
000750 0048
000751 0048      	.DB  0x48,0x0,0x48,0x0,0x48,0x0,0x48,0x0
000752 0049
000753 004c
000754 004f
000755 0054      	.DB  0x49,0x0,0x4C,0x0,0x4F,0x0,0x54,0x0
000756 005b
000757 005b
000758 005b
000759 005b      	.DB  0x5B,0x0,0x5B,0x0,0x5B,0x0,0x5B,0x0
00075a 005b
00075b 005b
00075c 005b
00075d 005b      	.DB  0x5B,0x0,0x5B,0x0,0x5B,0x0,0x5B,0x0
00075e 005b
00075f 000c
000760 000c
000761 000c      	.DB  0x5B,0x0,0xC,0x0,0xC,0x0,0xC,0x0
000762 000c
000763 000c
000764 000c
000765 000c      	.DB  0xC,0x0,0xC,0x0,0xC,0x0,0xC,0x0
000766 000c
000767 000c
000768 0014
000769 0018      	.DB  0xC,0x0,0xC,0x0,0x14,0x0,0x18,0x0
00076a 001a
00076b 001d
00076c 0020
00076d 0023      	.DB  0x1A,0x0,0x1D,0x0,0x20,0x0,0x23,0x0
00076e 0023
00076f 0023
000770 0024
000771 0026      	.DB  0x23,0x0,0x23,0x0,0x24,0x0,0x26,0x0
000772 0036
000773 0038
000774 003d
000775 004b      	.DB  0x36,0x0,0x38,0x0,0x3D,0x0,0x4B,0x0
000776 0049
000777 0049
000778 0049
000779 0049      	.DB  0x49,0x0,0x49,0x0,0x49,0x0,0x49,0x0
00077a 0049
00077b 0049
00077c 004c
00077d 004f      	.DB  0x49,0x0,0x49,0x0,0x4C,0x0,0x4F,0x0
00077e 0054
00077f 005b
000780 005b
000781 005b      	.DB  0x54,0x0,0x5B,0x0,0x5B,0x0,0x5B,0x0
000782 005b
000783 005b
000784 005b
000785 005b      	.DB  0x5B,0x0,0x5B,0x0,0x5B,0x0,0x5B,0x0
000786 005b
000787 005b
000788 000d
000789 000d      	.DB  0x5B,0x0,0x5B,0x0,0xD,0x0,0xD,0x0
00078a 000d
00078b 000d
00078c 000d
00078d 000d      	.DB  0xD,0x0,0xD,0x0,0xD,0x0,0xD,0x0
00078e 000d
00078f 000d
000790 000d
000791 0014      	.DB  0xD,0x0,0xD,0x0,0xD,0x0,0x14,0x0
000792 0018
000793 001b
000794 001e
000795 0021      	.DB  0x18,0x0,0x1B,0x0,0x1E,0x0,0x21,0x0
000796 0024
000797 0024
000798 0024
000799 0025      	.DB  0x24,0x0,0x24,0x0,0x24,0x0,0x25,0x0
00079a 0026
00079b 0037
00079c 003a
00079d 003d      	.DB  0x26,0x0,0x37,0x0,0x3A,0x0,0x3D,0x0
00079e 004b
00079f 004a
0007a0 004a
0007a1 004a      	.DB  0x4B,0x0,0x4A,0x0,0x4A,0x0,0x4A,0x0
0007a2 004a
0007a3 004a
0007a4 004a
0007a5 004c      	.DB  0x4A,0x0,0x4A,0x0,0x4A,0x0,0x4C,0x0
0007a6 004f
0007a7 0054
0007a8 005b
0007a9 005b      	.DB  0x4F,0x0,0x54,0x0,0x5B,0x0,0x5B,0x0
0007aa 005b
0007ab 005b
0007ac 005b
0007ad 005b      	.DB  0x5B,0x0,0x5B,0x0,0x5B,0x0,0x5B,0x0
0007ae 005b
0007af 005b
0007b0 005b
0007b1 000d      	.DB  0x5B,0x0,0x5B,0x0,0x5B,0x0,0xD,0x0
0007b2 000d
0007b3 000d
0007b4 000d
0007b5 000d      	.DB  0xD,0x0,0xD,0x0,0xD,0x0,0xD,0x0
0007b6 000d
0007b7 000d
0007b8 000d
0007b9 000d      	.DB  0xD,0x0,0xD,0x0,0xD,0x0,0xD,0x0
0007ba 0015
0007bb 0019
0007bc 001c
0007bd 001e      	.DB  0x15,0x0,0x19,0x0,0x1C,0x0,0x1E,0x0
0007be 0021
0007bf 0025
0007c0 0025
0007c1 0025      	.DB  0x21,0x0,0x25,0x0,0x25,0x0,0x25,0x0
0007c2 0025
0007c3 0026
0007c4 0038
0007c5 003b      	.DB  0x25,0x0,0x26,0x0,0x38,0x0,0x3B,0x0
0007c6 003e
0007c7 004b
0007c8 004b
0007c9 004b      	.DB  0x3E,0x0,0x4B,0x0,0x4B,0x0,0x4B,0x0
0007ca 004b
0007cb 004b
0007cc 004b
0007cd 004b      	.DB  0x4B,0x0,0x4B,0x0,0x4B,0x0,0x4B,0x0
0007ce 004c
0007cf 004f
0007d0 0054
0007d1 005b      	.DB  0x4C,0x0,0x4F,0x0,0x54,0x0,0x5B,0x0
0007d2 005b
0007d3 005b
0007d4 005b
0007d5 005b      	.DB  0x5B,0x0,0x5B,0x0,0x5B,0x0,0x5B,0x0
0007d6 005b
0007d7 005b
0007d8 005b
0007d9 005b      	.DB  0x5B,0x0,0x5B,0x0,0x5B,0x0,0x5B,0x0
0007da 000d
0007db 000d
0007dc 000d
0007dd 000d      	.DB  0xD,0x0,0xD,0x0,0xD,0x0,0xD,0x0
0007de 000d
0007df 000d
0007e0 000d
0007e1 000d      	.DB  0xD,0x0,0xD,0x0,0xD,0x0,0xD,0x0
0007e2 000d
0007e3 0015
0007e4 0019
0007e5 001c      	.DB  0xD,0x0,0x15,0x0,0x19,0x0,0x1C,0x0
0007e6 001f
0007e7 0022
0007e8 0026
0007e9 0026      	.DB  0x1F,0x0,0x22,0x0,0x26,0x0,0x26,0x0
0007ea 0026
0007eb 0026
0007ec 0026
0007ed 0038      	.DB  0x26,0x0,0x26,0x0,0x26,0x0,0x38,0x0
0007ee 003c
0007ef 003e
0007f0 004b
0007f1 004c      	.DB  0x3C,0x0,0x3E,0x0,0x4B,0x0,0x4C,0x0
0007f2 004c
0007f3 004c
0007f4 004c
0007f5 004c      	.DB  0x4C,0x0,0x4C,0x0,0x4C,0x0,0x4C,0x0
0007f6 004c
0007f7 004c
0007f8 004f
0007f9 0054      	.DB  0x4C,0x0,0x4C,0x0,0x4F,0x0,0x54,0x0
0007fa 005b
0007fb 005b
0007fc 005b
0007fd 005b      	.DB  0x5B,0x0,0x5B,0x0,0x5B,0x0,0x5B,0x0
0007fe 005b
0007ff 005b
000800 005b
000801 005b      	.DB  0x5B,0x0,0x5B,0x0,0x5B,0x0,0x5B,0x0
000802 005b
000803 000d
000804 000d
000805 000d      	.DB  0x5B,0x0,0xD,0x0,0xD,0x0,0xD,0x0
000806 000d
000807 000d
000808 000d
000809 000d      	.DB  0xD,0x0,0xD,0x0,0xD,0x0,0xD,0x0
00080a 000d
00080b 000d
00080c 0014
00080d 0018      	.DB  0xD,0x0,0xD,0x0,0x14,0x0,0x18,0x0
00080e 001c
00080f 001f
000810 0023
000811 0027      	.DB  0x1C,0x0,0x1F,0x0,0x23,0x0,0x27,0x0
000812 0027
000813 0027
000814 0026
000815 0026      	.DB  0x27,0x0,0x27,0x0,0x26,0x0,0x26,0x0
000816 0039
000817 003d
000818 003f
000819 004b      	.DB  0x39,0x0,0x3D,0x0,0x3F,0x0,0x4B,0x0
00081a 004c
00081b 004e
00081c 004e
00081d 004e      	.DB  0x4C,0x0,0x4E,0x0,0x4E,0x0,0x4E,0x0
00081e 004e
00081f 004e
000820 004c
000821 004f      	.DB  0x4E,0x0,0x4E,0x0,0x4C,0x0,0x4F,0x0
000822 0054
000823 005b
000824 005b
000825 005b      	.DB  0x54,0x0,0x5B,0x0,0x5B,0x0,0x5B,0x0
000826 005b
000827 005b
000828 005b
000829 005b      	.DB  0x5B,0x0,0x5B,0x0,0x5B,0x0,0x5B,0x0
00082a 005b
00082b 005b
00082c 000c
00082d 000c      	.DB  0x5B,0x0,0x5B,0x0,0xC,0x0,0xC,0x0
00082e 000c
00082f 000c
000830 000c
000831 000c      	.DB  0xC,0x0,0xC,0x0,0xC,0x0,0xC,0x0
000832 000c
000833 000c
000834 000c
000835 0014      	.DB  0xC,0x0,0xC,0x0,0xC,0x0,0x14,0x0
000836 0018
000837 001c
000838 0020
000839 0023      	.DB  0x18,0x0,0x1C,0x0,0x20,0x0,0x23,0x0
00083a 0028
00083b 0028
00083c 0028
00083d 0027      	.DB  0x28,0x0,0x28,0x0,0x28,0x0,0x27,0x0
00083e 0026
00083f 0039
000840 003e
000841 0040      	.DB  0x26,0x0,0x39,0x0,0x3E,0x0,0x40,0x0
000842 004b
000843 004d
000844 004f
000845 004f      	.DB  0x4B,0x0,0x4D,0x0,0x4F,0x0,0x4F,0x0
000846 004f
000847 004f
000848 004f
000849 004d      	.DB  0x4F,0x0,0x4F,0x0,0x4F,0x0,0x4D,0x0
00084a 004f
00084b 0054
00084c 005b
00084d 005b      	.DB  0x4F,0x0,0x54,0x0,0x5B,0x0,0x5B,0x0
00084e 005b
00084f 005b
000850 005b
000851 005b      	.DB  0x5B,0x0,0x5B,0x0,0x5B,0x0,0x5B,0x0
000852 005b
000853 005b
000854 005b
000855 000c      	.DB  0x5B,0x0,0x5B,0x0,0x5B,0x0,0xC,0x0
000856 000c
000857 000c
000858 000c
000859 000c      	.DB  0xC,0x0,0xC,0x0,0xC,0x0,0xC,0x0
00085a 000c
00085b 000c
00085c 000c
00085d 000c      	.DB  0xC,0x0,0xC,0x0,0xC,0x0,0xC,0x0
00085e 0013
00085f 0017
000860 001c
000861 0020      	.DB  0x13,0x0,0x17,0x0,0x1C,0x0,0x20,0x0
000862 0024
000863 0028
000864 0028
000865 0028      	.DB  0x24,0x0,0x28,0x0,0x28,0x0,0x28,0x0
000866 0028
000867 0026
000868 003a
000869 003f      	.DB  0x28,0x0,0x26,0x0,0x3A,0x0,0x3F,0x0
00086a 0041
00086b 004c
00086c 004e
00086d 0050      	.DB  0x41,0x0,0x4C,0x0,0x4E,0x0,0x50,0x0
00086e 0051
00086f 0051
000870 0051
000871 0050      	.DB  0x51,0x0,0x51,0x0,0x51,0x0,0x50,0x0
000872 004e
000873 0050
000874 0054
000875 005b      	.DB  0x4E,0x0,0x50,0x0,0x54,0x0,0x5B,0x0
000876 005b
000877 005b
000878 005b
000879 005b      	.DB  0x5B,0x0,0x5B,0x0,0x5B,0x0,0x5B,0x0
00087a 005b
00087b 005b
00087c 005b
00087d 005b      	.DB  0x5B,0x0,0x5B,0x0,0x5B,0x0,0x5B,0x0
00087e 000c
00087f 000c
000880 000c
000881 000c      	.DB  0xC,0x0,0xC,0x0,0xC,0x0,0xC,0x0
000882 000c
000883 000c
000884 000c
000885 000c      	.DB  0xC,0x0,0xC,0x0,0xC,0x0,0xC,0x0
000886 000c
000887 0012
000888 0017
000889 001c      	.DB  0xC,0x0,0x12,0x0,0x17,0x0,0x1C,0x0
00088a 0020
00088b 0025
00088c 0029
00088d 0029      	.DB  0x20,0x0,0x25,0x0,0x29,0x0,0x29,0x0
00088e 0029
00088f 0029
000890 0027
000891 003b      	.DB  0x29,0x0,0x29,0x0,0x27,0x0,0x3B,0x0
000892 0040
000893 0042
000894 004d
000895 0050      	.DB  0x40,0x0,0x42,0x0,0x4D,0x0,0x50,0x0
000896 0052
000897 0053
000898 0053
000899 0053      	.DB  0x52,0x0,0x53,0x0,0x53,0x0,0x53,0x0
00089a 0052
00089b 0050
00089c 0052
00089d 0054      	.DB  0x52,0x0,0x50,0x0,0x52,0x0,0x54,0x0
00089e 005b
00089f 005b
0008a0 005b
0008a1 005b      	.DB  0x5B,0x0,0x5B,0x0,0x5B,0x0,0x5B,0x0
0008a2 005b
0008a3 005b
0008a4 005b
0008a5 005b      	.DB  0x5B,0x0,0x5B,0x0,0x5B,0x0,0x5B,0x0
0008a6 005b
0008a7 000c
0008a8 000c
0008a9 000c      	.DB  0x5B,0x0,0xC,0x0,0xC,0x0,0xC,0x0
0008aa 000c
0008ab 000c
0008ac 000c
0008ad 000c      	.DB  0xC,0x0,0xC,0x0,0xC,0x0,0xC,0x0
0008ae 000c
0008af 000c
0008b0 0012
0008b1 0017      	.DB  0xC,0x0,0xC,0x0,0x12,0x0,0x17,0x0
0008b2 001c
0008b3 0020
0008b4 0025
0008b5 002a      	.DB  0x1C,0x0,0x20,0x0,0x25,0x0,0x2A,0x0
0008b6 002a
0008b7 002a
0008b8 002a
0008b9 0029      	.DB  0x2A,0x0,0x2A,0x0,0x2A,0x0,0x29,0x0
0008ba 003c
0008bb 0041
0008bc 0043
0008bd 0050      	.DB  0x3C,0x0,0x41,0x0,0x43,0x0,0x50,0x0
0008be 0052
0008bf 0054
0008c0 0055
0008c1 0055      	.DB  0x52,0x0,0x54,0x0,0x55,0x0,0x55,0x0
0008c2 0055
0008c3 0054
0008c4 0052
0008c5 0054      	.DB  0x55,0x0,0x54,0x0,0x52,0x0,0x54,0x0
0008c6 0055
0008c7 005b
0008c8 005b
0008c9 005b      	.DB  0x55,0x0,0x5B,0x0,0x5B,0x0,0x5B,0x0
0008ca 005b
0008cb 005b
0008cc 005b
0008cd 005b      	.DB  0x5B,0x0,0x5B,0x0,0x5B,0x0,0x5B,0x0
0008ce 005b
0008cf 005b
0008d0 000c
0008d1 000c      	.DB  0x5B,0x0,0x5B,0x0,0xC,0x0,0xC,0x0
0008d2 000c
0008d3 000c
0008d4 000c
0008d5 000c      	.DB  0xC,0x0,0xC,0x0,0xC,0x0,0xC,0x0
0008d6 000c
0008d7 000c
0008d8 000c
0008d9 0012      	.DB  0xC,0x0,0xC,0x0,0xC,0x0,0x12,0x0
0008da 0017
0008db 001c
0008dc 0020
0008dd 0025      	.DB  0x17,0x0,0x1C,0x0,0x20,0x0,0x25,0x0
0008de 002c
0008df 002c
0008e0 002b
0008e1 002b      	.DB  0x2C,0x0,0x2C,0x0,0x2B,0x0,0x2B,0x0
0008e2 002b
0008e3 003e
0008e4 0043
0008e5 0045      	.DB  0x2B,0x0,0x3E,0x0,0x43,0x0,0x45,0x0
0008e6 0053
0008e7 0055
0008e8 0056
0008e9 0057      	.DB  0x53,0x0,0x55,0x0,0x56,0x0,0x57,0x0
0008ea 0058
0008eb 0057
0008ec 0056
0008ed 0055      	.DB  0x58,0x0,0x57,0x0,0x56,0x0,0x55,0x0
0008ee 0056
0008ef 0057
0008f0 005b
0008f1 005b      	.DB  0x56,0x0,0x57,0x0,0x5B,0x0,0x5B,0x0
0008f2 005b
0008f3 005b
0008f4 005b
0008f5 005b      	.DB  0x5B,0x0,0x5B,0x0,0x5B,0x0,0x5B,0x0
0008f6 005b
0008f7 005b
0008f8 005b
0008f9 000b      	.DB  0x5B,0x0,0x5B,0x0,0x5B,0x0,0xB,0x0
0008fa 000b
0008fb 000b
0008fc 000b
0008fd 000b      	.DB  0xB,0x0,0xB,0x0,0xB,0x0,0xB,0x0
0008fe 000b
0008ff 000b
000900 000b
000901 000b      	.DB  0xB,0x0,0xB,0x0,0xB,0x0,0xB,0x0
000902 0012
000903 0017
000904 001c
000905 0020      	.DB  0x12,0x0,0x17,0x0,0x1C,0x0,0x20,0x0
000906 0025
000907 002d
000908 002d
000909 002d      	.DB  0x25,0x0,0x2D,0x0,0x2D,0x0,0x2D,0x0
00090a 002d
00090b 002d
00090c 0040
00090d 0044      	.DB  0x2D,0x0,0x2D,0x0,0x40,0x0,0x44,0x0
00090e 0047
00090f 0059
000910 005a
000911 005a      	.DB  0x47,0x0,0x59,0x0,0x5A,0x0,0x5A,0x0
000912 005b
000913 005b
000914 005b
000915 005a      	.DB  0x5B,0x0,0x5B,0x0,0x5B,0x0,0x5A,0x0
000916 005a
000917 005a
000918 005b
000919 005b      	.DB  0x5A,0x0,0x5A,0x0,0x5B,0x0,0x5B,0x0
00091a 005b
00091b 005b
00091c 005b
00091d 005b      	.DB  0x5B,0x0,0x5B,0x0,0x5B,0x0,0x5B,0x0
00091e 005b
00091f 005b
000920 005b
000921 005b      	.DB  0x5B,0x0,0x5B,0x0,0x5B,0x0,0x5B,0x0
000922 0012
000923 0012
000924 0012
000925 0012      	.DB  0x12,0x0,0x12,0x0,0x12,0x0,0x12,0x0
000926 0012
000927 0012
000928 0012
000929 0012      	.DB  0x12,0x0,0x12,0x0,0x12,0x0,0x12,0x0
00092a 0012
00092b 0016
00092c 001b
00092d 001f      	.DB  0x12,0x0,0x16,0x0,0x1B,0x0,0x1F,0x0
00092e 0024
00092f 0029
000930 0031
000931 0031      	.DB  0x24,0x0,0x29,0x0,0x31,0x0,0x31,0x0
000932 0032
000933 0033
000934 0034
000935 0041      	.DB  0x32,0x0,0x33,0x0,0x34,0x0,0x41,0x0
000936 0045
000937 0047
000938 0059
000939 005a      	.DB  0x45,0x0,0x47,0x0,0x59,0x0,0x5A,0x0
00093a 005a
00093b 005b
00093c 005b
00093d 005b      	.DB  0x5A,0x0,0x5B,0x0,0x5B,0x0,0x5B,0x0
00093e 005a
00093f 005a
000940 005a
000941 005b      	.DB  0x5A,0x0,0x5A,0x0,0x5A,0x0,0x5B,0x0
000942 005b
000943 005b
000944 005b
000945 005b      	.DB  0x5B,0x0,0x5B,0x0,0x5B,0x0,0x5B,0x0
000946 005b
000947 005b
000948 005b
000949 005b      	.DB  0x5B,0x0,0x5B,0x0,0x5B,0x0,0x5B,0x0
00094a 005b
00094b 0017
00094c 0017
00094d 0017      	.DB  0x5B,0x0,0x17,0x0,0x17,0x0,0x17,0x0
00094e 0017
00094f 0017
000950 0017
000951 0017      	.DB  0x17,0x0,0x17,0x0,0x17,0x0,0x17,0x0
000952 0017
000953 0017
000954 001a
000955 001f      	.DB  0x17,0x0,0x17,0x0,0x1A,0x0,0x1F,0x0
000956 0023
000957 0027
000958 002c
000959 0035      	.DB  0x23,0x0,0x27,0x0,0x2C,0x0,0x35,0x0
00095a 0035
00095b 0036
00095c 0037
00095d 0039      	.DB  0x35,0x0,0x36,0x0,0x37,0x0,0x39,0x0
00095e 0042
00095f 0046
000960 0047
000961 0059      	.DB  0x42,0x0,0x46,0x0,0x47,0x0,0x59,0x0
000962 005a
000963 005a
000964 005b
000965 005b      	.DB  0x5A,0x0,0x5A,0x0,0x5B,0x0,0x5B,0x0
000966 005b
000967 005a
000968 005a
000969 005a      	.DB  0x5B,0x0,0x5A,0x0,0x5A,0x0,0x5A,0x0
00096a 005b
00096b 005b
00096c 005b
00096d 005b      	.DB  0x5B,0x0,0x5B,0x0,0x5B,0x0,0x5B,0x0
00096e 005b
00096f 005b
000970 005b
000971 005b      	.DB  0x5B,0x0,0x5B,0x0,0x5B,0x0,0x5B,0x0
000972 005b
000973 005b
000974 001c
000975 001c      	.DB  0x5B,0x0,0x5B,0x0,0x1C,0x0,0x1C,0x0
000976 001c
000977 001c
000978 001c
000979 001c      	.DB  0x1C,0x0,0x1C,0x0,0x1C,0x0,0x1C,0x0
00097a 001c
00097b 001c
00097c 001c
00097d 001e      	.DB  0x1C,0x0,0x1C,0x0,0x1C,0x0,0x1E,0x0
00097e 0021
00097f 0025
000980 002a
000981 002f      	.DB  0x21,0x0,0x25,0x0,0x2A,0x0,0x2F,0x0
000982 0038
000983 0038
000984 0039
000985 003a      	.DB  0x38,0x0,0x38,0x0,0x39,0x0,0x3A,0x0
000986 003d
000987 0043
000988 0047
000989 0047      	.DB  0x3D,0x0,0x43,0x0,0x47,0x0,0x47,0x0
00098a 0059
00098b 005a
00098c 005a
00098d 005a      	.DB  0x59,0x0,0x5A,0x0,0x5A,0x0,0x5A,0x0
00098e 005a
00098f 005a
000990 005a
000991 005a      	.DB  0x5A,0x0,0x5A,0x0,0x5A,0x0,0x5A,0x0
000992 005a
000993 005b
000994 005b
000995 005b      	.DB  0x5A,0x0,0x5B,0x0,0x5B,0x0,0x5B,0x0
000996 005b
000997 005b
000998 005b
000999 005b      	.DB  0x5B,0x0,0x5B,0x0,0x5B,0x0,0x5B,0x0
00099a 005b
00099b 005b
00099c 005b
00099d 0020      	.DB  0x5B,0x0,0x5B,0x0,0x5B,0x0,0x20,0x0
00099e 0020
00099f 0020
0009a0 0020
0009a1 0020      	.DB  0x20,0x0,0x20,0x0,0x20,0x0,0x20,0x0
0009a2 0020
0009a3 0020
0009a4 0020
0009a5 0020      	.DB  0x20,0x0,0x20,0x0,0x20,0x0,0x20,0x0
0009a6 0022
0009a7 0024
0009a8 0028
0009a9 002c      	.DB  0x22,0x0,0x24,0x0,0x28,0x0,0x2C,0x0
0009aa 0032
0009ab 003b
0009ac 003b
0009ad 003b      	.DB  0x32,0x0,0x3B,0x0,0x3B,0x0,0x3B,0x0
0009ae 003d
0009af 0040
0009b0 0045
0009b1 0048      	.DB  0x3D,0x0,0x40,0x0,0x45,0x0,0x48,0x0
0009b2 0048
0009b3 0059
0009b4 005a
0009b5 005a      	.DB  0x48,0x0,0x59,0x0,0x5A,0x0,0x5A,0x0
0009b6 005a
0009b7 005a
0009b8 005a
0009b9 005a      	.DB  0x5A,0x0,0x5A,0x0,0x5A,0x0,0x5A,0x0
0009ba 005a
0009bb 005a
0009bc 005b
0009bd 005b      	.DB  0x5A,0x0,0x5A,0x0,0x5B,0x0,0x5B,0x0
0009be 005b
0009bf 005b
0009c0 005b
0009c1 005b      	.DB  0x5B,0x0,0x5B,0x0,0x5B,0x0,0x5B,0x0
0009c2 005b
0009c3 005b
0009c4 005b
0009c5 005b      	.DB  0x5B,0x0,0x5B,0x0,0x5B,0x0,0x5B,0x0
0009c6 0024
0009c7 0024
0009c8 0024
0009c9 0024      	.DB  0x24,0x0,0x24,0x0,0x24,0x0,0x24,0x0
0009ca 0024
0009cb 0024
0009cc 0024
0009cd 0024      	.DB  0x24,0x0,0x24,0x0,0x24,0x0,0x24,0x0
0009ce 0024
0009cf 0025
0009d0 0026
0009d1 002a      	.DB  0x24,0x0,0x25,0x0,0x26,0x0,0x2A,0x0
0009d2 002e
0009d3 0034
0009d4 003d
0009d5 003d      	.DB  0x2E,0x0,0x34,0x0,0x3D,0x0,0x3D,0x0
0009d6 003d
0009d7 003f
0009d8 0042
0009d9 0046      	.DB  0x3D,0x0,0x3F,0x0,0x42,0x0,0x46,0x0
0009da 0049
0009db 0049
0009dc 0059
0009dd 005a      	.DB  0x49,0x0,0x49,0x0,0x59,0x0,0x5A,0x0
0009de 005a
0009df 005a
0009e0 005a
0009e1 005a      	.DB  0x5A,0x0,0x5A,0x0,0x5A,0x0,0x5A,0x0
0009e2 005a
0009e3 005a
0009e4 005a
0009e5 005b      	.DB  0x5A,0x0,0x5A,0x0,0x5A,0x0,0x5B,0x0
0009e6 005b
0009e7 005b
0009e8 005b
0009e9 005b      	.DB  0x5B,0x0,0x5B,0x0,0x5B,0x0,0x5B,0x0
0009ea 005b
0009eb 005b
0009ec 005b
0009ed 005b      	.DB  0x5B,0x0,0x5B,0x0,0x5B,0x0,0x5B,0x0
0009ee 005b
0009ef 0027
0009f0 0027
0009f1 0027      	.DB  0x5B,0x0,0x27,0x0,0x27,0x0,0x27,0x0
0009f2 0027
0009f3 0027
0009f4 0027
0009f5 0027      	.DB  0x27,0x0,0x27,0x0,0x27,0x0,0x27,0x0
0009f6 0027
0009f7 0027
0009f8 0028
0009f9 0029      	.DB  0x27,0x0,0x27,0x0,0x28,0x0,0x29,0x0
0009fa 002b
0009fb 002f
0009fc 0036
0009fd 003f      	.DB  0x2B,0x0,0x2F,0x0,0x36,0x0,0x3F,0x0
0009fe 003f
0009ff 003f
000a00 0041
000a01 0044      	.DB  0x3F,0x0,0x3F,0x0,0x41,0x0,0x44,0x0
000a02 0047
000a03 004a
000a04 004a
000a05 0059      	.DB  0x47,0x0,0x4A,0x0,0x4A,0x0,0x59,0x0
000a06 005a
000a07 005a
000a08 005a
000a09 005a      	.DB  0x5A,0x0,0x5A,0x0,0x5A,0x0,0x5A,0x0
000a0a 005a
000a0b 005a
000a0c 005a
000a0d 005a      	.DB  0x5A,0x0,0x5A,0x0,0x5A,0x0,0x5A,0x0
000a0e 005b
000a0f 005b
000a10 005b
000a11 005b      	.DB  0x5B,0x0,0x5B,0x0,0x5B,0x0,0x5B,0x0
000a12 005b
000a13 005b
000a14 005b
000a15 005b      	.DB  0x5B,0x0,0x5B,0x0,0x5B,0x0,0x5B,0x0
000a16 005b
000a17 005b
000a18 002b
000a19 002b      	.DB  0x5B,0x0,0x5B,0x0,0x2B,0x0,0x2B,0x0
000a1a 002b
000a1b 002b
000a1c 002b
000a1d 002b      	.DB  0x2B,0x0,0x2B,0x0,0x2B,0x0,0x2B,0x0
000a1e 002b
000a1f 002b
000a20 002b
000a21 002b      	.DB  0x2B,0x0,0x2B,0x0,0x2B,0x0,0x2B,0x0
000a22 002c
000a23 002c
000a24 0031
000a25 0038      	.DB  0x2C,0x0,0x2C,0x0,0x31,0x0,0x38,0x0
000a26 0042
000a27 0042
000a28 0042
000a29 0042      	.DB  0x42,0x0,0x42,0x0,0x42,0x0,0x42,0x0
000a2a 0046
000a2b 0048
000a2c 004b
000a2d 004b      	.DB  0x46,0x0,0x48,0x0,0x4B,0x0,0x4B,0x0
000a2e 0059
000a2f 005a
000a30 005a
000a31 005a      	.DB  0x59,0x0,0x5A,0x0,0x5A,0x0,0x5A,0x0
000a32 005a
000a33 005a
000a34 005a
000a35 005a      	.DB  0x5A,0x0,0x5A,0x0,0x5A,0x0,0x5A,0x0
000a36 005a
000a37 005b
000a38 005b
000a39 005b      	.DB  0x5A,0x0,0x5B,0x0,0x5B,0x0,0x5B,0x0
000a3a 005b
000a3b 005b
000a3c 005b
000a3d 005b      	.DB  0x5B,0x0,0x5B,0x0,0x5B,0x0,0x5B,0x0
000a3e 005b
000a3f 005b
000a40 005b
000a41 002e      	.DB  0x5B,0x0,0x5B,0x0,0x5B,0x0,0x2E,0x0
000a42 002e
000a43 002e
000a44 002e
000a45 002e      	.DB  0x2E,0x0,0x2E,0x0,0x2E,0x0,0x2E,0x0
000a46 002e
000a47 002e
000a48 002e
000a49 002e      	.DB  0x2E,0x0,0x2E,0x0,0x2E,0x0,0x2E,0x0
000a4a 002e
000a4b 002e
000a4c 002e
000a4d 0033      	.DB  0x2E,0x0,0x2E,0x0,0x2E,0x0,0x33,0x0
000a4e 0039
000a4f 0043
000a50 0043
000a51 0043      	.DB  0x39,0x0,0x43,0x0,0x43,0x0,0x43,0x0
000a52 0044
000a53 0047
000a54 0048
000a55 004c      	.DB  0x44,0x0,0x47,0x0,0x48,0x0,0x4C,0x0
000a56 004c
000a57 005a
000a58 005a
000a59 005a      	.DB  0x4C,0x0,0x5A,0x0,0x5A,0x0,0x5A,0x0
000a5a 005a
000a5b 005a
000a5c 005a
000a5d 005a      	.DB  0x5A,0x0,0x5A,0x0,0x5A,0x0,0x5A,0x0
000a5e 005a
000a5f 005a
000a60 005b
000a61 005b      	.DB  0x5A,0x0,0x5A,0x0,0x5B,0x0,0x5B,0x0
000a62 005b
000a63 005b
000a64 005b
000a65 005b      	.DB  0x5B,0x0,0x5B,0x0,0x5B,0x0,0x5B,0x0
000a66 005b
000a67 005b
000a68 005b
000a69 005b      	.DB  0x5B,0x0,0x5B,0x0,0x5B,0x0,0x5B,0x0
000a6a 0030
000a6b 0030
000a6c 0030
000a6d 0030      	.DB  0x30,0x0,0x30,0x0,0x30,0x0,0x30,0x0
000a6e 0030
000a6f 0030
000a70 0030
000a71 0030      	.DB  0x30,0x0,0x30,0x0,0x30,0x0,0x30,0x0
000a72 0030
000a73 0031
000a74 0031
000a75 0031      	.DB  0x30,0x0,0x31,0x0,0x31,0x0,0x31,0x0
000a76 0034
000a77 003a
000a78 0043
000a79 0043      	.DB  0x34,0x0,0x3A,0x0,0x43,0x0,0x43,0x0
000a7a 0043
000a7b 0045
000a7c 0048
000a7d 0049      	.DB  0x43,0x0,0x45,0x0,0x48,0x0,0x49,0x0
000a7e 004c
000a7f 004d
000a80 005a
000a81 005a      	.DB  0x4C,0x0,0x4D,0x0,0x5A,0x0,0x5A,0x0
000a82 005a
000a83 005a
000a84 005a
000a85 005a      	.DB  0x5A,0x0,0x5A,0x0,0x5A,0x0,0x5A,0x0
000a86 005a
000a87 005a
000a88 005a
000a89 005b      	.DB  0x5A,0x0,0x5A,0x0,0x5A,0x0,0x5B,0x0
000a8a 005b
000a8b 005b
000a8c 005b
000a8d 005b      	.DB  0x5B,0x0,0x5B,0x0,0x5B,0x0,0x5B,0x0
000a8e 005b
000a8f 005b
000a90 005b
000a91 005b      	.DB  0x5B,0x0,0x5B,0x0,0x5B,0x0,0x5B,0x0
000a92 005b
000a93 0033
000a94 0033
000a95 0033      	.DB  0x5B,0x0,0x33,0x0,0x33,0x0,0x33,0x0
000a96 0033
000a97 0033
000a98 0033
000a99 0033      	.DB  0x33,0x0,0x33,0x0,0x33,0x0,0x33,0x0
000a9a 0033
000a9b 0033
000a9c 0033
000a9d 0033      	.DB  0x33,0x0,0x33,0x0,0x33,0x0,0x33,0x0
000a9e 0034
000a9f 0035
000aa0 003b
000aa1 0044      	.DB  0x34,0x0,0x35,0x0,0x3B,0x0,0x44,0x0
000aa2 0044
000aa3 0044
000aa4 0046
000aa5 0049      	.DB  0x44,0x0,0x44,0x0,0x46,0x0,0x49,0x0
000aa6 004a
000aa7 004c
000aa8 004d
000aa9 005a      	.DB  0x4A,0x0,0x4C,0x0,0x4D,0x0,0x5A,0x0
000aaa 005a
000aab 005a
000aac 005a
000aad 005a      	.DB  0x5A,0x0,0x5A,0x0,0x5A,0x0,0x5A,0x0
000aae 005a
000aaf 005a
000ab0 005a
000ab1 005a      	.DB  0x5A,0x0,0x5A,0x0,0x5A,0x0,0x5A,0x0
000ab2 005b
000ab3 005b
000ab4 005b
000ab5 005b      	.DB  0x5B,0x0,0x5B,0x0,0x5B,0x0,0x5B,0x0
000ab6 005b
000ab7 005b
000ab8 005b
000ab9 005b      	.DB  0x5B,0x0,0x5B,0x0,0x5B,0x0,0x5B,0x0
000aba 005b
000abb 005b
000abc 0036
000abd 0036      	.DB  0x5B,0x0,0x5B,0x0,0x36,0x0,0x36,0x0
000abe 0036
000abf 0036
000ac0 0036
000ac1 0036      	.DB  0x36,0x0,0x36,0x0,0x36,0x0,0x36,0x0
000ac2 0036
000ac3 0036
000ac4 0036
000ac5 0035      	.DB  0x36,0x0,0x36,0x0,0x36,0x0,0x35,0x0
000ac6 0035
000ac7 0036
000ac8 0037
000ac9 003c      	.DB  0x35,0x0,0x36,0x0,0x37,0x0,0x3C,0x0
000aca 0044
000acb 0044
000acc 0045
000acd 0047      	.DB  0x44,0x0,0x44,0x0,0x45,0x0,0x47,0x0
000ace 004a
000acf 004b
000ad0 004d
000ad1 004e      	.DB  0x4A,0x0,0x4B,0x0,0x4D,0x0,0x4E,0x0
000ad2 005a
000ad3 005a
000ad4 005a
000ad5 005a      	.DB  0x5A,0x0,0x5A,0x0,0x5A,0x0,0x5A,0x0
000ad6 005a
000ad7 005a
000ad8 005a
000ad9 005a      	.DB  0x5A,0x0,0x5A,0x0,0x5A,0x0,0x5A,0x0
000ada 005a
000adb 005b
000adc 005b
000add 005b      	.DB  0x5A,0x0,0x5B,0x0,0x5B,0x0,0x5B,0x0
000ade 005b
000adf 005b
000ae0 005b
000ae1 005b      	.DB  0x5B,0x0,0x5B,0x0,0x5B,0x0,0x5B,0x0
000ae2 005b
000ae3 005b
000ae4 005b
000ae5 0038      	.DB  0x5B,0x0,0x5B,0x0,0x5B,0x0,0x38,0x0
000ae6 0038
000ae7 0038
000ae8 0038
000ae9 0038      	.DB  0x38,0x0,0x38,0x0,0x38,0x0,0x38,0x0
000aea 0038
000aeb 0038
000aec 0038
000aed 0038      	.DB  0x38,0x0,0x38,0x0,0x38,0x0,0x38,0x0
000aee 0038
000aef 0038
000af0 0039
000af1 003a      	.DB  0x38,0x0,0x38,0x0,0x39,0x0,0x3A,0x0
000af2 003d
000af3 0045
000af4 0045
000af5 0046      	.DB  0x3D,0x0,0x45,0x0,0x45,0x0,0x46,0x0
000af6 0047
000af7 004b
000af8 004b
000af9 004d      	.DB  0x47,0x0,0x4B,0x0,0x4B,0x0,0x4D,0x0
000afa 004e
000afb 005a
000afc 005a
000afd 005a      	.DB  0x4E,0x0,0x5A,0x0,0x5A,0x0,0x5A,0x0
000afe 005a
000aff 005a
000b00 005a
000b01 005a      	.DB  0x5A,0x0,0x5A,0x0,0x5A,0x0,0x5A,0x0
000b02 005a
000b03 005a
000b04 005b
000b05 005b      	.DB  0x5A,0x0,0x5A,0x0,0x5B,0x0,0x5B,0x0
000b06 005b
000b07 005b
000b08 005b
000b09 005b      	.DB  0x5B,0x0,0x5B,0x0,0x5B,0x0,0x5B,0x0
000b0a 005b
000b0b 005b
000b0c 005b
000b0d 005b      	.DB  0x5B,0x0,0x5B,0x0,0x5B,0x0,0x5B,0x0
000b0e 003a
000b0f 003a
000b10 003a
000b11 003a      	.DB  0x3A,0x0,0x3A,0x0,0x3A,0x0,0x3A,0x0
000b12 003a
000b13 003a
000b14 003a
000b15 003a      	.DB  0x3A,0x0,0x3A,0x0,0x3A,0x0,0x3A,0x0
000b16 003a
000b17 003a
000b18 003a
000b19 003b      	.DB  0x3A,0x0,0x3A,0x0,0x3A,0x0,0x3B,0x0
000b1a 003c
000b1b 003e
000b1c 0045
000b1d 0045      	.DB  0x3C,0x0,0x3E,0x0,0x45,0x0,0x45,0x0
000b1e 0046
000b1f 0048
000b20 004b
000b21 004c      	.DB  0x46,0x0,0x48,0x0,0x4B,0x0,0x4C,0x0
000b22 004d
000b23 004f
000b24 005b
000b25 005b      	.DB  0x4D,0x0,0x4F,0x0,0x5B,0x0,0x5B,0x0
000b26 005b
000b27 005b
000b28 005b
000b29 005b      	.DB  0x5B,0x0,0x5B,0x0,0x5B,0x0,0x5B,0x0
000b2a 005b
000b2b 005b
000b2c 005b
000b2d 005b      	.DB  0x5B,0x0,0x5B,0x0,0x5B,0x0,0x5B,0x0
000b2e 005b
000b2f 005b
000b30 005b
000b31 005b      	.DB  0x5B,0x0,0x5B,0x0,0x5B,0x0,0x5B,0x0
000b32 005b
000b33 005b
000b34 005b
000b35 005b      	.DB  0x5B,0x0,0x5B,0x0,0x5B,0x0,0x5B,0x0
000b36 005b
000b37 003d
000b38 003d
000b39 003d      	.DB  0x5B,0x0,0x3D,0x0,0x3D,0x0,0x3D,0x0
000b3a 003d
000b3b 003d
000b3c 003d
000b3d 003d      	.DB  0x3D,0x0,0x3D,0x0,0x3D,0x0,0x3D,0x0
000b3e 003d
000b3f 003d
000b40 003c
000b41 003d      	.DB  0x3D,0x0,0x3D,0x0,0x3C,0x0,0x3D,0x0
000b42 003d
000b43 003f
000b44 0041
000b45 0046      	.DB  0x3D,0x0,0x3F,0x0,0x41,0x0,0x46,0x0
000b46 0046
000b47 0047
000b48 0049
000b49 004c      	.DB  0x46,0x0,0x47,0x0,0x49,0x0,0x4C,0x0
000b4a 004c
000b4b 004d
000b4c 004f
000b4d 005b      	.DB  0x4C,0x0,0x4D,0x0,0x4F,0x0,0x5B,0x0
000b4e 005b
000b4f 005b
000b50 005b
000b51 005b      	.DB  0x5B,0x0,0x5B,0x0,0x5B,0x0,0x5B,0x0
000b52 005b
000b53 005b
000b54 005b
000b55 005b      	.DB  0x5B,0x0,0x5B,0x0,0x5B,0x0,0x5B,0x0
000b56 005b
000b57 005b
000b58 005b
000b59 005b      	.DB  0x5B,0x0,0x5B,0x0,0x5B,0x0,0x5B,0x0
000b5a 005b
000b5b 005b
000b5c 005b
000b5d 005b      	.DB  0x5B,0x0,0x5B,0x0,0x5B,0x0,0x5B,0x0
000b5e 005b
000b5f 005b
000b60 003f
000b61 003f      	.DB  0x5B,0x0,0x5B,0x0,0x3F,0x0,0x3F,0x0
000b62 003f
000b63 003f
000b64 003f
000b65 003f      	.DB  0x3F,0x0,0x3F,0x0,0x3F,0x0,0x3F,0x0
000b66 003f
000b67 003f
000b68 003f
000b69 003f      	.DB  0x3F,0x0,0x3F,0x0,0x3F,0x0,0x3F,0x0
000b6a 003f
000b6b 0040
000b6c 0041
000b6d 0043      	.DB  0x3F,0x0,0x40,0x0,0x41,0x0,0x43,0x0
000b6e 0046
000b6f 0046
000b70 0047
000b71 0049      	.DB  0x46,0x0,0x46,0x0,0x47,0x0,0x49,0x0
000b72 004c
000b73 004c
000b74 004e
000b75 0050      	.DB  0x4C,0x0,0x4C,0x0,0x4E,0x0,0x50,0x0
000b76 005b
000b77 005b
000b78 005b
000b79 005b      	.DB  0x5B,0x0,0x5B,0x0,0x5B,0x0,0x5B,0x0
000b7a 005b
000b7b 005b
000b7c 005b
000b7d 005b      	.DB  0x5B,0x0,0x5B,0x0,0x5B,0x0,0x5B,0x0
000b7e 005b
000b7f 005b
000b80 005b
000b81 005b      	.DB  0x5B,0x0,0x5B,0x0,0x5B,0x0,0x5B,0x0
000b82 005b
000b83 005b
000b84 005b
000b85 005b      	.DB  0x5B,0x0,0x5B,0x0,0x5B,0x0,0x5B,0x0
000b86 005b
000b87 005b
000b88 005b
000b89 003f      	.DB  0x5B,0x0,0x5B,0x0,0x5B,0x0,0x3F,0x0
000b8a 003f
000b8b 003f
000b8c 003f
000b8d 003f      	.DB  0x3F,0x0,0x3F,0x0,0x3F,0x0,0x3F,0x0
000b8e 003f
000b8f 003f
000b90 003f
000b91 003f      	.DB  0x3F,0x0,0x3F,0x0,0x3F,0x0,0x3F,0x0
000b92 003f
000b93 003f
000b94 0040
000b95 0041      	.DB  0x3F,0x0,0x3F,0x0,0x40,0x0,0x41,0x0
000b96 0043
000b97 0046
000b98 0046
000b99 0047      	.DB  0x43,0x0,0x46,0x0,0x46,0x0,0x47,0x0
000b9a 0049
000b9b 004c
000b9c 004c
000b9d 004e      	.DB  0x49,0x0,0x4C,0x0,0x4C,0x0,0x4E,0x0
000b9e 0050
000b9f 005b
000ba0 005b
000ba1 005b      	.DB  0x50,0x0,0x5B,0x0,0x5B,0x0,0x5B,0x0
000ba2 005b
000ba3 005b
000ba4 005b
000ba5 005b      	.DB  0x5B,0x0,0x5B,0x0,0x5B,0x0,0x5B,0x0
000ba6 005b
000ba7 005b
000ba8 005b
000ba9 005b      	.DB  0x5B,0x0,0x5B,0x0,0x5B,0x0,0x5B,0x0
000baa 005b
000bab 005b
000bac 005b
000bad 005b      	.DB  0x5B,0x0,0x5B,0x0,0x5B,0x0,0x5B,0x0
000bae 005b
000baf 005b
000bb0 005b
000bb1 005b      	.DB  0x5B,0x0,0x5B,0x0,0x5B,0x0,0x5B,0x0
000bb2 003f
000bb3 003f
000bb4 003f
000bb5 003f      	.DB  0x3F,0x0,0x3F,0x0,0x3F,0x0,0x3F,0x0
000bb6 003f
000bb7 003f
000bb8 003f
000bb9 003f      	.DB  0x3F,0x0,0x3F,0x0,0x3F,0x0,0x3F,0x0
000bba 003f
000bbb 003f
000bbc 003f
000bbd 0040      	.DB  0x3F,0x0,0x3F,0x0,0x3F,0x0,0x40,0x0
000bbe 0041
000bbf 0043
000bc0 0046
000bc1 0046      	.DB  0x41,0x0,0x43,0x0,0x46,0x0,0x46,0x0
000bc2 0047
000bc3 0049
000bc4 004c
000bc5 004c      	.DB  0x47,0x0,0x49,0x0,0x4C,0x0,0x4C,0x0
000bc6 004e
000bc7 0050
000bc8 005b
000bc9 005b      	.DB  0x4E,0x0,0x50,0x0,0x5B,0x0,0x5B,0x0
000bca 005b
000bcb 005b
000bcc 005b
000bcd 005b      	.DB  0x5B,0x0,0x5B,0x0,0x5B,0x0,0x5B,0x0
000bce 005b
000bcf 005b
000bd0 005b
000bd1 005b      	.DB  0x5B,0x0,0x5B,0x0,0x5B,0x0,0x5B,0x0
000bd2 005b
000bd3 005b
000bd4 005b
000bd5 005b      	.DB  0x5B,0x0,0x5B,0x0,0x5B,0x0,0x5B,0x0
000bd6 005b
000bd7 005b
000bd8 005b
000bd9 005b      	.DB  0x5B,0x0,0x5B,0x0,0x5B,0x0,0x5B,0x0
000bda 005b
000bdb 003f
000bdc 003f
000bdd 003f      	.DB  0x5B,0x0,0x3F,0x0,0x3F,0x0,0x3F,0x0
000bde 003f
000bdf 003f
000be0 003f
000be1 003f      	.DB  0x3F,0x0,0x3F,0x0,0x3F,0x0,0x3F,0x0
000be2 003f
000be3 003f
000be4 003f
000be5 003f      	.DB  0x3F,0x0,0x3F,0x0,0x3F,0x0,0x3F,0x0
000be6 0040
000be7 0041
000be8 0043
000be9 0046      	.DB  0x40,0x0,0x41,0x0,0x43,0x0,0x46,0x0
000bea 0046
000beb 0047
000bec 0049
000bed 004c      	.DB  0x46,0x0,0x47,0x0,0x49,0x0,0x4C,0x0
000bee 004c
000bef 004e
000bf0 0050
000bf1 005b      	.DB  0x4C,0x0,0x4E,0x0,0x50,0x0,0x5B,0x0
000bf2 005b
000bf3 005b
000bf4 005b
000bf5 005b      	.DB  0x5B,0x0,0x5B,0x0,0x5B,0x0,0x5B,0x0
000bf6 005b
000bf7 005b
000bf8 005b
000bf9 005b      	.DB  0x5B,0x0,0x5B,0x0,0x5B,0x0,0x5B,0x0
000bfa 005b
000bfb 005b
000bfc 005b
000bfd 005b      	.DB  0x5B,0x0,0x5B,0x0,0x5B,0x0,0x5B,0x0
000bfe 005b
000bff 005b
000c00 005b
000c01 005b      	.DB  0x5B,0x0,0x5B,0x0,0x5B,0x0,0x5B,0x0
000c02 005b
000c03 005b
000c04 003f
000c05 003f      	.DB  0x5B,0x0,0x5B,0x0,0x3F,0x0,0x3F,0x0
000c06 003f
000c07 003f
000c08 003f
000c09 003f      	.DB  0x3F,0x0,0x3F,0x0,0x3F,0x0,0x3F,0x0
000c0a 003f
000c0b 003f
000c0c 003f
000c0d 003f      	.DB  0x3F,0x0,0x3F,0x0,0x3F,0x0,0x3F,0x0
000c0e 003f
000c0f 0040
000c10 0041
000c11 0043      	.DB  0x3F,0x0,0x40,0x0,0x41,0x0,0x43,0x0
000c12 0046
000c13 0046
000c14 0047
000c15 0049      	.DB  0x46,0x0,0x46,0x0,0x47,0x0,0x49,0x0
000c16 004c
000c17 004c
000c18 004e
000c19 0050      	.DB  0x4C,0x0,0x4C,0x0,0x4E,0x0,0x50,0x0
000c1a 005b
000c1b 005b
000c1c 005b
000c1d 005b      	.DB  0x5B,0x0,0x5B,0x0,0x5B,0x0,0x5B,0x0
000c1e 005b
000c1f 005b
000c20 005b
000c21 005b      	.DB  0x5B,0x0,0x5B,0x0,0x5B,0x0,0x5B,0x0
000c22 005b
000c23 005b
000c24 005b
000c25 005b      	.DB  0x5B,0x0,0x5B,0x0,0x5B,0x0,0x5B,0x0
000c26 005b
000c27 005b
000c28 005b
000c29 005b      	.DB  0x5B,0x0,0x5B,0x0,0x5B,0x0,0x5B,0x0
000c2a 005b
000c2b 005b
000c2c 005b
000c2d 003f      	.DB  0x5B,0x0,0x5B,0x0,0x5B,0x0,0x3F,0x0
000c2e 003f
000c2f 003f
000c30 003f
000c31 003f      	.DB  0x3F,0x0,0x3F,0x0,0x3F,0x0,0x3F,0x0
000c32 003f
000c33 003f
000c34 003f
000c35 003f      	.DB  0x3F,0x0,0x3F,0x0,0x3F,0x0,0x3F,0x0
000c36 003f
000c37 003f
000c38 0040
000c39 0041      	.DB  0x3F,0x0,0x3F,0x0,0x40,0x0,0x41,0x0
000c3a 0043
000c3b 0046
000c3c 0046
000c3d 0047      	.DB  0x43,0x0,0x46,0x0,0x46,0x0,0x47,0x0
000c3e 0049
000c3f 004c
000c40 004c
000c41 004e      	.DB  0x49,0x0,0x4C,0x0,0x4C,0x0,0x4E,0x0
000c42 0050
000c43 005b
000c44 005b
000c45 005b      	.DB  0x50,0x0,0x5B,0x0,0x5B,0x0,0x5B,0x0
000c46 005b
000c47 005b
000c48 005b
000c49 005b      	.DB  0x5B,0x0,0x5B,0x0,0x5B,0x0,0x5B,0x0
000c4a 005b
000c4b 005b
000c4c 005b
000c4d 005b      	.DB  0x5B,0x0,0x5B,0x0,0x5B,0x0,0x5B,0x0
000c4e 005b
000c4f 005b
000c50 005b
000c51 005b      	.DB  0x5B,0x0,0x5B,0x0,0x5B,0x0,0x5B,0x0
000c52 005b
000c53 005b
000c54 005b
000c55 005b      	.DB  0x5B,0x0,0x5B,0x0,0x5B,0x0,0x5B,0x0
000c56 003f
000c57 003f
000c58 003f
000c59 003f      	.DB  0x3F,0x0,0x3F,0x0,0x3F,0x0,0x3F,0x0
000c5a 003f
000c5b 003f
000c5c 003f
000c5d 003f      	.DB  0x3F,0x0,0x3F,0x0,0x3F,0x0,0x3F,0x0
000c5e 003f
000c5f 003f
000c60 003f
000c61 0040      	.DB  0x3F,0x0,0x3F,0x0,0x3F,0x0,0x40,0x0
000c62 0041
000c63 0043
000c64 0046
000c65 0046      	.DB  0x41,0x0,0x43,0x0,0x46,0x0,0x46,0x0
000c66 0047
000c67 0049
000c68 004c
000c69 004c      	.DB  0x47,0x0,0x49,0x0,0x4C,0x0,0x4C,0x0
000c6a 004e
000c6b 0050
000c6c 005b
000c6d 005b      	.DB  0x4E,0x0,0x50,0x0,0x5B,0x0,0x5B,0x0
000c6e 005b
000c6f 005b
000c70 005b
000c71 005b      	.DB  0x5B,0x0,0x5B,0x0,0x5B,0x0,0x5B,0x0
000c72 005b
000c73 005b
000c74 005b
000c75 005b      	.DB  0x5B,0x0,0x5B,0x0,0x5B,0x0,0x5B,0x0
000c76 005b
000c77 005b
000c78 005b
000c79 005b      	.DB  0x5B,0x0,0x5B,0x0,0x5B,0x0,0x5B,0x0
000c7a 005b
000c7b 005b
000c7c 005b
000c7d 005b      	.DB  0x5B,0x0,0x5B,0x0,0x5B,0x0,0x5B,0x0
000c7e 005b
000c7f 003f
000c80 003f
000c81 003f      	.DB  0x5B,0x0,0x3F,0x0,0x3F,0x0,0x3F,0x0
000c82 003f
000c83 003f
000c84 003f
000c85 003f      	.DB  0x3F,0x0,0x3F,0x0,0x3F,0x0,0x3F,0x0
000c86 003f
000c87 003f
000c88 003f
000c89 003f      	.DB  0x3F,0x0,0x3F,0x0,0x3F,0x0,0x3F,0x0
000c8a 0040
000c8b 0041
000c8c 0043
000c8d 0046      	.DB  0x40,0x0,0x41,0x0,0x43,0x0,0x46,0x0
000c8e 0046
000c8f 0047
000c90 0049
000c91 004c      	.DB  0x46,0x0,0x47,0x0,0x49,0x0,0x4C,0x0
000c92 004c
000c93 004e
000c94 0050
000c95 005b      	.DB  0x4C,0x0,0x4E,0x0,0x50,0x0,0x5B,0x0
000c96 005b
000c97 005b
000c98 005b
000c99 005b      	.DB  0x5B,0x0,0x5B,0x0,0x5B,0x0,0x5B,0x0
000c9a 005b
000c9b 005b
000c9c 005b
000c9d 005b      	.DB  0x5B,0x0,0x5B,0x0,0x5B,0x0,0x5B,0x0
000c9e 005b
000c9f 005b
000ca0 005b
000ca1 005b      	.DB  0x5B,0x0,0x5B,0x0,0x5B,0x0,0x5B,0x0
000ca2 005b
000ca3 005b
000ca4 005b
000ca5 005b      	.DB  0x5B,0x0,0x5B,0x0,0x5B,0x0,0x5B,0x0
000ca6 005b
000ca7 005b
000ca8 003f
000ca9 003f      	.DB  0x5B,0x0,0x5B,0x0,0x3F,0x0,0x3F,0x0
000caa 003f
000cab 003f
000cac 003f
000cad 003f      	.DB  0x3F,0x0,0x3F,0x0,0x3F,0x0,0x3F,0x0
000cae 003f
000caf 003f
000cb0 003f
000cb1 003f      	.DB  0x3F,0x0,0x3F,0x0,0x3F,0x0,0x3F,0x0
000cb2 003f
000cb3 0040
000cb4 0041
000cb5 0043      	.DB  0x3F,0x0,0x40,0x0,0x41,0x0,0x43,0x0
000cb6 0046
000cb7 0046
000cb8 0047
000cb9 0049      	.DB  0x46,0x0,0x46,0x0,0x47,0x0,0x49,0x0
000cba 004c
000cbb 004c
000cbc 004e
000cbd 0050      	.DB  0x4C,0x0,0x4C,0x0,0x4E,0x0,0x50,0x0
000cbe 005b
000cbf 005b
000cc0 005b
000cc1 005b      	.DB  0x5B,0x0,0x5B,0x0,0x5B,0x0,0x5B,0x0
000cc2 005b
000cc3 005b
000cc4 005b
000cc5 005b      	.DB  0x5B,0x0,0x5B,0x0,0x5B,0x0,0x5B,0x0
000cc6 005b
000cc7 005b
000cc8 005b
000cc9 005b      	.DB  0x5B,0x0,0x5B,0x0,0x5B,0x0,0x5B,0x0
000cca 005b
000ccb 005b
000ccc 005b
000ccd 005b      	.DB  0x5B,0x0,0x5B,0x0,0x5B,0x0,0x5B,0x0
000cce 005b
000ccf 005b
000cd0 005b
000cd1 003f      	.DB  0x5B,0x0,0x5B,0x0,0x5B,0x0,0x3F,0x0
000cd2 003f
000cd3 003f
000cd4 003f
000cd5 003f      	.DB  0x3F,0x0,0x3F,0x0,0x3F,0x0,0x3F,0x0
000cd6 003f
000cd7 003f
000cd8 003f
000cd9 003f      	.DB  0x3F,0x0,0x3F,0x0,0x3F,0x0,0x3F,0x0
000cda 003f
000cdb 003f
000cdc 0040
000cdd 0041      	.DB  0x3F,0x0,0x3F,0x0,0x40,0x0,0x41,0x0
000cde 0043
000cdf 0046
000ce0 0046
000ce1 0047      	.DB  0x43,0x0,0x46,0x0,0x46,0x0,0x47,0x0
000ce2 0049
000ce3 004c
000ce4 004c
000ce5 004e      	.DB  0x49,0x0,0x4C,0x0,0x4C,0x0,0x4E,0x0
000ce6 0050
000ce7 005b
000ce8 005b
000ce9 005b      	.DB  0x50,0x0,0x5B,0x0,0x5B,0x0,0x5B,0x0
000cea 005b
000ceb 005b
000cec 005b
000ced 005b      	.DB  0x5B,0x0,0x5B,0x0,0x5B,0x0,0x5B,0x0
000cee 005b
000cef 005b
000cf0 005b
000cf1 005b      	.DB  0x5B,0x0,0x5B,0x0,0x5B,0x0,0x5B,0x0
000cf2 005b
000cf3 005b
000cf4 005b
000cf5 005b      	.DB  0x5B,0x0,0x5B,0x0,0x5B,0x0,0x5B,0x0
000cf6 005b
000cf7 005b
000cf8 005b
000cf9 005b      	.DB  0x5B,0x0,0x5B,0x0,0x5B,0x0,0x5B,0x0
000cfa 003f
000cfb 003f
000cfc 003f
000cfd 003f      	.DB  0x3F,0x0,0x3F,0x0,0x3F,0x0,0x3F,0x0
000cfe 003f
000cff 003f
000d00 003f
000d01 003f      	.DB  0x3F,0x0,0x3F,0x0,0x3F,0x0,0x3F,0x0
000d02 003f
000d03 003f
000d04 003f
000d05 0040      	.DB  0x3F,0x0,0x3F,0x0,0x3F,0x0,0x40,0x0
000d06 0041
000d07 0043
000d08 0046
000d09 0046      	.DB  0x41,0x0,0x43,0x0,0x46,0x0,0x46,0x0
000d0a 0047
000d0b 0049
000d0c 004c
000d0d 004c      	.DB  0x47,0x0,0x49,0x0,0x4C,0x0,0x4C,0x0
000d0e 004e
000d0f 0050
000d10 005b
000d11 005b      	.DB  0x4E,0x0,0x50,0x0,0x5B,0x0,0x5B,0x0
000d12 005b
000d13 005b
000d14 005b
000d15 005b      	.DB  0x5B,0x0,0x5B,0x0,0x5B,0x0,0x5B,0x0
000d16 005b
000d17 005b
000d18 005b
000d19 005b      	.DB  0x5B,0x0,0x5B,0x0,0x5B,0x0,0x5B,0x0
000d1a 005b
000d1b 005b
000d1c 005b
000d1d 005b      	.DB  0x5B,0x0,0x5B,0x0,0x5B,0x0,0x5B,0x0
000d1e 005b
000d1f 005b
000d20 005b
000d21 005b      	.DB  0x5B,0x0,0x5B,0x0,0x5B,0x0,0x5B,0x0
000d22 005b
000d23 003f
000d24 003f
000d25 003f      	.DB  0x5B,0x0,0x3F,0x0,0x3F,0x0,0x3F,0x0
000d26 003f
000d27 003f
000d28 003f
000d29 003f      	.DB  0x3F,0x0,0x3F,0x0,0x3F,0x0,0x3F,0x0
000d2a 003f
000d2b 003f
000d2c 003f
000d2d 003f      	.DB  0x3F,0x0,0x3F,0x0,0x3F,0x0,0x3F,0x0
000d2e 0040
000d2f 0041
000d30 0043
000d31 0046      	.DB  0x40,0x0,0x41,0x0,0x43,0x0,0x46,0x0
000d32 0046
000d33 0047
000d34 0049
000d35 004c      	.DB  0x46,0x0,0x47,0x0,0x49,0x0,0x4C,0x0
000d36 004c
000d37 004e
000d38 0050
000d39 005b      	.DB  0x4C,0x0,0x4E,0x0,0x50,0x0,0x5B,0x0
000d3a 005b
000d3b 005b
000d3c 005b
000d3d 005b      	.DB  0x5B,0x0,0x5B,0x0,0x5B,0x0,0x5B,0x0
000d3e 005b
000d3f 005b
000d40 005b
000d41 005b      	.DB  0x5B,0x0,0x5B,0x0,0x5B,0x0,0x5B,0x0
000d42 005b
000d43 005b
000d44 005b
000d45 005b      	.DB  0x5B,0x0,0x5B,0x0,0x5B,0x0,0x5B,0x0
000d46 005b
000d47 005b
000d48 005b
000d49 005b      	.DB  0x5B,0x0,0x5B,0x0,0x5B,0x0,0x5B,0x0
000d4a 005b
000d4b 005b
000d4c 003f
000d4d 003f      	.DB  0x5B,0x0,0x5B,0x0,0x3F,0x0,0x3F,0x0
000d4e 003f
000d4f 003f
000d50 003f
000d51 003f      	.DB  0x3F,0x0,0x3F,0x0,0x3F,0x0,0x3F,0x0
000d52 003f
000d53 003f
000d54 003f
000d55 003f      	.DB  0x3F,0x0,0x3F,0x0,0x3F,0x0,0x3F,0x0
000d56 003f
000d57 0040
000d58 0041
000d59 0043      	.DB  0x3F,0x0,0x40,0x0,0x41,0x0,0x43,0x0
000d5a 0046
000d5b 0046
000d5c 0047
000d5d 0049      	.DB  0x46,0x0,0x46,0x0,0x47,0x0,0x49,0x0
000d5e 004c
000d5f 004c
000d60 004e
000d61 0050      	.DB  0x4C,0x0,0x4C,0x0,0x4E,0x0,0x50,0x0
000d62 005b
000d63 005b
000d64 005b
000d65 005b      	.DB  0x5B,0x0,0x5B,0x0,0x5B,0x0,0x5B,0x0
000d66 005b
000d67 005b
000d68 005b
000d69 005b      	.DB  0x5B,0x0,0x5B,0x0,0x5B,0x0,0x5B,0x0
000d6a 005b
000d6b 005b
000d6c 005b
000d6d 005b      	.DB  0x5B,0x0,0x5B,0x0,0x5B,0x0,0x5B,0x0
000d6e 005b
000d6f 005b
000d70 005b
000d71 005b      	.DB  0x5B,0x0,0x5B,0x0,0x5B,0x0,0x5B,0x0
000d72 005b
000d73 005b
000d74 005b
000d75 003f      	.DB  0x5B,0x0,0x5B,0x0,0x5B,0x0,0x3F,0x0
000d76 003f
000d77 003f
000d78 003f
000d79 003f      	.DB  0x3F,0x0,0x3F,0x0,0x3F,0x0,0x3F,0x0
000d7a 003f
000d7b 003f
000d7c 003f
000d7d 003f      	.DB  0x3F,0x0,0x3F,0x0,0x3F,0x0,0x3F,0x0
000d7e 003f
000d7f 003f
000d80 0040
000d81 0041      	.DB  0x3F,0x0,0x3F,0x0,0x40,0x0,0x41,0x0
000d82 0043
000d83 0046
000d84 0046
000d85 0047      	.DB  0x43,0x0,0x46,0x0,0x46,0x0,0x47,0x0
000d86 0049
000d87 004c
000d88 004c
000d89 004e      	.DB  0x49,0x0,0x4C,0x0,0x4C,0x0,0x4E,0x0
000d8a 0050
000d8b 005b
000d8c 005b
000d8d 005b      	.DB  0x50,0x0,0x5B,0x0,0x5B,0x0,0x5B,0x0
000d8e 005b
000d8f 005b
000d90 005b
000d91 005b      	.DB  0x5B,0x0,0x5B,0x0,0x5B,0x0,0x5B,0x0
000d92 005b
000d93 005b
000d94 005b
000d95 005b      	.DB  0x5B,0x0,0x5B,0x0,0x5B,0x0,0x5B,0x0
000d96 005b
000d97 005b
000d98 005b
000d99 005b      	.DB  0x5B,0x0,0x5B,0x0,0x5B,0x0,0x5B,0x0
000d9a 005b
000d9b 005b
000d9c 005b
000d9d 005b      	.DB  0x5B,0x0,0x5B,0x0,0x5B,0x0,0x5B,0x0
000d9e 003f
000d9f 003f
000da0 003f
000da1 003f      	.DB  0x3F,0x0,0x3F,0x0,0x3F,0x0,0x3F,0x0
000da2 003f
000da3 003f
000da4 003f
000da5 003f      	.DB  0x3F,0x0,0x3F,0x0,0x3F,0x0,0x3F,0x0
000da6 003f
000da7 003f
000da8 003f
000da9 0040      	.DB  0x3F,0x0,0x3F,0x0,0x3F,0x0,0x40,0x0
000daa 0041
000dab 0043
000dac 0046
000dad 0046      	.DB  0x41,0x0,0x43,0x0,0x46,0x0,0x46,0x0
000dae 0047
000daf 0049
000db0 004c
000db1 004c      	.DB  0x47,0x0,0x49,0x0,0x4C,0x0,0x4C,0x0
000db2 004e
000db3 0050
000db4 005b
000db5 005b      	.DB  0x4E,0x0,0x50,0x0,0x5B,0x0,0x5B,0x0
000db6 005b
000db7 005b
000db8 005b
000db9 005b      	.DB  0x5B,0x0,0x5B,0x0,0x5B,0x0,0x5B,0x0
000dba 005b
000dbb 005b
000dbc 005b
000dbd 005b      	.DB  0x5B,0x0,0x5B,0x0,0x5B,0x0,0x5B,0x0
000dbe 005b
000dbf 005b
000dc0 005b
000dc1 005b      	.DB  0x5B,0x0,0x5B,0x0,0x5B,0x0,0x5B,0x0
000dc2 005b
000dc3 005b
000dc4 005b
000dc5 005b      	.DB  0x5B,0x0,0x5B,0x0,0x5B,0x0,0x5B,0x0
000dc6 005b
000dc7 003f
000dc8 003f
000dc9 003f      	.DB  0x5B,0x0,0x3F,0x0,0x3F,0x0,0x3F,0x0
000dca 003f
000dcb 003f
000dcc 003f
000dcd 003f      	.DB  0x3F,0x0,0x3F,0x0,0x3F,0x0,0x3F,0x0
000dce 003f
000dcf 003f
000dd0 003f
000dd1 003f      	.DB  0x3F,0x0,0x3F,0x0,0x3F,0x0,0x3F,0x0
000dd2 0040
000dd3 0041
000dd4 0043
000dd5 0046      	.DB  0x40,0x0,0x41,0x0,0x43,0x0,0x46,0x0
000dd6 0046
000dd7 0047
000dd8 0049
000dd9 004c      	.DB  0x46,0x0,0x47,0x0,0x49,0x0,0x4C,0x0
000dda 004c
000ddb 004e
000ddc 0050
000ddd 005b      	.DB  0x4C,0x0,0x4E,0x0,0x50,0x0,0x5B,0x0
000dde 005b
000ddf 005b
000de0 005b
000de1 005b      	.DB  0x5B,0x0,0x5B,0x0,0x5B,0x0,0x5B,0x0
000de2 005b
000de3 005b
000de4 005b
000de5 005b      	.DB  0x5B,0x0,0x5B,0x0,0x5B,0x0,0x5B,0x0
000de6 005b
000de7 005b
000de8 005b
000de9 005b      	.DB  0x5B,0x0,0x5B,0x0,0x5B,0x0,0x5B,0x0
000dea 005b
000deb 005b
000dec 005b
000ded 005b      	.DB  0x5B,0x0,0x5B,0x0,0x5B,0x0,0x5B,0x0
000dee 005b
000def 005b
000df0 003f
000df1 003f      	.DB  0x5B,0x0,0x5B,0x0,0x3F,0x0,0x3F,0x0
000df2 003f
000df3 003f
000df4 003f
000df5 003f      	.DB  0x3F,0x0,0x3F,0x0,0x3F,0x0,0x3F,0x0
000df6 003f
000df7 003f
000df8 003f
000df9 003f      	.DB  0x3F,0x0,0x3F,0x0,0x3F,0x0,0x3F,0x0
000dfa 003f
000dfb 0040
000dfc 0041
000dfd 0043      	.DB  0x3F,0x0,0x40,0x0,0x41,0x0,0x43,0x0
000dfe 0046
000dff 0046
000e00 0047
000e01 0049      	.DB  0x46,0x0,0x46,0x0,0x47,0x0,0x49,0x0
000e02 004c
000e03 004c
000e04 004e
000e05 0050      	.DB  0x4C,0x0,0x4C,0x0,0x4E,0x0,0x50,0x0
000e06 005b
000e07 005b
000e08 005b
000e09 005b      	.DB  0x5B,0x0,0x5B,0x0,0x5B,0x0,0x5B,0x0
000e0a 005b
000e0b 005b
000e0c 005b
000e0d 005b      	.DB  0x5B,0x0,0x5B,0x0,0x5B,0x0,0x5B,0x0
000e0e 005b
000e0f 005b
000e10 005b
000e11 005b      	.DB  0x5B,0x0,0x5B,0x0,0x5B,0x0,0x5B,0x0
000e12 005b
000e13 005b
000e14 005b
000e15 005b      	.DB  0x5B,0x0,0x5B,0x0,0x5B,0x0,0x5B,0x0
000e16 005b
000e17 005b
000e18 005b
000e19 003f      	.DB  0x5B,0x0,0x5B,0x0,0x5B,0x0,0x3F,0x0
000e1a 003f
000e1b 003f
000e1c 003f
000e1d 003f      	.DB  0x3F,0x0,0x3F,0x0,0x3F,0x0,0x3F,0x0
000e1e 003f
000e1f 003f
000e20 003f
000e21 003f      	.DB  0x3F,0x0,0x3F,0x0,0x3F,0x0,0x3F,0x0
000e22 003f
000e23 003f
000e24 0040
000e25 0041      	.DB  0x3F,0x0,0x3F,0x0,0x40,0x0,0x41,0x0
000e26 0043
000e27 0046
000e28 0046
000e29 0047      	.DB  0x43,0x0,0x46,0x0,0x46,0x0,0x47,0x0
000e2a 0049
000e2b 004c
000e2c 004c
000e2d 004e      	.DB  0x49,0x0,0x4C,0x0,0x4C,0x0,0x4E,0x0
000e2e 0050
000e2f 005b
000e30 005b
000e31 005b      	.DB  0x50,0x0,0x5B,0x0,0x5B,0x0,0x5B,0x0
000e32 005b
000e33 005b
000e34 005b
000e35 005b      	.DB  0x5B,0x0,0x5B,0x0,0x5B,0x0,0x5B,0x0
000e36 005b
000e37 005b
000e38 005b
000e39 005b      	.DB  0x5B,0x0,0x5B,0x0,0x5B,0x0,0x5B,0x0
000e3a 005b
000e3b 005b
000e3c 005b
000e3d 005b      	.DB  0x5B,0x0,0x5B,0x0,0x5B,0x0,0x5B,0x0
000e3e 005b
000e3f 005b
000e40 005b
000e41 005b      	.DB  0x5B,0x0,0x5B,0x0,0x5B,0x0,0x5B,0x0
000e42 003f
000e43 003f
000e44 003f
000e45 003f      	.DB  0x3F,0x0,0x3F,0x0,0x3F,0x0,0x3F,0x0
000e46 003f
000e47 003f
000e48 003f
000e49 003f      	.DB  0x3F,0x0,0x3F,0x0,0x3F,0x0,0x3F,0x0
000e4a 003f
000e4b 003f
000e4c 003f
000e4d 0040      	.DB  0x3F,0x0,0x3F,0x0,0x3F,0x0,0x40,0x0
000e4e 0041
000e4f 0043
000e50 0046
000e51 0046      	.DB  0x41,0x0,0x43,0x0,0x46,0x0,0x46,0x0
000e52 0047
000e53 0049
000e54 004c
000e55 004c      	.DB  0x47,0x0,0x49,0x0,0x4C,0x0,0x4C,0x0
000e56 004e
000e57 0050
000e58 005b
000e59 005b      	.DB  0x4E,0x0,0x50,0x0,0x5B,0x0,0x5B,0x0
000e5a 005b
000e5b 005b
000e5c 005b
000e5d 005b      	.DB  0x5B,0x0,0x5B,0x0,0x5B,0x0,0x5B,0x0
000e5e 005b
000e5f 005b
000e60 005b
000e61 005b      	.DB  0x5B,0x0,0x5B,0x0,0x5B,0x0,0x5B,0x0
000e62 005b
000e63 005b
000e64 005b
000e65 005b      	.DB  0x5B,0x0,0x5B,0x0,0x5B,0x0,0x5B,0x0
000e66 005b
000e67 005b
000e68 005b
000e69 005b      	.DB  0x5B,0x0,0x5B,0x0,0x5B,0x0,0x5B,0x0
000e6a 005b
000e6b 003f
000e6c 003f
000e6d 003f      	.DB  0x5B,0x0,0x3F,0x0,0x3F,0x0,0x3F,0x0
000e6e 003f
000e6f 003f
000e70 003f
000e71 003f      	.DB  0x3F,0x0,0x3F,0x0,0x3F,0x0,0x3F,0x0
000e72 003f
000e73 003f
000e74 003f
000e75 003f      	.DB  0x3F,0x0,0x3F,0x0,0x3F,0x0,0x3F,0x0
000e76 0040
000e77 0041
000e78 0043
000e79 0046      	.DB  0x40,0x0,0x41,0x0,0x43,0x0,0x46,0x0
000e7a 0046
000e7b 0047
000e7c 0049
000e7d 004c      	.DB  0x46,0x0,0x47,0x0,0x49,0x0,0x4C,0x0
000e7e 004c
000e7f 004e
000e80 0050
000e81 005b      	.DB  0x4C,0x0,0x4E,0x0,0x50,0x0,0x5B,0x0
000e82 005b
000e83 005b
000e84 005b
000e85 005b      	.DB  0x5B,0x0,0x5B,0x0,0x5B,0x0,0x5B,0x0
000e86 005b
000e87 005b
000e88 005b
000e89 005b      	.DB  0x5B,0x0,0x5B,0x0,0x5B,0x0,0x5B,0x0
000e8a 005b
000e8b 005b
000e8c 005b
000e8d 005b      	.DB  0x5B,0x0,0x5B,0x0,0x5B,0x0,0x5B,0x0
000e8e 005b
000e8f 005b
000e90 005b
000e91 005b      	.DB  0x5B,0x0,0x5B,0x0,0x5B,0x0,0x5B,0x0
000e92 005b
000e93 005b
000e94 003f
000e95 003f      	.DB  0x5B,0x0,0x5B,0x0,0x3F,0x0,0x3F,0x0
000e96 003f
000e97 003f
000e98 003f
000e99 003f      	.DB  0x3F,0x0,0x3F,0x0,0x3F,0x0,0x3F,0x0
000e9a 003f
000e9b 003f
000e9c 003f
000e9d 003f      	.DB  0x3F,0x0,0x3F,0x0,0x3F,0x0,0x3F,0x0
000e9e 003f
000e9f 0040
000ea0 0041
000ea1 0043      	.DB  0x3F,0x0,0x40,0x0,0x41,0x0,0x43,0x0
000ea2 0046
000ea3 0046
000ea4 0047
000ea5 0049      	.DB  0x46,0x0,0x46,0x0,0x47,0x0,0x49,0x0
000ea6 004c
000ea7 004c
000ea8 004e
000ea9 0050      	.DB  0x4C,0x0,0x4C,0x0,0x4E,0x0,0x50,0x0
000eaa 005b
000eab 005b
000eac 005b
000ead 005b      	.DB  0x5B,0x0,0x5B,0x0,0x5B,0x0,0x5B,0x0
000eae 005b
000eaf 005b
000eb0 005b
000eb1 005b      	.DB  0x5B,0x0,0x5B,0x0,0x5B,0x0,0x5B,0x0
000eb2 005b
000eb3 005b
000eb4 005b
000eb5 005b      	.DB  0x5B,0x0,0x5B,0x0,0x5B,0x0,0x5B,0x0
000eb6 005b
000eb7 005b
000eb8 005b
000eb9 005b      	.DB  0x5B,0x0,0x5B,0x0,0x5B,0x0,0x5B,0x0
000eba 005b
000ebb 005b
000ebc 005b
000ebd 003f      	.DB  0x5B,0x0,0x5B,0x0,0x5B,0x0,0x3F,0x0
000ebe 003f
000ebf 003f
000ec0 003f
000ec1 003f      	.DB  0x3F,0x0,0x3F,0x0,0x3F,0x0,0x3F,0x0
000ec2 003f
000ec3 003f
000ec4 003f
000ec5 003f      	.DB  0x3F,0x0,0x3F,0x0,0x3F,0x0,0x3F,0x0
000ec6 003f
000ec7 003f
000ec8 0040
000ec9 0041      	.DB  0x3F,0x0,0x3F,0x0,0x40,0x0,0x41,0x0
000eca 0043
000ecb 0046
000ecc 0046
000ecd 0047      	.DB  0x43,0x0,0x46,0x0,0x46,0x0,0x47,0x0
000ece 0049
000ecf 004c
000ed0 004c
000ed1 004e      	.DB  0x49,0x0,0x4C,0x0,0x4C,0x0,0x4E,0x0
000ed2 0050
000ed3 005b
000ed4 005b
000ed5 005b      	.DB  0x50,0x0,0x5B,0x0,0x5B,0x0,0x5B,0x0
000ed6 005b
000ed7 005b
000ed8 005b
000ed9 005b      	.DB  0x5B,0x0,0x5B,0x0,0x5B,0x0,0x5B,0x0
000eda 005b
000edb 005b
000edc 005b
000edd 005b      	.DB  0x5B,0x0,0x5B,0x0,0x5B,0x0,0x5B,0x0
000ede 005b
000edf 005b
000ee0 005b
000ee1 005b      	.DB  0x5B,0x0,0x5B,0x0,0x5B,0x0,0x5B,0x0
000ee2 005b
000ee3 005b
000ee4 005b
000ee5 005b      	.DB  0x5B,0x0,0x5B,0x0,0x5B,0x0,0x5B,0x0
000ee6 003f
000ee7 003f
000ee8 003f
000ee9 003f      	.DB  0x3F,0x0,0x3F,0x0,0x3F,0x0,0x3F,0x0
000eea 003f
000eeb 003f
000eec 003f
000eed 003f      	.DB  0x3F,0x0,0x3F,0x0,0x3F,0x0,0x3F,0x0
000eee 003f
000eef 003f
000ef0 003f
000ef1 0040      	.DB  0x3F,0x0,0x3F,0x0,0x3F,0x0,0x40,0x0
000ef2 0041
000ef3 0043
000ef4 0046
000ef5 0046      	.DB  0x41,0x0,0x43,0x0,0x46,0x0,0x46,0x0
000ef6 0047
000ef7 0049
000ef8 004c
000ef9 004c      	.DB  0x47,0x0,0x49,0x0,0x4C,0x0,0x4C,0x0
000efa 004e
000efb 0050
000efc 005b
000efd 005b      	.DB  0x4E,0x0,0x50,0x0,0x5B,0x0,0x5B,0x0
000efe 005b
000eff 005b
000f00 005b
000f01 005b      	.DB  0x5B,0x0,0x5B,0x0,0x5B,0x0,0x5B,0x0
000f02 005b
000f03 005b
000f04 005b
000f05 005b      	.DB  0x5B,0x0,0x5B,0x0,0x5B,0x0,0x5B,0x0
000f06 005b
000f07 005b
000f08 005b
000f09 005b      	.DB  0x5B,0x0,0x5B,0x0,0x5B,0x0,0x5B,0x0
000f0a 005b
000f0b 005b
000f0c 005b
000f0d 005b      	.DB  0x5B,0x0,0x5B,0x0,0x5B,0x0,0x5B,0x0
000f0e 005b
000f0f 003f
000f10 003f
000f11 003f      	.DB  0x5B,0x0,0x3F,0x0,0x3F,0x0,0x3F,0x0
000f12 003f
000f13 003f
000f14 003f
000f15 003f      	.DB  0x3F,0x0,0x3F,0x0,0x3F,0x0,0x3F,0x0
000f16 003f
000f17 003f
000f18 003f
000f19 003f      	.DB  0x3F,0x0,0x3F,0x0,0x3F,0x0,0x3F,0x0
000f1a 0040
000f1b 0041
000f1c 0043
000f1d 0046      	.DB  0x40,0x0,0x41,0x0,0x43,0x0,0x46,0x0
000f1e 0046
000f1f 0047
000f20 0049
000f21 004c      	.DB  0x46,0x0,0x47,0x0,0x49,0x0,0x4C,0x0
000f22 004c
000f23 004e
000f24 0050
000f25 005b      	.DB  0x4C,0x0,0x4E,0x0,0x50,0x0,0x5B,0x0
000f26 005b
000f27 005b
000f28 005b
000f29 005b      	.DB  0x5B,0x0,0x5B,0x0,0x5B,0x0,0x5B,0x0
000f2a 005b
000f2b 005b
000f2c 005b
000f2d 005b      	.DB  0x5B,0x0,0x5B,0x0,0x5B,0x0,0x5B,0x0
000f2e 005b
000f2f 005b
000f30 005b
000f31 005b      	.DB  0x5B,0x0,0x5B,0x0,0x5B,0x0,0x5B,0x0
000f32 005b
000f33 005b
000f34 005b
000f35 005b      	.DB  0x5B,0x0,0x5B,0x0,0x5B,0x0,0x5B,0x0
000f36 005b
000f37 005b
000f38 003f
000f39 003f      	.DB  0x5B,0x0,0x5B,0x0,0x3F,0x0,0x3F,0x0
000f3a 003f
000f3b 003f
000f3c 003f
000f3d 003f      	.DB  0x3F,0x0,0x3F,0x0,0x3F,0x0,0x3F,0x0
000f3e 003f
000f3f 003f
000f40 003f
000f41 003f      	.DB  0x3F,0x0,0x3F,0x0,0x3F,0x0,0x3F,0x0
000f42 003f
000f43 0040
000f44 0041
000f45 0043      	.DB  0x3F,0x0,0x40,0x0,0x41,0x0,0x43,0x0
000f46 0046
000f47 0046
000f48 0047
000f49 0049      	.DB  0x46,0x0,0x46,0x0,0x47,0x0,0x49,0x0
000f4a 004c
000f4b 004c
000f4c 004e
000f4d 0050      	.DB  0x4C,0x0,0x4C,0x0,0x4E,0x0,0x50,0x0
000f4e 005b
000f4f 005b
000f50 005b
000f51 005b      	.DB  0x5B,0x0,0x5B,0x0,0x5B,0x0,0x5B,0x0
000f52 005b
000f53 005b
000f54 005b
000f55 005b      	.DB  0x5B,0x0,0x5B,0x0,0x5B,0x0,0x5B,0x0
000f56 005b
000f57 005b
000f58 005b
000f59 005b      	.DB  0x5B,0x0,0x5B,0x0,0x5B,0x0,0x5B,0x0
000f5a 005b
000f5b 005b
000f5c 005b
000f5d 005b      	.DB  0x5B,0x0,0x5B,0x0,0x5B,0x0,0x5B,0x0
000f5e 005b
000f5f 005b
000f60 005b
000f61 003f      	.DB  0x5B,0x0,0x5B,0x0,0x5B,0x0,0x3F,0x0
000f62 003f
000f63 003f
000f64 003f
000f65 003f      	.DB  0x3F,0x0,0x3F,0x0,0x3F,0x0,0x3F,0x0
000f66 003f
000f67 003f
000f68 003f
000f69 003f      	.DB  0x3F,0x0,0x3F,0x0,0x3F,0x0,0x3F,0x0
000f6a 003f
000f6b 003f
000f6c 0040
000f6d 0041      	.DB  0x3F,0x0,0x3F,0x0,0x40,0x0,0x41,0x0
000f6e 0043
000f6f 0046
000f70 0046
000f71 0047      	.DB  0x43,0x0,0x46,0x0,0x46,0x0,0x47,0x0
000f72 0049
000f73 004c
000f74 004c
000f75 004e      	.DB  0x49,0x0,0x4C,0x0,0x4C,0x0,0x4E,0x0
000f76 0050
000f77 005b
000f78 005b
000f79 005b      	.DB  0x50,0x0,0x5B,0x0,0x5B,0x0,0x5B,0x0
000f7a 005b
000f7b 005b
000f7c 005b
000f7d 005b      	.DB  0x5B,0x0,0x5B,0x0,0x5B,0x0,0x5B,0x0
000f7e 005b
000f7f 005b
000f80 005b
000f81 005b      	.DB  0x5B,0x0,0x5B,0x0,0x5B,0x0,0x5B,0x0
000f82 005b
000f83 005b
000f84 005b
000f85 005b      	.DB  0x5B,0x0,0x5B,0x0,0x5B,0x0,0x5B,0x0
000f86 005b
000f87 005b
000f88 005b
000f89 005b      	.DB  0x5B,0x0,0x5B,0x0,0x5B,0x0,0x5B,0x0
000f8a 003f
000f8b 003f
000f8c 003f
000f8d 003f      	.DB  0x3F,0x0,0x3F,0x0,0x3F,0x0,0x3F,0x0
000f8e 003f
000f8f 003f
000f90 003f
000f91 003f      	.DB  0x3F,0x0,0x3F,0x0,0x3F,0x0,0x3F,0x0
000f92 003f
000f93 003f
000f94 003f
000f95 0040      	.DB  0x3F,0x0,0x3F,0x0,0x3F,0x0,0x40,0x0
000f96 0041
000f97 0043
000f98 0046
000f99 0046      	.DB  0x41,0x0,0x43,0x0,0x46,0x0,0x46,0x0
000f9a 0047
000f9b 0049
000f9c 004c
000f9d 004c      	.DB  0x47,0x0,0x49,0x0,0x4C,0x0,0x4C,0x0
000f9e 004e
000f9f 0050
000fa0 005b
000fa1 005b      	.DB  0x4E,0x0,0x50,0x0,0x5B,0x0,0x5B,0x0
000fa2 005b
000fa3 005b
000fa4 005b
000fa5 005b      	.DB  0x5B,0x0,0x5B,0x0,0x5B,0x0,0x5B,0x0
000fa6 005b
000fa7 005b
000fa8 005b
000fa9 005b      	.DB  0x5B,0x0,0x5B,0x0,0x5B,0x0,0x5B,0x0
000faa 005b
000fab 005b
000fac 005b
000fad 005b      	.DB  0x5B,0x0,0x5B,0x0,0x5B,0x0,0x5B,0x0
000fae 005b
000faf 005b
000fb0 005b
000fb1 005b      	.DB  0x5B,0x0,0x5B,0x0,0x5B,0x0,0x5B,0x0
000fb2 005b
000fb3 003f
000fb4 003f
000fb5 003f      	.DB  0x5B,0x0,0x3F,0x0,0x3F,0x0,0x3F,0x0
000fb6 003f
000fb7 003f
000fb8 003f
000fb9 003f      	.DB  0x3F,0x0,0x3F,0x0,0x3F,0x0,0x3F,0x0
000fba 003f
000fbb 003f
000fbc 003f
000fbd 003f      	.DB  0x3F,0x0,0x3F,0x0,0x3F,0x0,0x3F,0x0
000fbe 0040
000fbf 0041
000fc0 0043
000fc1 0046      	.DB  0x40,0x0,0x41,0x0,0x43,0x0,0x46,0x0
000fc2 0046
000fc3 0047
000fc4 0049
000fc5 004c      	.DB  0x46,0x0,0x47,0x0,0x49,0x0,0x4C,0x0
000fc6 004c
000fc7 004e
000fc8 0050
000fc9 005b      	.DB  0x4C,0x0,0x4E,0x0,0x50,0x0,0x5B,0x0
000fca 005b
000fcb 005b
000fcc 005b
000fcd 005b      	.DB  0x5B,0x0,0x5B,0x0,0x5B,0x0,0x5B,0x0
000fce 005b
000fcf 005b
000fd0 005b
000fd1 005b      	.DB  0x5B,0x0,0x5B,0x0,0x5B,0x0,0x5B,0x0
000fd2 005b
000fd3 005b
000fd4 005b
000fd5 005b      	.DB  0x5B,0x0,0x5B,0x0,0x5B,0x0,0x5B,0x0
000fd6 005b
000fd7 005b
000fd8 005b
000fd9 005b      	.DB  0x5B,0x0,0x5B,0x0,0x5B,0x0,0x5B,0x0
000fda 005b
000fdb 005b
000fdc 003f
000fdd 003f      	.DB  0x5B,0x0,0x5B,0x0,0x3F,0x0,0x3F,0x0
000fde 003f
000fdf 003f
000fe0 003f
000fe1 003f      	.DB  0x3F,0x0,0x3F,0x0,0x3F,0x0,0x3F,0x0
000fe2 003f
000fe3 003f
000fe4 003f
000fe5 003f      	.DB  0x3F,0x0,0x3F,0x0,0x3F,0x0,0x3F,0x0
000fe6 003f
000fe7 0040
000fe8 0041
000fe9 0043      	.DB  0x3F,0x0,0x40,0x0,0x41,0x0,0x43,0x0
000fea 0046
000feb 0046
000fec 0047
000fed 0049      	.DB  0x46,0x0,0x46,0x0,0x47,0x0,0x49,0x0
000fee 004c
000fef 004c
000ff0 004e
000ff1 0050      	.DB  0x4C,0x0,0x4C,0x0,0x4E,0x0,0x50,0x0
000ff2 005b
000ff3 005b
000ff4 005b
000ff5 005b      	.DB  0x5B,0x0,0x5B,0x0,0x5B,0x0,0x5B,0x0
000ff6 005b
000ff7 005b
000ff8 005b
000ff9 005b      	.DB  0x5B,0x0,0x5B,0x0,0x5B,0x0,0x5B,0x0
000ffa 005b
000ffb 005b
000ffc 005b
000ffd 005b      	.DB  0x5B,0x0,0x5B,0x0,0x5B,0x0,0x5B,0x0
000ffe 005b
000fff 005b
001000 005b
001001 005b      	.DB  0x5B,0x0,0x5B,0x0,0x5B,0x0,0x5B,0x0
001002 005b
001003 005b
001004 005b
001005 003f      	.DB  0x5B,0x0,0x5B,0x0,0x5B,0x0,0x3F,0x0
001006 003f
001007 003f
001008 003f
001009 003f      	.DB  0x3F,0x0,0x3F,0x0,0x3F,0x0,0x3F,0x0
00100a 003f
00100b 003f
00100c 003f
00100d 003f      	.DB  0x3F,0x0,0x3F,0x0,0x3F,0x0,0x3F,0x0
00100e 003f
00100f 003f
001010 0040
001011 0041      	.DB  0x3F,0x0,0x3F,0x0,0x40,0x0,0x41,0x0
001012 0043
001013 0046
001014 0046
001015 0047      	.DB  0x43,0x0,0x46,0x0,0x46,0x0,0x47,0x0
001016 0049
001017 004c
001018 004c
001019 004e      	.DB  0x49,0x0,0x4C,0x0,0x4C,0x0,0x4E,0x0
00101a 0050
00101b 005b
00101c 005b
00101d 005b      	.DB  0x50,0x0,0x5B,0x0,0x5B,0x0,0x5B,0x0
00101e 005b
00101f 005b
001020 005b
001021 005b      	.DB  0x5B,0x0,0x5B,0x0,0x5B,0x0,0x5B,0x0
001022 005b
001023 005b
001024 005b
001025 005b      	.DB  0x5B,0x0,0x5B,0x0,0x5B,0x0,0x5B,0x0
001026 005b
001027 005b
001028 005b
001029 005b      	.DB  0x5B,0x0,0x5B,0x0,0x5B,0x0,0x5B,0x0
00102a 005b
00102b 005b
00102c 005b
00102d 005b      	.DB  0x5B,0x0,0x5B,0x0,0x5B,0x0,0x5B,0x0
00102e 003f
00102f 003f
001030 003f
001031 003f      	.DB  0x3F,0x0,0x3F,0x0,0x3F,0x0,0x3F,0x0
001032 003f
001033 003f
001034 003f
001035 003f      	.DB  0x3F,0x0,0x3F,0x0,0x3F,0x0,0x3F,0x0
001036 003f
001037 003f
001038 003f
001039 0040      	.DB  0x3F,0x0,0x3F,0x0,0x3F,0x0,0x40,0x0
00103a 0041
00103b 0043
00103c 0046
00103d 0046      	.DB  0x41,0x0,0x43,0x0,0x46,0x0,0x46,0x0
00103e 0047
00103f 0049
001040 004c
001041 004c      	.DB  0x47,0x0,0x49,0x0,0x4C,0x0,0x4C,0x0
001042 004e
001043 0050
001044 005b
001045 005b      	.DB  0x4E,0x0,0x50,0x0,0x5B,0x0,0x5B,0x0
001046 005b
001047 005b
001048 005b
001049 005b      	.DB  0x5B,0x0,0x5B,0x0,0x5B,0x0,0x5B,0x0
00104a 005b
00104b 005b
00104c 005b
00104d 005b      	.DB  0x5B,0x0,0x5B,0x0,0x5B,0x0,0x5B,0x0
00104e 005b
00104f 005b
001050 005b
001051 005b      	.DB  0x5B,0x0,0x5B,0x0,0x5B,0x0,0x5B,0x0
001052 005b
001053 005b
001054 005b
001055 005b      	.DB  0x5B,0x0,0x5B,0x0,0x5B,0x0,0x5B,0x0
001056 005b      	.DB  0x5B,0x0
                 
                 ;REGISTER BIT VARIABLES INITIALIZATION
                 __REG_BIT_VARS:
001057 0000      	.DW  0x0000
                 
                 ;GLOBAL REGISTER VARIABLES INITIALIZATION
                 __REG_VARS:
001058 0000
001059 0000      	.DB  0x0,0x0,0x0,0x0
                 
                 _0x0:
00105a 7325
00105b 2500
00105c 2e34
00105d 6631      	.DB  0x25,0x73,0x0,0x25,0x34,0x2E,0x31,0x66
00105e 2067
00105f 3425
001060 312e
001061 6766      	.DB  0x67,0x20,0x25,0x34,0x2E,0x31,0x66,0x67
001062 2520
001063 2e34
001064 6631
001065 2067      	.DB  0x20,0x25,0x34,0x2E,0x31,0x66,0x67,0x20
001066 3425
001067 312e
001068 6766
001069 2520      	.DB  0x25,0x34,0x2E,0x31,0x66,0x67,0x20,0x25
00106a 0069
00106b 6f44
00106c 7463
00106d 726f      	.DB  0x69,0x0,0x44,0x6F,0x63,0x74,0x6F,0x72
00106e 6e20
00106f 6461
001070 7265
001071 0069      	.DB  0x20,0x6E,0x61,0x64,0x65,0x72,0x69,0x0
                 _0x2000003:
001072 c080      	.DB  0x80,0xC0
                 _0x2020000:
001073 4e2d
001074 4e41
D:\Flash Sony Backup\Dynamic scaling 2\17(fuzzy) 0.5s data send\List\Project.asm(2181): warning: .cseg .db misalignment - padding zero byte
001075 0000      	.DB  0x2D,0x4E,0x41,0x4E,0x0
                 _0x2040060:
D:\Flash Sony Backup\Dynamic scaling 2\17(fuzzy) 0.5s data send\List\Project.asm(2183): warning: .cseg .db misalignment - padding zero byte
001076 0001      	.DB  0x1
                 _0x2040000:
001077 4e2d
001078 4e41
001079 4900
00107a 464e      	.DB  0x2D,0x4E,0x41,0x4E,0x0,0x49,0x4E,0x46
D:\Flash Sony Backup\Dynamic scaling 2\17(fuzzy) 0.5s data send\List\Project.asm(2186): warning: .cseg .db misalignment - padding zero byte
00107b 0000      	.DB  0x0
                 
                 __GLOBAL_INI_TBL:
00107c 0001      	.DW  0x01
00107d 0002      	.DW  0x02
00107e 20ae      	.DW  __REG_BIT_VARS*2
                 
00107f 0004      	.DW  0x04
001080 0006      	.DW  0x06
001081 20b0      	.DW  __REG_VARS*2
                 
001082 0002      	.DW  0x02
001083 033c      	.DW  __base_y_G100
001084 20e4      	.DW  _0x2000003*2
                 
001085 0001      	.DW  0x01
001086 0340      	.DW  __seed_G102
001087 20ec      	.DW  _0x2040060*2
                 
                 _0xFFFFFFFF:
001088 0000      	.DW  0
                 
                 #define __GLOBAL_INI_TBL_PRESENT 1
                 
                 __RESET:
001089 94f8      	CLI
00108a 27ee      	CLR  R30
00108b bbec      	OUT  EECR,R30
                 
                 ;INTERRUPT VECTORS ARE PLACED
                 ;AT THE START OF FLASH
00108c e0f1      	LDI  R31,1
00108d bff5      	OUT  MCUCR,R31
00108e bfe5      	OUT  MCUCR,R30
                 
                 ;DISABLE WATCHDOG
00108f e1f8      	LDI  R31,0x18
001090 bdf1      	OUT  WDTCR,R31
001091 bde1      	OUT  WDTCR,R30
                 
                 ;CLEAR R2-R14
001092 e08d      	LDI  R24,(14-2)+1
001093 e0a2      	LDI  R26,2
001094 27bb      	CLR  R27
                 __CLEAR_REG:
001095 93ed      	ST   X+,R30
001096 958a      	DEC  R24
001097 f7e9      	BRNE __CLEAR_REG
                 
                 ;CLEAR SRAM
001098 e080      	LDI  R24,LOW(__CLEAR_SRAM_SIZE)
001099 e098      	LDI  R25,HIGH(__CLEAR_SRAM_SIZE)
00109a e6a0      	LDI  R26,__SRAM_START
                 __CLEAR_SRAM:
00109b 93ed      	ST   X+,R30
00109c 9701      	SBIW R24,1
00109d f7e9      	BRNE __CLEAR_SRAM
                 
                 ;GLOBAL VARIABLES INITIALIZATION
00109e efe8      	LDI  R30,LOW(__GLOBAL_INI_TBL*2)
00109f e2f0      	LDI  R31,HIGH(__GLOBAL_INI_TBL*2)
                 __GLOBAL_INI_NEXT:
0010a0 9185      	LPM  R24,Z+
0010a1 9195      	LPM  R25,Z+
0010a2 9700      	SBIW R24,0
0010a3 f061      	BREQ __GLOBAL_INI_END
0010a4 91a5      	LPM  R26,Z+
0010a5 91b5      	LPM  R27,Z+
0010a6 9005      	LPM  R0,Z+
0010a7 9015      	LPM  R1,Z+
0010a8 01bf      	MOVW R22,R30
0010a9 01f0      	MOVW R30,R0
                 __GLOBAL_INI_LOOP:
0010aa 9005      	LPM  R0,Z+
0010ab 920d      	ST   X+,R0
0010ac 9701      	SBIW R24,1
0010ad f7e1      	BRNE __GLOBAL_INI_LOOP
0010ae 01fb      	MOVW R30,R22
0010af cff0      	RJMP __GLOBAL_INI_NEXT
                 __GLOBAL_INI_END:
                 
                 ;HARDWARE STACK POINTER INITIALIZATION
0010b0 e5ef      	LDI  R30,LOW(__SRAM_END-__HEAP_SIZE)
0010b1 bfed      	OUT  SPL,R30
0010b2 e0e8      	LDI  R30,HIGH(__SRAM_END-__HEAP_SIZE)
0010b3 bfee      	OUT  SPH,R30
                 
                 ;DATA STACK POINTER INITIALIZATION
0010b4 e6c0      	LDI  R28,LOW(__SRAM_START+__DSTACK_SIZE)
0010b5 e0d2      	LDI  R29,HIGH(__SRAM_START+__DSTACK_SIZE)
                 
0010b6 940c 11a8 	JMP  _main
                 
                 	.ESEG
                 	.ORG 0
                 
                 	.DSEG
                 	.ORG 0x260
                 
                 	.CSEG
                 ;/*********************************
                 ;
                 ;   5KG   LOADCELL Driver  with HX711
                 ;
                 ;**********************************/
                 ;
                 ;#include <mega32a.h>
                 	#ifndef __SLEEP_DEFINED__
                 	#define __SLEEP_DEFINED__
                 	.EQU __se_bit=0x80
                 	.EQU __sm_mask=0x70
                 	.EQU __sm_powerdown=0x20
                 	.EQU __sm_powersave=0x30
                 	.EQU __sm_standby=0x60
                 	.EQU __sm_ext_standby=0x70
                 	.EQU __sm_adc_noise_red=0x10
                 	.SET power_ctrl_reg=mcucr
                 	#endif
                 ;#include <delay.h>
                 ;#include <alcd.h>
                 ;#include <stdio.h>
                 ;#include <stdlib.h>
                 ;#include <pgmspace.h>
                 ;//#include <fuzzy_code.h>
                 ;
                 ;int flash fuzzy[101][41] ={
                 ;{11, 11, 11, 11, 11, 11, 11, 11, 11, 12, 12, 13, 12, 12, 11, 12, 12, 13, 14, 13, 11, 17, 30, 30, 30, 30, 30, 44, 51, 57, ...
                 ;{11, 11, 11, 11, 11, 11, 11, 11, 11, 12, 12, 13, 12, 12, 11, 12, 12, 13, 14, 13, 11, 17, 30, 30, 30, 30, 30, 44, 51, 57, ...
                 ;{11, 11, 11, 11, 11, 11, 11, 11, 11, 12, 12, 13, 12, 12, 11, 12, 12, 13, 14, 13, 11, 17, 30, 30, 30, 30, 30, 44, 51, 57, ...
                 ;{11, 11, 11, 11, 11, 11, 11, 11, 11, 12, 12, 13, 12, 12, 11, 12, 12, 13, 14, 13, 11, 17, 30, 30, 30, 30, 30, 44, 51, 57, ...
                 ;{11, 11, 11, 11, 11, 11, 11, 11, 11, 12, 12, 13, 12, 12, 11, 12, 12, 13, 14, 13, 11, 17, 30, 30, 30, 30, 30, 44, 51, 57, ...
                 ;{11, 11, 11, 11, 11, 11, 11, 11, 11, 12, 12, 13, 12, 12, 11, 12, 12, 13, 14, 13, 11, 17, 30, 30, 30, 30, 30, 44, 51, 57, ...
                 ;{11, 11, 11, 11, 11, 11, 11, 11, 11, 12, 12, 13, 12, 12, 11, 12, 12, 13, 14, 13, 11, 17, 30, 30, 30, 30, 30, 44, 51, 57, ...
                 ;{11, 11, 11, 11, 11, 11, 11, 11, 11, 12, 12, 13, 12, 12, 11, 12, 12, 13, 14, 13, 11, 17, 30, 30, 30, 30, 30, 44, 51, 57, ...
                 ;{11, 11, 11, 11, 11, 11, 11, 11, 11, 12, 12, 13, 12, 12, 11, 12, 12, 13, 14, 13, 11, 17, 30, 30, 30, 30, 30, 44, 51, 57, ...
                 ;{11, 11, 11, 11, 11, 11, 11, 11, 11, 12, 12, 13, 12, 12, 11, 12, 12, 13, 14, 13, 11, 17, 30, 30, 30, 30, 30, 44, 51, 57, ...
                 ;{11, 11, 11, 11, 11, 11, 11, 11, 11, 12, 12, 13, 12, 12, 11, 12, 12, 13, 14, 13, 11, 17, 30, 30, 30, 30, 30, 44, 51, 57, ...
                 ;{12, 12, 12, 12, 12, 12, 12, 12, 12, 12, 12, 13, 12, 12, 12, 12, 12, 13, 14, 13, 12, 17, 30, 30, 30, 30, 30, 44, 51, 57, ...
                 ;{12, 12, 12, 12, 12, 12, 12, 12, 12, 12, 12, 13, 12, 12, 12, 12, 12, 13, 14, 13, 12, 17, 30, 30, 30, 30, 30, 44, 51, 57, ...
                 ;{12, 12, 12, 12, 12, 12, 12, 12, 12, 12, 12, 13, 12, 12, 12, 12, 12, 13, 14, 13, 12, 17, 30, 30, 30, 30, 30, 44, 51, 57, ...
                 ;{12, 12, 12, 12, 12, 12, 12, 12, 12, 12, 12, 13, 12, 12, 12, 12, 12, 13, 14, 13, 12, 17, 30, 30, 30, 30, 30, 44, 51, 57, ...
                 ;{12, 12, 12, 12, 12, 12, 12, 12, 12, 12, 12, 13, 12, 12, 12, 12, 12, 13, 14, 13, 12, 17, 30, 30, 30, 30, 30, 45, 51, 57, ...
                 ;{13, 13, 13, 13, 13, 13, 13, 13, 13, 13, 13, 13, 13, 13, 13, 13, 13, 13, 14, 13, 13, 17, 30, 30, 30, 30, 30, 45, 52, 57, ...
                 ;{13, 13, 13, 13, 13, 13, 13, 13, 13, 13, 13, 13, 13, 13, 13, 13, 13, 13, 14, 13, 13, 17, 30, 30, 30, 30, 30, 46, 53, 57, ...
                 ;{13, 13, 13, 13, 13, 13, 13, 13, 13, 13, 13, 13, 13, 13, 13, 13, 13, 13, 14, 13, 13, 17, 30, 30, 30, 30, 30, 46, 53, 57, ...
                 ;{13, 13, 13, 13, 13, 13, 13, 13, 13, 13, 13, 13, 13, 13, 13, 13, 13, 13, 14, 13, 13, 17, 30, 30, 30, 30, 30, 45, 52, 57, ...
                 ;{12, 12, 12, 12, 12, 12, 12, 12, 12, 12, 12, 13, 12, 12, 12, 12, 12, 13, 14, 13, 12, 17, 30, 30, 30, 30, 30, 45, 51, 57, ...
                 ;{12, 12, 12, 12, 12, 12, 12, 12, 12, 12, 12, 13, 12, 12, 12, 12, 12, 13, 14, 13, 12, 17, 30, 30, 30, 30, 30, 44, 51, 57, ...
                 ;{12, 12, 12, 12, 12, 12, 12, 12, 12, 12, 12, 13, 12, 12, 12, 12, 12, 13, 14, 13, 12, 17, 30, 30, 30, 30, 30, 44, 51, 57, ...
                 ;{12, 12, 12, 12, 12, 12, 12, 12, 12, 12, 12, 13, 12, 12, 12, 12, 12, 13, 14, 13, 12, 17, 30, 30, 30, 30, 30, 44, 51, 57, ...
                 ;{12, 12, 12, 12, 12, 12, 12, 12, 12, 12, 12, 13, 12, 12, 12, 12, 12, 13, 14, 13, 12, 17, 30, 30, 30, 30, 30, 44, 51, 57, ...
                 ;{11, 11, 11, 11, 11, 11, 11, 11, 11, 12, 12, 13, 12, 12, 11, 12, 12, 13, 14, 13, 11, 17, 30, 30, 30, 30, 30, 44, 51, 57, ...
                 ;{12, 12, 12, 12, 12, 12, 12, 12, 12, 13, 14, 15, 14, 13, 13, 13, 14, 15, 16, 17, 14, 25, 40, 38, 37, 36, 36, 45, 52, 57, ...
                 ;{12, 12, 12, 12, 12, 12, 12, 12, 12, 14, 15, 16, 15, 14, 14, 14, 15, 16, 18, 20, 17, 30, 45, 42, 41, 40, 40, 46, 53, 57, ...
                 ;{12, 12, 12, 12, 12, 12, 12, 12, 12, 15, 16, 17, 16, 15, 15, 15, 16, 17, 19, 22, 19, 33, 49, 46, 44, 44, 44, 48, 53, 58, ...
                 ;{12, 12, 12, 12, 12, 12, 12, 12, 12, 15, 17, 18, 17, 16, 16, 16, 17, 18, 20, 24, 21, 33, 51, 48, 46, 46, 46, 50, 54, 58, ...
                 ;{12, 12, 12, 12, 12, 12, 12, 12, 12, 15, 18, 19, 18, 18, 18, 18, 18, 19, 21, 25, 23, 34, 53, 50, 48, 48, 48, 51, 55, 59, ...
                 ;{13, 13, 13, 13, 13, 13, 13, 13, 13, 16, 18, 20, 19, 19, 19, 19, 19, 20, 21, 26, 25, 35, 53, 51, 50, 50, 50, 53, 56, 59, ...
                 ;{13, 13, 13, 13, 13, 13, 13, 13, 13, 16, 19, 20, 20, 20, 20, 20, 20, 20, 21, 27, 27, 35, 53, 52, 52, 52, 52, 55, 57, 59, ...
                 ;{13, 13, 13, 13, 13, 13, 13, 13, 13, 16, 19, 20, 21, 21, 21, 21, 21, 21, 21, 28, 28, 36, 53, 53, 53, 53, 53, 56, 58, 60, ...
                 ;{13, 13, 13, 13, 13, 13, 13, 13, 13, 16, 18, 20, 22, 22, 22, 22, 22, 22, 21, 29, 30, 37, 53, 54, 55, 55, 55, 57, 60, 61, ...
                 ;{12, 12, 12, 12, 12, 12, 12, 12, 12, 15, 18, 20, 23, 23, 23, 23, 23, 23, 21, 31, 32, 39, 53, 55, 57, 57, 57, 59, 61, 63, ...
                 ;{12, 12, 12, 12, 12, 12, 12, 12, 12, 15, 18, 20, 23, 25, 25, 25, 24, 24, 22, 32, 34, 41, 54, 57, 58, 58, 58, 61, 63, 65, ...
                 ;{12, 12, 12, 12, 12, 12, 12, 12, 12, 15, 18, 20, 23, 26, 26, 26, 26, 25, 24, 34, 36, 43, 56, 59, 60, 60, 60, 62, 64, 67, ...
                 ;{12, 12, 12, 12, 12, 12, 12, 12, 12, 15, 18, 20, 23, 26, 27, 27, 27, 26, 25, 37, 39, 46, 59, 61, 62, 62, 62, 64, 67, 69, ...
                 ;{12, 12, 12, 12, 12, 12, 12, 12, 12, 15, 18, 20, 23, 26, 29, 28, 28, 28, 27, 39, 41, 49, 63, 64, 64, 65, 65, 67, 69, 72, ...
                 ;{11, 11, 11, 11, 11, 11, 11, 11, 11, 15, 18, 20, 23, 26, 30, 30, 30, 30, 30, 41, 45, 54, 68, 68, 68, 68, 68, 70, 73, 76, ...
                 ;{12, 12, 12, 12, 12, 12, 12, 12, 12, 16, 19, 22, 25, 28, 31, 31, 32, 32, 32, 45, 48, 55, 69, 69, 69, 69, 69, 70, 73, 76, ...
                 ;{12, 12, 12, 12, 12, 12, 12, 12, 12, 18, 20, 23, 26, 29, 33, 33, 33, 33, 34, 48, 51, 57, 71, 70, 70, 70, 70, 70, 73, 76, ...
                 ;{12, 12, 12, 12, 12, 12, 12, 12, 12, 18, 22, 24, 27, 30, 34, 34, 34, 34, 36, 51, 53, 59, 72, 71, 71, 71, 71, 71, 73, 76, ...
                 ;{12, 12, 12, 12, 12, 12, 12, 12, 12, 19, 23, 25, 28, 31, 35, 35, 35, 35, 37, 52, 55, 60, 73, 72, 72, 72, 72, 72, 73, 76, ...
                 ;{12, 12, 12, 12, 12, 12, 12, 12, 12, 20, 24, 26, 29, 32, 35, 35, 35, 36, 38, 54, 56, 61, 75, 73, 73, 73, 73, 73, 73, 76, ...
                 ;{13, 13, 13, 13, 13, 13, 13, 13, 13, 20, 24, 27, 30, 33, 36, 36, 36, 37, 38, 55, 58, 61, 75, 74, 74, 74, 74, 74, 74, 76, ...
                 ;{13, 13, 13, 13, 13, 13, 13, 13, 13, 21, 25, 28, 30, 33, 37, 37, 37, 37, 38, 56, 59, 62, 75, 75, 75, 75, 75, 75, 75, 76, ...
                 ;{13, 13, 13, 13, 13, 13, 13, 13, 13, 21, 25, 28, 31, 34, 38, 38, 38, 38, 38, 56, 60, 62, 75, 76, 76, 76, 76, 76, 76, 76, ...
                 ;{13, 13, 13, 13, 13, 13, 13, 13, 13, 20, 24, 28, 31, 35, 39, 39, 39, 38, 38, 57, 61, 63, 75, 76, 78, 78, 78, 78, 78, 76, ...
                 ;{12, 12, 12, 12, 12, 12, 12, 12, 12, 20, 24, 28, 32, 35, 40, 40, 40, 39, 38, 57, 62, 64, 75, 77, 79, 79, 79, 79, 79, 77, ...
                 ;{12, 12, 12, 12, 12, 12, 12, 12, 12, 19, 23, 28, 32, 36, 40, 40, 40, 40, 38, 58, 63, 65, 76, 78, 80, 81, 81, 81, 80, 78, ...
                 ;{12, 12, 12, 12, 12, 12, 12, 12, 12, 18, 23, 28, 32, 37, 41, 41, 41, 41, 39, 59, 64, 66, 77, 80, 82, 83, 83, 83, 82, 80, ...
                 ;{12, 12, 12, 12, 12, 12, 12, 12, 12, 18, 23, 28, 32, 37, 42, 42, 42, 42, 41, 60, 65, 67, 80, 82, 84, 85, 85, 85, 84, 82, ...
                 ;{12, 12, 12, 12, 12, 12, 12, 12, 12, 18, 23, 28, 32, 37, 44, 44, 43, 43, 43, 62, 67, 69, 83, 85, 86, 87, 88, 87, 86, 85, ...
                 ;{11, 11, 11, 11, 11, 11, 11, 11, 11, 18, 23, 28, 32, 37, 45, 45, 45, 45, 45, 64, 68, 71, 89, 90, 90, 91, 91, 91, 90, 90, ...
                 ;{18, 18, 18, 18, 18, 18, 18, 18, 18, 22, 27, 31, 36, 41, 49, 49, 50, 51, 52, 65, 69, 71, 89, 90, 90, 91, 91, 91, 90, 90, ...
                 ;{23, 23, 23, 23, 23, 23, 23, 23, 23, 26, 31, 35, 39, 44, 53, 53, 54, 55, 57, 66, 70, 71, 89, 90, 90, 91, 91, 91, 90, 90, ...
                 ;{28, 28, 28, 28, 28, 28, 28, 28, 28, 30, 33, 37, 42, 47, 56, 56, 57, 58, 61, 67, 71, 71, 89, 90, 90, 90, 90, 90, 90, 90, ...
                 ;{32, 32, 32, 32, 32, 32, 32, 32, 32, 34, 36, 40, 44, 50, 59, 59, 59, 61, 64, 69, 72, 72, 89, 90, 90, 90, 90, 90, 90, 90, ...
                 ;{36, 36, 36, 36, 36, 36, 36, 36, 36, 37, 38, 42, 46, 52, 61, 61, 61, 63, 66, 70, 73, 73, 89, 90, 90, 90, 90, 90, 90, 90, ...
                 ;{39, 39, 39, 39, 39, 39, 39, 39, 39, 40, 41, 43, 47, 54, 63, 63, 63, 65, 68, 71, 74, 74, 89, 90, 90, 90, 90, 90, 90, 90, ...
                 ;{43, 43, 43, 43, 43, 43, 43, 43, 43, 43, 44, 44, 49, 56, 66, 66, 66, 66, 70, 72, 75, 75, 89, 90, 90, 90, 90, 90, 90, 90, ...
                 ;{46, 46, 46, 46, 46, 46, 46, 46, 46, 46, 46, 46, 51, 57, 67, 67, 67, 68, 71, 72, 76, 76, 90, 90, 90, 90, 90, 90, 90, 90, ...
                 ;{48, 48, 48, 48, 48, 48, 48, 48, 48, 49, 49, 49, 52, 58, 67, 67, 67, 69, 72, 73, 76, 77, 90, 90, 90, 90, 90, 90, 90, 90, ...
                 ;{51, 51, 51, 51, 51, 51, 51, 51, 51, 51, 51, 52, 53, 59, 68, 68, 68, 70, 73, 74, 76, 77, 90, 90, 90, 90, 90, 90, 90, 90, ...
                 ;{54, 54, 54, 54, 54, 54, 54, 54, 54, 53, 53, 54, 55, 60, 68, 68, 69, 71, 74, 75, 77, 78, 90, 90, 90, 90, 90, 90, 90, 90, ...
                 ;{56, 56, 56, 56, 56, 56, 56, 56, 56, 56, 56, 57, 58, 61, 69, 69, 70, 71, 75, 75, 77, 78, 90, 90, 90, 90, 90, 90, 90, 90, ...
                 ;{58, 58, 58, 58, 58, 58, 58, 58, 58, 58, 58, 59, 60, 62, 69, 69, 70, 72, 75, 76, 77, 79, 91, 91, 91, 91, 91, 91, 91, 91, ...
                 ;{61, 61, 61, 61, 61, 61, 61, 61, 61, 60, 61, 61, 63, 65, 70, 70, 71, 73, 76, 76, 77, 79, 91, 91, 91, 91, 91, 91, 91, 91, ...
                 ;{63, 63, 63, 63, 63, 63, 63, 63, 63, 63, 63, 64, 65, 67, 70, 70, 71, 73, 76, 76, 78, 80, 91, 91, 91, 91, 91, 91, 91, 91, ...
                 ;{63, 63, 63, 63, 63, 63, 63, 63, 63, 63, 63, 64, 65, 67, 70, 70, 71, 73, 76, 76, 78, 80, 91, 91, 91, 91, 91, 91, 91, 91, ...
                 ;{63, 63, 63, 63, 63, 63, 63, 63, 63, 63, 63, 64, 65, 67, 70, 70, 71, 73, 76, 76, 78, 80, 91, 91, 91, 91, 91, 91, 91, 91, ...
                 ;{63, 63, 63, 63, 63, 63, 63, 63, 63, 63, 63, 64, 65, 67, 70, 70, 71, 73, 76, 76, 78, 80, 91, 91, 91, 91, 91, 91, 91, 91, ...
                 ;{63, 63, 63, 63, 63, 63, 63, 63, 63, 63, 63, 64, 65, 67, 70, 70, 71, 73, 76, 76, 78, 80, 91, 91, 91, 91, 91, 91, 91, 91, ...
                 ;{63, 63, 63, 63, 63, 63, 63, 63, 63, 63, 63, 64, 65, 67, 70, 70, 71, 73, 76, 76, 78, 80, 91, 91, 91, 91, 91, 91, 91, 91, ...
                 ;{63, 63, 63, 63, 63, 63, 63, 63, 63, 63, 63, 64, 65, 67, 70, 70, 71, 73, 76, 76, 78, 80, 91, 91, 91, 91, 91, 91, 91, 91, ...
                 ;{63, 63, 63, 63, 63, 63, 63, 63, 63, 63, 63, 64, 65, 67, 70, 70, 71, 73, 76, 76, 78, 80, 91, 91, 91, 91, 91, 91, 91, 91, ...
                 ;{63, 63, 63, 63, 63, 63, 63, 63, 63, 63, 63, 64, 65, 67, 70, 70, 71, 73, 76, 76, 78, 80, 91, 91, 91, 91, 91, 91, 91, 91, ...
                 ;{63, 63, 63, 63, 63, 63, 63, 63, 63, 63, 63, 64, 65, 67, 70, 70, 71, 73, 76, 76, 78, 80, 91, 91, 91, 91, 91, 91, 91, 91, ...
                 ;{63, 63, 63, 63, 63, 63, 63, 63, 63, 63, 63, 64, 65, 67, 70, 70, 71, 73, 76, 76, 78, 80, 91, 91, 91, 91, 91, 91, 91, 91, ...
                 ;{63, 63, 63, 63, 63, 63, 63, 63, 63, 63, 63, 64, 65, 67, 70, 70, 71, 73, 76, 76, 78, 80, 91, 91, 91, 91, 91, 91, 91, 91, ...
                 ;{63, 63, 63, 63, 63, 63, 63, 63, 63, 63, 63, 64, 65, 67, 70, 70, 71, 73, 76, 76, 78, 80, 91, 91, 91, 91, 91, 91, 91, 91, ...
                 ;{63, 63, 63, 63, 63, 63, 63, 63, 63, 63, 63, 64, 65, 67, 70, 70, 71, 73, 76, 76, 78, 80, 91, 91, 91, 91, 91, 91, 91, 91, ...
                 ;{63, 63, 63, 63, 63, 63, 63, 63, 63, 63, 63, 64, 65, 67, 70, 70, 71, 73, 76, 76, 78, 80, 91, 91, 91, 91, 91, 91, 91, 91, ...
                 ;{63, 63, 63, 63, 63, 63, 63, 63, 63, 63, 63, 64, 65, 67, 70, 70, 71, 73, 76, 76, 78, 80, 91, 91, 91, 91, 91, 91, 91, 91, ...
                 ;{63, 63, 63, 63, 63, 63, 63, 63, 63, 63, 63, 64, 65, 67, 70, 70, 71, 73, 76, 76, 78, 80, 91, 91, 91, 91, 91, 91, 91, 91, ...
                 ;{63, 63, 63, 63, 63, 63, 63, 63, 63, 63, 63, 64, 65, 67, 70, 70, 71, 73, 76, 76, 78, 80, 91, 91, 91, 91, 91, 91, 91, 91, ...
                 ;{63, 63, 63, 63, 63, 63, 63, 63, 63, 63, 63, 64, 65, 67, 70, 70, 71, 73, 76, 76, 78, 80, 91, 91, 91, 91, 91, 91, 91, 91, ...
                 ;{63, 63, 63, 63, 63, 63, 63, 63, 63, 63, 63, 64, 65, 67, 70, 70, 71, 73, 76, 76, 78, 80, 91, 91, 91, 91, 91, 91, 91, 91, ...
                 ;{63, 63, 63, 63, 63, 63, 63, 63, 63, 63, 63, 64, 65, 67, 70, 70, 71, 73, 76, 76, 78, 80, 91, 91, 91, 91, 91, 91, 91, 91, ...
                 ;{63, 63, 63, 63, 63, 63, 63, 63, 63, 63, 63, 64, 65, 67, 70, 70, 71, 73, 76, 76, 78, 80, 91, 91, 91, 91, 91, 91, 91, 91, ...
                 ;{63, 63, 63, 63, 63, 63, 63, 63, 63, 63, 63, 64, 65, 67, 70, 70, 71, 73, 76, 76, 78, 80, 91, 91, 91, 91, 91, 91, 91, 91, ...
                 ;{63, 63, 63, 63, 63, 63, 63, 63, 63, 63, 63, 64, 65, 67, 70, 70, 71, 73, 76, 76, 78, 80, 91, 91, 91, 91, 91, 91, 91, 91, ...
                 ;{63, 63, 63, 63, 63, 63, 63, 63, 63, 63, 63, 64, 65, 67, 70, 70, 71, 73, 76, 76, 78, 80, 91, 91, 91, 91, 91, 91, 91, 91, ...
                 ;{63, 63, 63, 63, 63, 63, 63, 63, 63, 63, 63, 64, 65, 67, 70, 70, 71, 73, 76, 76, 78, 80, 91, 91, 91, 91, 91, 91, 91, 91, ...
                 ;{63, 63, 63, 63, 63, 63, 63, 63, 63, 63, 63, 64, 65, 67, 70, 70, 71, 73, 76, 76, 78, 80, 91, 91, 91, 91, 91, 91, 91, 91, ...
                 ;{63, 63, 63, 63, 63, 63, 63, 63, 63, 63, 63, 64, 65, 67, 70, 70, 71, 73, 76, 76, 78, 80, 91, 91, 91, 91, 91, 91, 91, 91, ...
                 ;{63, 63, 63, 63, 63, 63, 63, 63, 63, 63, 63, 64, 65, 67, 70, 70, 71, 73, 76, 76, 78, 80, 91, 91, 91, 91, 91, 91, 91, 91, ...
                 ;{63, 63, 63, 63, 63, 63, 63, 63, 63, 63, 63, 64, 65, 67, 70, 70, 71, 73, 76, 76, 78, 80, 91, 91, 91, 91, 91, 91, 91, 91, ...
                 ;{63, 63, 63, 63, 63, 63, 63, 63, 63, 63, 63, 64, 65, 67, 70, 70, 71, 73, 76, 76, 78, 80, 91, 91, 91, 91, 91, 91, 91, 91, ...
                 ;};
                 ;
                 ;// Declare your global variables here
                 ;#define HX711_DOUT    PIND.3
                 ;#define HX711_SCK     PORTD.2
                 ;#define HX_COMPLEMENT 0x800000
                 ;#define HX_REF        0.360598//360.91549
                 ;
                 ;#define HX711_DOUT1    PIND.5
                 ;#define HX711_SCK1     PORTD.4
                 ;#define HX_REF1        0.360598//9.33
                 ;
                 ;#define HX711_DOUT2    PINB.1
                 ;#define HX711_SCK2     PORTB.0
                 ;#define HX_REF2        0.360598//9.33
                 ;
                 ;
                 ;void sort_array(float a[], int size);
                 ;unsigned long HX711_Read(void);
                 ;void get_scale(void);
                 ;void get_offset(void);
                 ;unsigned long HX711_Read1(void);
                 ;//void get_scale1(void);
                 ;void get_offset1(void);
                 ;unsigned long HX711_Read2(void);
                 ;//void get_scale2(void);
                 ;void get_offset2(void);
                 ;
                 ;long Weight_Shiwu = 0,Weight_Maopi =0,Weight_Shiwu1 = 0,Weight_Maopi1 =0,Weight_Shiwu2 = 0,Weight_Maopi2 =0;
                 ;long HX711_Buffer = 0,HX711_Buffer1 = 0,HX711_Buffer2 = 0;
                 ;float         scale_total = 0,scale_total_prev = 0 ,scale = 0,scale1 = 0,scale2 = 0,scale_sum = 0,scale1_sum = 0,scale2_ ...
                 ;
                 ;unsigned int measure_counter;//,pw=75,i,i2,i3,sw=0,i2;
                 ;unsigned char  buffer1[12];
                 ;unsigned char  buffer2[12];
                 ;unsigned char  buffer3[12];
                 ;unsigned char  buffer4[4];
                 ;char  buffer[32];
                 ;char  str1[8];
                 ;char  str2[8];
                 ;char  str3[8];
                 ;char  str4[8];
                 ;
                 ;
                 ;void send( unsigned char Data1[4]);//, unsigned char Data2[12], unsigned char Data3[12]);
                 ;unsigned char buffer1[12];
                 ;#define DATA_REGISTER_EMPTY (1<<UDRE)
                 ;#define RX_COMPLETE (1<<RXC)
                 ;#define FRAMING_ERROR (1<<FE)
                 ;#define PARITY_ERROR (1<<UPE)
                 ;#define DATA_OVERRUN (1<<DOR)
                 ;
                 ;// USART Receiver buffer
                 ;#define RX_BUFFER_SIZE 24
                 ;char rx_buffer[RX_BUFFER_SIZE];
                 ;
                 ;#if RX_BUFFER_SIZE <= 256
                 ;unsigned char rx_wr_index=0,rx_rd_index=0;
                 ;#else
                 ;unsigned int rx_wr_index=0,rx_rd_index=0;
                 ;#endif
                 ;
                 ;#if RX_BUFFER_SIZE < 256
                 ;unsigned char rx_counter=0;
                 ;#else
                 ;unsigned int rx_counter=0;
                 ;#endif
                 ;
                 ;// This flag is set on USART Receiver buffer overflow
                 ;bit rx_buffer_overflow;
                 ;
                 ;// USART Receiver interrupt service routine
                 ;interrupt [USART_RXC] void usart_rx_isr(void)
                 ; 0000 00BE {
                 
                 	.CSEG
                 _usart_rx_isr:
                 ; .FSTART _usart_rx_isr
0010b8 93ea      	ST   -Y,R30
0010b9 93fa      	ST   -Y,R31
0010ba b7ef      	IN   R30,SREG
0010bb 93ea      	ST   -Y,R30
                 ; 0000 00BF char status,data;
                 ; 0000 00C0 status=UCSRA;
0010bc 931a      	ST   -Y,R17
0010bd 930a      	ST   -Y,R16
                 ;	status -> R17
                 ;	data -> R16
0010be b11b      	IN   R17,11
                 ; 0000 00C1 data=UDR;
0010bf b10c      	IN   R16,12
                 ; 0000 00C2 if ((status & (FRAMING_ERROR | PARITY_ERROR | DATA_OVERRUN))==0)
0010c0 2fe1      	MOV  R30,R17
0010c1 71ec      	ANDI R30,LOW(0x1C)
0010c2 f489      	BRNE _0x3
                 ; 0000 00C3    {
                 ; 0000 00C4    rx_buffer[rx_wr_index++]=data;
0010c3 2de7      	MOV  R30,R7
0010c4 9473      	INC  R7
0010c5 e0f0      	LDI  R31,0
0010c6 5dec      	SUBI R30,LOW(-_rx_buffer)
0010c7 4ffc      	SBCI R31,HIGH(-_rx_buffer)
0010c8 8300      	ST   Z,R16
                 ; 0000 00C5 #if RX_BUFFER_SIZE == 256
                 ; 0000 00C6    // special case for receiver buffer size=256
                 ; 0000 00C7    if (++rx_counter == 0) rx_buffer_overflow=1;
                 ; 0000 00C8 #else
                 ; 0000 00C9    if (rx_wr_index == RX_BUFFER_SIZE) rx_wr_index=0;
0010c9 e1e8      	LDI  R30,LOW(24)
0010ca 15e7      	CP   R30,R7
0010cb f409      	BRNE _0x4
0010cc 2477      	CLR  R7
                 ; 0000 00CA    if (++rx_counter == RX_BUFFER_SIZE)
                 _0x4:
0010cd 9493      	INC  R9
0010ce e1e8      	LDI  R30,LOW(24)
0010cf 15e9      	CP   R30,R9
0010d0 f419      	BRNE _0x5
                 ; 0000 00CB       {
                 ; 0000 00CC       rx_counter=0;
0010d1 2499      	CLR  R9
                 ; 0000 00CD       rx_buffer_overflow=1;
0010d2 9468      	SET
0010d3 f820      	BLD  R2,0
                 ; 0000 00CE       }
                 ; 0000 00CF #endif
                 ; 0000 00D0    }
                 _0x5:
                 ; 0000 00D1 }
                 _0x3:
0010d4 9109      	LD   R16,Y+
0010d5 9119      	LD   R17,Y+
0010d6 91e9      	LD   R30,Y+
0010d7 bfef      	OUT  SREG,R30
0010d8 91f9      	LD   R31,Y+
0010d9 91e9      	LD   R30,Y+
0010da 9518      	RETI
                 ; .FEND
                 ;
                 ;#ifndef _DEBUG_TERMINAL_IO_
                 ;// Get a character from the USART Receiver buffer
                 ;#define _ALTERNATE_GETCHAR_
                 ;#pragma used+
                 ;char getchar(void)
                 ; 0000 00D8 {
                 ; 0000 00D9 char data;
                 ; 0000 00DA while (rx_counter==0);
                 ;	data -> R17
                 ; 0000 00DB data=rx_buffer[rx_rd_index++];
                 ; 0000 00DC #if RX_BUFFER_SIZE != 256
                 ; 0000 00DD if (rx_rd_index == RX_BUFFER_SIZE) rx_rd_index=0;
                 ; 0000 00DE #endif
                 ; 0000 00DF #asm("cli")
                 ; 0000 00E0 --rx_counter;
                 ; 0000 00E1 #asm("sei")
                 ; 0000 00E2 return data;
                 ; 0000 00E3 }
                 ;#pragma used-
                 ;#endif
                 ;
                 ;
                 ;// External Interrupt 2 service routine
                 ;interrupt [EXT_INT2] void ext_int2_isr(void)
                 ; 0000 00EA {
                 _ext_int2_isr:
                 ; .FSTART _ext_int2_isr
0010db 940e 1a05 	CALL SUBOPT_0x0
                 ; 0000 00EB // Place your code here
                 ; 0000 00EC send(buffer4);
0010dd efa8      	LDI  R26,LOW(_buffer4)
0010de e0b2      	LDI  R27,HIGH(_buffer4)
0010df d358      	RCALL _send
                 ; 0000 00ED }
0010e0 c0b9      	RJMP _0x5F
                 ; .FEND
                 ;
                 ;
                 ;interrupt [TIM1_OVF] void timer1_ovf_isr(void)
                 ; 0000 00F1 {
                 _timer1_ovf_isr:
                 ; .FSTART _timer1_ovf_isr
0010e1 940e 1a05 	CALL SUBOPT_0x0
                 ; 0000 00F2 int x,y;
                 ; 0000 00F3 // Reinitialize Timer1 value
                 ; 0000 00F4 TCNT1H=0xBDC >> 8;
0010e3 940e 1f07 	CALL __SAVELOCR4
                 ;	x -> R16,R17
                 ;	y -> R18,R19
0010e5 e0eb      	LDI  R30,LOW(11)
0010e6 bded      	OUT  0x2D,R30
                 ; 0000 00F5 TCNT1L=0xBDC & 0xff;
0010e7 edec      	LDI  R30,LOW(220)
0010e8 bdec      	OUT  0x2C,R30
                 ; 0000 00F6 // Place your code here
                 ; 0000 00F7 scale_total = scale_total / measure_counter;
0010e9 01f2      	MOVW R30,R4
0010ea 940e 1a13 	CALL SUBOPT_0x1
0010ec 2766      	CLR  R22
0010ed 2777      	CLR  R23
0010ee 940e 1cef 	CALL __CDF1
0010f0 940e 1dc7 	CALL __DIVF21
0010f2 940e 1a1c 	CALL SUBOPT_0x2
                 ; 0000 00F8 x = (int)scale_total ;
0010f4 940e 1a25 	CALL SUBOPT_0x3
0010f6 940e 1cb8 	CALL __CFD1
0010f8 018f      	MOVW R16,R30
                 ; 0000 00F9 if(x>100)x=100;
                +
0010f9 3605     +CPI R16 , LOW ( 101 )
0010fa e0e0     +LDI R30 , HIGH ( 101 )
0010fb 071e     +CPC R17 , R30
                 	__CPWRN 16,17,101
0010fc f014      	BRLT _0xA
                +
0010fd e604     +LDI R16 , LOW ( 100 )
0010fe e010     +LDI R17 , HIGH ( 100 )
                 	__GETWRN 16,17,100
                 ; 0000 00FA if(x<0)x=0;
                 _0xA:
0010ff 2311      	TST  R17
001100 f412      	BRPL _0xB
                +
001101 e000     +LDI R16 , LOW ( 0 )
001102 e010     +LDI R17 , HIGH ( 0 )
                 	__GETWRN 16,17,0
                 ; 0000 00FB y = (scale_total - scale_total_prev + 100) / 5;
                 _0xB:
001103 91a0 0288 	LDS  R26,_scale_total_prev
001105 91b0 0289 	LDS  R27,_scale_total_prev+1
001107 9180 028a 	LDS  R24,_scale_total_prev+2
001109 9190 028b 	LDS  R25,_scale_total_prev+3
00110b 940e 1a25 	CALL SUBOPT_0x3
00110d 940e 1d22 	CALL __SUBF12
                +
00110f e0a0     +LDI R26 , LOW ( 0x42C80000 )
001110 e0b0     +LDI R27 , HIGH ( 0x42C80000 )
001111 ec88     +LDI R24 , BYTE3 ( 0x42C80000 )
001112 e492     +LDI R25 , BYTE4 ( 0x42C80000 )
                 	__GETD2N 0x42C80000
001113 940e 1a2e 	CALL SUBOPT_0x4
                +
001115 e0e0     +LDI R30 , LOW ( 0x40A00000 )
001116 e0f0     +LDI R31 , HIGH ( 0x40A00000 )
001117 ea60     +LDI R22 , BYTE3 ( 0x40A00000 )
001118 e470     +LDI R23 , BYTE4 ( 0x40A00000 )
                 	__GETD1N 0x40A00000
001119 940e 1dc7 	CALL __DIVF21
00111b 940e 1cb8 	CALL __CFD1
00111d 019f      	MOVW R18,R30
                 ; 0000 00FC scale_total_prev = scale_total;
00111e 940e 1a25 	CALL SUBOPT_0x3
001120 93e0 0288 	STS  _scale_total_prev,R30
001122 93f0 0289 	STS  _scale_total_prev+1,R31
001124 9360 028a 	STS  _scale_total_prev+2,R22
001126 9370 028b 	STS  _scale_total_prev+3,R23
                 ; 0000 00FD OCR2 = (int)fuzzy[x][y]*2.55;
                +
001128 e5a2     +LDI R26 , 82
001129 9fa0     +MUL R26 , R16
00112a 01f0     +MOVW R30 , R0
00112b 9fa1     +MUL R26 , R17
00112c 0df0     +ADD R31 , R0
                 	__MULBNWRU 16,17,82
00112d 5aec      	SUBI R30,LOW(-_fuzzy*2)
00112e 4fff      	SBCI R31,HIGH(-_fuzzy*2)
00112f 01df      	MOVW R26,R30
001130 01f9      	MOVW R30,R18
001131 0fee      	LSL  R30
001132 1fff      	ROL  R31
001133 0fea      	ADD  R30,R26
001134 1ffb      	ADC  R31,R27
001135 940e 1ed7 	CALL __GETW1PF
001137 940e 1a33 	CALL SUBOPT_0x5
                +
001139 e3a3     +LDI R26 , LOW ( 0x40233333 )
00113a e3b3     +LDI R27 , HIGH ( 0x40233333 )
00113b e283     +LDI R24 , BYTE3 ( 0x40233333 )
00113c e490     +LDI R25 , BYTE4 ( 0x40233333 )
                 	__GETD2N 0x40233333
00113d 940e 1d79 	CALL __MULF12
00113f 940e 1cb6 	CALL __CFD1U
001141 bde3      	OUT  0x23,R30
                 ; 0000 00FE itoa(OCR2,str1);
001142 b5e3      	IN   R30,0x23
001143 e0f0      	LDI  R31,0
001144 93fa      	ST   -Y,R31
001145 93ea      	ST   -Y,R30
001146 e1ac      	LDI  R26,LOW(_str1)
001147 e0b3      	LDI  R27,HIGH(_str1)
001148 940e 18a7 	CALL _itoa
                 ; 0000 00FF sprintf(buffer4,"%s",str1);
00114a efe8      	LDI  R30,LOW(_buffer4)
00114b e0f2      	LDI  R31,HIGH(_buffer4)
00114c 93fa      	ST   -Y,R31
00114d 93ea      	ST   -Y,R30
                +
00114e ebe4     +LDI R30 , LOW ( 2 * _0x0 + ( 0 ) )
00114f e2f0     +LDI R31 , HIGH ( 2 * _0x0 + ( 0 ) )
                 	__POINTW1FN _0x0,0
001150 93fa      	ST   -Y,R31
001151 93ea      	ST   -Y,R30
001152 e1ec      	LDI  R30,LOW(_str1)
001153 e0f3      	LDI  R31,HIGH(_str1)
001154 2766      	CLR  R22
001155 2777      	CLR  R23
001156 940e 1eea 	CALL __PUTPARD1
001158 e084      	LDI  R24,4
001159 940e 1873 	CALL _sprintf
00115b 9628      	ADIW R28,8
                 ; 0000 0100 
                 ; 0000 0101 //send(buffer4);
                 ; 0000 0102 sprintf(buffer,"%4.1fg %4.1fg %4.1fg %4.1fg %i",scale,scale1,scale2,scale_total,OCR2);//sprintf(buffer," %ld ",Weight_Sh ...
00115c efec      	LDI  R30,LOW(_buffer)
00115d e0f2      	LDI  R31,HIGH(_buffer)
00115e 93fa      	ST   -Y,R31
00115f 93ea      	ST   -Y,R30
                +
001160 ebe7     +LDI R30 , LOW ( 2 * _0x0 + ( 3 ) )
001161 e2f0     +LDI R31 , HIGH ( 2 * _0x0 + ( 3 ) )
                 	__POINTW1FN _0x0,3
001162 93fa      	ST   -Y,R31
001163 93ea      	ST   -Y,R30
001164 91e0 028c 	LDS  R30,_scale
001166 91f0 028d 	LDS  R31,_scale+1
001168 9160 028e 	LDS  R22,_scale+2
00116a 9170 028f 	LDS  R23,_scale+3
00116c 940e 1eea 	CALL __PUTPARD1
00116e 940e 1a38 	CALL SUBOPT_0x6
001170 940e 1eea 	CALL __PUTPARD1
001172 91e0 0294 	LDS  R30,_scale2
001174 91f0 0295 	LDS  R31,_scale2+1
001176 9160 0296 	LDS  R22,_scale2+2
001178 9170 0297 	LDS  R23,_scale2+3
00117a 940e 1eea 	CALL __PUTPARD1
00117c 940e 1a25 	CALL SUBOPT_0x3
00117e 940e 1eea 	CALL __PUTPARD1
001180 b5e3      	IN   R30,0x23
001181 27ff      	CLR  R31
001182 2766      	CLR  R22
001183 2777      	CLR  R23
001184 940e 1eea 	CALL __PUTPARD1
001186 e184      	LDI  R24,20
001187 940e 1873 	CALL _sprintf
001189 9668      	ADIW R28,24
                 ; 0000 0103 lcd_clear();
00118a 940e 14cd 	CALL _lcd_clear
                 ; 0000 0104 lcd_gotoxy(0,0);
00118c e0e0      	LDI  R30,LOW(0)
00118d 93ea      	ST   -Y,R30
00118e e0a0      	LDI  R26,LOW(0)
00118f 940e 14c0 	CALL _lcd_gotoxy
                 ; 0000 0105 lcd_puts(buffer);
001191 efac      	LDI  R26,LOW(_buffer)
001192 e0b2      	LDI  R27,HIGH(_buffer)
001193 940e 14ee 	CALL _lcd_puts
                 ; 0000 0106 //delay_ms(10);
                 ; 0000 0107 measure_counter = 0;
001195 2444      	CLR  R4
001196 2455      	CLR  R5
                 ; 0000 0108 }
001197 940e 1f0e 	CALL __LOADLOCR4
001199 9624      	ADIW R28,4
                 _0x5F:
00119a 91e9      	LD   R30,Y+
00119b bfef      	OUT  SREG,R30
00119c 91f9      	LD   R31,Y+
00119d 91e9      	LD   R30,Y+
00119e 91b9      	LD   R27,Y+
00119f 91a9      	LD   R26,Y+
0011a0 9199      	LD   R25,Y+
0011a1 9189      	LD   R24,Y+
0011a2 9179      	LD   R23,Y+
0011a3 9169      	LD   R22,Y+
0011a4 90f9      	LD   R15,Y+
0011a5 9019      	LD   R1,Y+
0011a6 9009      	LD   R0,Y+
0011a7 9518      	RETI
                 ; .FEND
                 ;
                 ;
                 ;void main(void)
                 ; 0000 010C {
                 _main:
                 ; .FSTART _main
                 ; 0000 010D 
                 ; 0000 010E //IO Pins/Ports :
                 ; 0000 010F PORTA=0x00;
0011a8 e0e0      	LDI  R30,LOW(0)
0011a9 bbeb      	OUT  0x1B,R30
                 ; 0000 0110 DDRA=0x00;
0011aa bbea      	OUT  0x1A,R30
                 ; 0000 0111 
                 ; 0000 0112 // Port B initialization
                 ; 0000 0113 // Function: Bit7=In Bit6=In Bit5=In Bit4=In Bit3=In Bit2=In Bit1=In Bit0=Out
                 ; 0000 0114 DDRB=(0<<DDB7) | (0<<DDB6) | (0<<DDB5) | (0<<DDB4) | (0<<DDB3) | (0<<DDB2) | (0<<DDB1) | (1<<DDB0);
0011ab e0e1      	LDI  R30,LOW(1)
0011ac bbe7      	OUT  0x17,R30
                 ; 0000 0115 // State: Bit7=T Bit6=T Bit5=T Bit4=T Bit3=T Bit2=T Bit1=T Bit0=0
                 ; 0000 0116 PORTB=(0<<PORTB7) | (0<<PORTB6) | (0<<PORTB5) | (0<<PORTB4) | (0<<PORTB3) | (1<<PORTB2) | (0<<PORTB1) | (0<<PORTB0);
0011ad e0e4      	LDI  R30,LOW(4)
0011ae bbe8      	OUT  0x18,R30
                 ; 0000 0117 
                 ; 0000 0118 // Port C initialization
                 ; 0000 0119 // Function: Bit7=In Bit6=In Bit5=In Bit4=In Bit3=In Bit2=In Bit1=Out Bit0=Out
                 ; 0000 011A DDRC=(0<<DDC7) | (0<<DDC6) | (0<<DDC5) | (0<<DDC4) | (0<<DDC3) | (0<<DDC2) | (1<<DDC1) | (1<<DDC0);
0011af e0e3      	LDI  R30,LOW(3)
0011b0 bbe4      	OUT  0x14,R30
                 ; 0000 011B // State: Bit7=T Bit6=T Bit5=T Bit4=T Bit3=T Bit2=T Bit1=0 Bit0=0
                 ; 0000 011C PORTC=(0<<PORTC7) | (0<<PORTC6) | (0<<PORTC5) | (0<<PORTC4) | (0<<PORTC3) | (0<<PORTC2) | (0<<PORTC1) | (0<<PORTC0);
0011b1 e0e0      	LDI  R30,LOW(0)
0011b2 bbe5      	OUT  0x15,R30
                 ; 0000 011D 
                 ; 0000 011E // Port D initialization
                 ; 0000 011F // Function: Bit7=In Bit6=In Bit5=In Bit4=Out Bit3=In Bit2=Out Bit1=Out Bit0=In
                 ; 0000 0120 DDRD=(1<<DDD7) | (0<<DDD6) | (0<<DDD5) | (1<<DDD4) | (0<<DDD3) | (1<<DDD2) | (1<<DDD1) | (0<<DDD0);
0011b3 e9e6      	LDI  R30,LOW(150)
0011b4 bbe1      	OUT  0x11,R30
                 ; 0000 0121 // State: Bit7=T Bit6=T Bit5=T Bit4=0 Bit3=T Bit2=0 Bit1=0 Bit0=T
                 ; 0000 0122 PORTD=(0<<PORTD7) | (0<<PORTD6) | (0<<PORTD5) | (0<<PORTD4) | (0<<PORTD3) | (0<<PORTD2) | (0<<PORTD1) | (0<<PORTD0);
0011b5 e0e0      	LDI  R30,LOW(0)
0011b6 bbe2      	OUT  0x12,R30
                 ; 0000 0123 
                 ; 0000 0124 // USART initialization
                 ; 0000 0125 // Communication Parameters: 8 Data, 1 Stop, No Parity
                 ; 0000 0126 // USART Receiver: On
                 ; 0000 0127 // USART Transmitter: On
                 ; 0000 0128 // USART Mode: Asynchronous
                 ; 0000 0129 // USART Baud Rate: 9600
                 ; 0000 012A UCSRA=(0<<RXC) | (0<<TXC) | (0<<UDRE) | (0<<FE) | (0<<DOR) | (0<<UPE) | (0<<U2X) | (0<<MPCM);
0011b7 b9eb      	OUT  0xB,R30
                 ; 0000 012B UCSRB=(1<<RXCIE) | (0<<TXCIE) | (0<<UDRIE) | (1<<RXEN) | (1<<TXEN) | (0<<UCSZ2) | (0<<RXB8) | (0<<TXB8);
0011b8 e9e8      	LDI  R30,LOW(152)
0011b9 b9ea      	OUT  0xA,R30
                 ; 0000 012C UCSRC=(1<<URSEL) | (0<<UMSEL) | (0<<UPM1) | (0<<UPM0) | (0<<USBS) | (1<<UCSZ1) | (1<<UCSZ0) | (0<<UCPOL);
0011ba e8e6      	LDI  R30,LOW(134)
0011bb bde0      	OUT  0x20,R30
                 ; 0000 012D UBRRH=0x00;
0011bc e0e0      	LDI  R30,LOW(0)
0011bd bde0      	OUT  0x20,R30
                 ; 0000 012E UBRRL=0x33;
0011be e3e3      	LDI  R30,LOW(51)
0011bf b9e9      	OUT  0x9,R30
                 ; 0000 012F 
                 ; 0000 0130 get_offset();
0011c0 d1fa      	RCALL _get_offset
                 ; 0000 0131 get_offset1();
0011c1 d222      	RCALL _get_offset1
                 ; 0000 0132 get_offset2();
0011c2 d24a      	RCALL _get_offset2
                 ; 0000 0133 
                 ; 0000 0134 
                 ; 0000 0135 lcd_init(16);
0011c3 e1a0      	LDI  R26,LOW(16)
0011c4 940e 1509 	CALL _lcd_init
                 ; 0000 0136 lcd_putsf("Doctor naderi");
                +
0011c6 eda6     +LDI R26 , LOW ( 2 * _0x0 + ( 34 ) )
0011c7 e2b0     +LDI R27 , HIGH ( 2 * _0x0 + ( 34 ) )
                 	__POINTW2FN _0x0,34
0011c8 940e 14f8 	CALL _lcd_putsf
                 ; 0000 0137 delay_ms(1000);
0011ca eea8      	LDI  R26,LOW(1000)
0011cb e0b3      	LDI  R27,HIGH(1000)
0011cc 940e 1c79 	CALL _delay_ms
                 ; 0000 0138 
                 ; 0000 0139 
                 ; 0000 013A // Timer/Counter 1 initialization
                 ; 0000 013B // Clock source: System Clock
                 ; 0000 013C // Clock value: 125.000 kHz
                 ; 0000 013D // Mode: Normal top=0xFFFF
                 ; 0000 013E // OC1A output: Disconnected
                 ; 0000 013F // OC1B output: Disconnected
                 ; 0000 0140 // Noise Canceler: Off
                 ; 0000 0141 // Input Capture on Falling Edge
                 ; 0000 0142 // Timer Period: 0.5 s
                 ; 0000 0143 // Timer1 Overflow Interrupt: On
                 ; 0000 0144 // Input Capture Interrupt: Off
                 ; 0000 0145 // Compare A Match Interrupt: Off
                 ; 0000 0146 // Compare B Match Interrupt: Off
                 ; 0000 0147 TCCR1A=(0<<COM1A1) | (0<<COM1A0) | (0<<COM1B1) | (0<<COM1B0) | (0<<WGM11) | (0<<WGM10);
0011ce e0e0      	LDI  R30,LOW(0)
0011cf bdef      	OUT  0x2F,R30
                 ; 0000 0148 TCCR1B=(0<<ICNC1) | (0<<ICES1) | (0<<WGM13) | (0<<WGM12) | (0<<CS12) | (1<<CS11) | (1<<CS10);
0011d0 e0e3      	LDI  R30,LOW(3)
0011d1 bdee      	OUT  0x2E,R30
                 ; 0000 0149 TCNT1H=0x0B;
0011d2 e0eb      	LDI  R30,LOW(11)
0011d3 bded      	OUT  0x2D,R30
                 ; 0000 014A TCNT1L=0xDC;
0011d4 edec      	LDI  R30,LOW(220)
0011d5 bdec      	OUT  0x2C,R30
                 ; 0000 014B ICR1H=0x00;
0011d6 e0e0      	LDI  R30,LOW(0)
0011d7 bde7      	OUT  0x27,R30
                 ; 0000 014C ICR1L=0x00;
0011d8 bde6      	OUT  0x26,R30
                 ; 0000 014D OCR1AH=0x00;
0011d9 bdeb      	OUT  0x2B,R30
                 ; 0000 014E OCR1AL=0x00;
0011da bdea      	OUT  0x2A,R30
                 ; 0000 014F OCR1BH=0x00;
0011db bde9      	OUT  0x29,R30
                 ; 0000 0150 OCR1BL=0x00;
0011dc bde8      	OUT  0x28,R30
                 ; 0000 0151 
                 ; 0000 0152 
                 ; 0000 0153 // Timer/Counter 2 initialization
                 ; 0000 0154 // Clock source: System Clock
                 ; 0000 0155 // Clock value: 31.250 kHz
                 ; 0000 0156 // Mode: Fast PWM top=0xFF
                 ; 0000 0157 // OC2 output: Non-Inverted PWM
                 ; 0000 0158 // Timer Period: 8.192 ms
                 ; 0000 0159 // Output Pulse(s):
                 ; 0000 015A // OC2 Period: 8.192 ms Width: 0 us
                 ; 0000 015B ASSR=0<<AS2;
0011dd bde2      	OUT  0x22,R30
                 ; 0000 015C TCCR2=(1<<PWM2) | (1<<COM21) | (0<<COM20) | (1<<CTC2) | (1<<CS22) | (1<<CS21) | (0<<CS20);
0011de e6ee      	LDI  R30,LOW(110)
0011df bde5      	OUT  0x25,R30
                 ; 0000 015D TCNT2=0x00;
0011e0 e0e0      	LDI  R30,LOW(0)
0011e1 bde4      	OUT  0x24,R30
                 ; 0000 015E OCR2=80;
0011e2 e5e0      	LDI  R30,LOW(80)
0011e3 bde3      	OUT  0x23,R30
                 ; 0000 015F 
                 ; 0000 0160 // Timer(s)/Counter(s) Interrupt(s) initialization
                 ; 0000 0161 TIMSK=(0<<OCIE2) | (0<<TOIE2) | (0<<TICIE1) | (0<<OCIE1A) | (0<<OCIE1B) | (1<<TOIE1) | (0<<OCIE0) | (0<<TOIE0);
0011e4 e0e4      	LDI  R30,LOW(4)
0011e5 bfe9      	OUT  0x39,R30
                 ; 0000 0162 
                 ; 0000 0163 
                 ; 0000 0164 
                 ; 0000 0165 // External Interrupt(s) initialization
                 ; 0000 0166 // INT0: Off
                 ; 0000 0167 // INT1: Off
                 ; 0000 0168 // INT2: On
                 ; 0000 0169 // INT2 Mode: Falling Edge
                 ; 0000 016A GICR|=(0<<INT1) | (0<<INT0) | (1<<INT2);
0011e6 b7eb      	IN   R30,0x3B
0011e7 62e0      	ORI  R30,0x20
0011e8 bfeb      	OUT  0x3B,R30
                 ; 0000 016B MCUCR=(0<<ISC11) | (0<<ISC10) | (0<<ISC01) | (0<<ISC00);
0011e9 e0e0      	LDI  R30,LOW(0)
0011ea bfe5      	OUT  0x35,R30
                 ; 0000 016C MCUCSR=(0<<ISC2);
0011eb bfe4      	OUT  0x34,R30
                 ; 0000 016D GIFR=(0<<INTF1) | (0<<INTF0) | (1<<INTF2);
0011ec e2e0      	LDI  R30,LOW(32)
0011ed bfea      	OUT  0x3A,R30
                 ; 0000 016E 
                 ; 0000 016F 
                 ; 0000 0170 // Global enable interrupts
                 ; 0000 0171 #asm("sei")
0011ee 9478      	sei
                 ; 0000 0172 
                 ; 0000 0173 
                 ; 0000 0174 while (1)
                 _0xC:
                 ; 0000 0175       {
                 ; 0000 0176         get_scale();
0011ef d081      	RCALL _get_scale
                 ; 0000 0177         /*ftoa(scale,2,str1);
                 ; 0000 0178         sprintf(buffer1,"%s",str1);
                 ; 0000 0179         ftoa(scale1,2,str2);
                 ; 0000 017A         sprintf(buffer2,"%s",str2);
                 ; 0000 017B         ftoa(scale2,2,str3);
                 ; 0000 017C         sprintf(buffer3,"%s",str3);*/
                 ; 0000 017D         scale_total += scale + scale1 + scale2;// + scale1 + scale2;
0011f0 940e 1a38 	CALL SUBOPT_0x6
0011f2 91a0 028c 	LDS  R26,_scale
0011f4 91b0 028d 	LDS  R27,_scale+1
0011f6 9180 028e 	LDS  R24,_scale+2
0011f8 9190 028f 	LDS  R25,_scale+3
0011fa 940e 1d29 	CALL __ADDF12
0011fc 91a0 0294 	LDS  R26,_scale2
0011fe 91b0 0295 	LDS  R27,_scale2+1
001200 9180 0296 	LDS  R24,_scale2+2
001202 9190 0297 	LDS  R25,_scale2+3
001204 940e 1d29 	CALL __ADDF12
001206 940e 1a13 	CALL SUBOPT_0x1
001208 940e 1d29 	CALL __ADDF12
00120a 940e 1a1c 	CALL SUBOPT_0x2
                 ; 0000 017E         measure_counter += 1;
00120c 01f2      	MOVW R30,R4
00120d 9631      	ADIW R30,1
00120e 012f      	MOVW R4,R30
                 ; 0000 017F       }
00120f cfdf      	RJMP _0xC
                 ; 0000 0180 }
                 _0xF:
001210 cfff      	RJMP _0xF
                 ; .FEND
                 ;
                 ;//Read from HX711 Modules :
                 ;unsigned long HX711_Read(void)
                 ; 0000 0184 {
                 _HX711_Read:
                 ; .FSTART _HX711_Read
                 ; 0000 0185     unsigned long count;
                 ; 0000 0186     unsigned char i;
                 ; 0000 0187 
                 ; 0000 0188       HX711_DOUT=1;
001211 9724      	SBIW R28,4
001212 931a      	ST   -Y,R17
                 ;	count -> Y+1
                 ;	i -> R17
001213 9a83      	SBI  0x10,3
                 ; 0000 0189       HX711_SCK=0;
001214 9892      	CBI  0x12,2
                 ; 0000 018A       count=0;
001215 940e 1a41 	CALL SUBOPT_0x7
                 ; 0000 018B       while(HX711_DOUT);
                 _0x14:
001217 9983      	SBIC 0x10,3
001218 cffe      	RJMP _0x14
                 ; 0000 018C       for(i=0;i<24;i++)  //gain --> 128
001219 e010      	LDI  R17,LOW(0)
                 _0x18:
00121a 3118      	CPI  R17,24
00121b f460      	BRSH _0x19
                 ; 0000 018D         {
                 ; 0000 018E             HX711_SCK=1;
00121c 9a92      	SBI  0x12,2
                 ; 0000 018F             count=count<<1;
00121d 940e 1a47 	CALL SUBOPT_0x8
00121f 940e 1a4c 	CALL SUBOPT_0x9
                 ; 0000 0190             HX711_SCK=0;
001221 9892      	CBI  0x12,2
                 ; 0000 0191             if(HX711_DOUT)
001222 9b83      	SBIS 0x10,3
001223 c002      	RJMP _0x1E
                 ; 0000 0192                 count++;
001224 940e 1a53 	CALL SUBOPT_0xA
                 ; 0000 0193         }
                 _0x1E:
001226 5f1f      	SUBI R17,-1
001227 cff2      	RJMP _0x18
                 _0x19:
                 ; 0000 0194        HX711_SCK=1;
001228 9a92      	SBI  0x12,2
                 ; 0000 0195       count=count ^ HX_COMPLEMENT;//2,s Complement
001229 940e 1a5d 	CALL SUBOPT_0xB
                 ; 0000 0196       HX711_SCK=0;
00122b 9892      	CBI  0x12,2
                 ; 0000 0197       return(count);
00122c 940e 1a47 	CALL SUBOPT_0x8
00122e 8118      	LDD  R17,Y+0
00122f 940c 1583 	JMP  _0x20C0006
                 ; 0000 0198 }
                 ; .FEND
                 ;unsigned long HX711_Read1(void)
                 ; 0000 019A {
                 _HX711_Read1:
                 ; .FSTART _HX711_Read1
                 ; 0000 019B     unsigned long count;
                 ; 0000 019C     unsigned char i;
                 ; 0000 019D 
                 ; 0000 019E       HX711_DOUT1=1;
001231 9724      	SBIW R28,4
001232 931a      	ST   -Y,R17
                 ;	count -> Y+1
                 ;	i -> R17
001233 9a85      	SBI  0x10,5
                 ; 0000 019F       HX711_SCK1=0;
001234 9894      	CBI  0x12,4
                 ; 0000 01A0       count=0;
001235 940e 1a41 	CALL SUBOPT_0x7
                 ; 0000 01A1       while(HX711_DOUT1);
                 _0x27:
001237 9985      	SBIC 0x10,5
001238 cffe      	RJMP _0x27
                 ; 0000 01A2       for(i=0;i<24;i++)  //gain --> 128
001239 e010      	LDI  R17,LOW(0)
                 _0x2B:
00123a 3118      	CPI  R17,24
00123b f460      	BRSH _0x2C
                 ; 0000 01A3         {
                 ; 0000 01A4             HX711_SCK1=1;
00123c 9a94      	SBI  0x12,4
                 ; 0000 01A5             count=count<<1;
00123d 940e 1a47 	CALL SUBOPT_0x8
00123f 940e 1a4c 	CALL SUBOPT_0x9
                 ; 0000 01A6             HX711_SCK1=0;
001241 9894      	CBI  0x12,4
                 ; 0000 01A7             if(HX711_DOUT1)
001242 9b85      	SBIS 0x10,5
001243 c002      	RJMP _0x31
                 ; 0000 01A8                 count++;
001244 940e 1a53 	CALL SUBOPT_0xA
                 ; 0000 01A9         }
                 _0x31:
001246 5f1f      	SUBI R17,-1
001247 cff2      	RJMP _0x2B
                 _0x2C:
                 ; 0000 01AA        HX711_SCK1=1;
001248 9a94      	SBI  0x12,4
                 ; 0000 01AB       count=count ^ HX_COMPLEMENT;//2,s Complement
001249 940e 1a5d 	CALL SUBOPT_0xB
                 ; 0000 01AC       HX711_SCK1=0;
00124b 9894      	CBI  0x12,4
                 ; 0000 01AD       return(count);
00124c 940e 1a47 	CALL SUBOPT_0x8
00124e 8118      	LDD  R17,Y+0
00124f 940c 1583 	JMP  _0x20C0006
                 ; 0000 01AE }
                 ; .FEND
                 ;unsigned long HX711_Read2(void)
                 ; 0000 01B0 {
                 _HX711_Read2:
                 ; .FSTART _HX711_Read2
                 ; 0000 01B1     unsigned long count;
                 ; 0000 01B2     unsigned char i;
                 ; 0000 01B3 
                 ; 0000 01B4       HX711_DOUT2=1;
001251 9724      	SBIW R28,4
001252 931a      	ST   -Y,R17
                 ;	count -> Y+1
                 ;	i -> R17
001253 9ab1      	SBI  0x16,1
                 ; 0000 01B5       HX711_SCK2=0;
001254 98c0      	CBI  0x18,0
                 ; 0000 01B6       count=0;
001255 940e 1a41 	CALL SUBOPT_0x7
                 ; 0000 01B7       while(HX711_DOUT2);
                 _0x3A:
001257 99b1      	SBIC 0x16,1
001258 cffe      	RJMP _0x3A
                 ; 0000 01B8       for(i=0;i<24;i++)  //gain --> 128
001259 e010      	LDI  R17,LOW(0)
                 _0x3E:
00125a 3118      	CPI  R17,24
00125b f460      	BRSH _0x3F
                 ; 0000 01B9         {
                 ; 0000 01BA             HX711_SCK2=1;
00125c 9ac0      	SBI  0x18,0
                 ; 0000 01BB             count=count<<1;
00125d 940e 1a47 	CALL SUBOPT_0x8
00125f 940e 1a4c 	CALL SUBOPT_0x9
                 ; 0000 01BC             HX711_SCK2=0;
001261 98c0      	CBI  0x18,0
                 ; 0000 01BD             if(HX711_DOUT2)
001262 9bb1      	SBIS 0x16,1
001263 c002      	RJMP _0x44
                 ; 0000 01BE                 count++;
001264 940e 1a53 	CALL SUBOPT_0xA
                 ; 0000 01BF         }
                 _0x44:
001266 5f1f      	SUBI R17,-1
001267 cff2      	RJMP _0x3E
                 _0x3F:
                 ; 0000 01C0        HX711_SCK2=1;
001268 9ac0      	SBI  0x18,0
                 ; 0000 01C1       count=count ^ HX_COMPLEMENT;//2,s Complement
001269 940e 1a5d 	CALL SUBOPT_0xB
                 ; 0000 01C2       HX711_SCK2=0;
00126b 98c0      	CBI  0x18,0
                 ; 0000 01C3       return(count);
00126c 940e 1a47 	CALL SUBOPT_0x8
00126e 8118      	LDD  R17,Y+0
00126f 940c 1583 	JMP  _0x20C0006
                 ; 0000 01C4 }
                 ; .FEND
                 ;
                 ;void get_scale(void)
                 ; 0000 01C7 {
                 _get_scale:
                 ; .FSTART _get_scale
                 ; 0000 01C8     unsigned int i;
                 ; 0000 01C9     unsigned int j;
                 ; 0000 01CA     scale_sum = 0;
001271 940e 1f07 	CALL __SAVELOCR4
                 ;	i -> R16,R17
                 ;	j -> R18,R19
001273 e0e0      	LDI  R30,LOW(0)
001274 93e0 0298 	STS  _scale_sum,R30
001276 93e0 0299 	STS  _scale_sum+1,R30
001278 93e0 029a 	STS  _scale_sum+2,R30
00127a 93e0 029b 	STS  _scale_sum+3,R30
                 ; 0000 01CB     scale1_sum = 0;
00127c 93e0 029c 	STS  _scale1_sum,R30
00127e 93e0 029d 	STS  _scale1_sum+1,R30
001280 93e0 029e 	STS  _scale1_sum+2,R30
001282 93e0 029f 	STS  _scale1_sum+3,R30
                 ; 0000 01CC     scale2_sum = 0;
001284 93e0 02a0 	STS  _scale2_sum,R30
001286 93e0 02a1 	STS  _scale2_sum+1,R30
001288 93e0 02a2 	STS  _scale2_sum+2,R30
00128a 93e0 02a3 	STS  _scale2_sum+3,R30
                 ; 0000 01CD 
                 ; 0000 01CE     for(j=0; j<2 ;j++){
                +
00128c e020     +LDI R18 , LOW ( 0 )
00128d e030     +LDI R19 , HIGH ( 0 )
                 	__GETWRN 18,19,0
                 _0x4A:
                +
00128e 3022     +CPI R18 , LOW ( 2 )
00128f e0e0     +LDI R30 , HIGH ( 2 )
001290 073e     +CPC R19 , R30
                 	__CPWRN 18,19,2
001291 f008      	BRLO PC+2
001292 c100      	RJMP _0x4B
                 ; 0000 01CF     for(i=0 ; i<7 ;i++){
                +
001293 e000     +LDI R16 , LOW ( 0 )
001294 e010     +LDI R17 , HIGH ( 0 )
                 	__GETWRN 16,17,0
                 _0x4D:
                +
001295 3007     +CPI R16 , LOW ( 7 )
001296 e0e0     +LDI R30 , HIGH ( 7 )
001297 071e     +CPC R17 , R30
                 	__CPWRN 16,17,7
001298 f008      	BRLO PC+2
001299 c0ae      	RJMP _0x4E
                 ; 0000 01D0 
                 ; 0000 01D1 
                 ; 0000 01D2     HX711_Buffer = 0;
00129a 940e 1a6c 	CALL SUBOPT_0xC
                 ; 0000 01D3     HX711_Buffer = HX711_Read();
00129c df74      	RCALL _HX711_Read
00129d 940e 1a76 	CALL SUBOPT_0xD
                 ; 0000 01D4     HX711_Buffer = HX711_Buffer/100;
00129f 940e 1a7f 	CALL SUBOPT_0xE
0012a1 940e 1a88 	CALL SUBOPT_0xF
0012a3 940e 1a76 	CALL SUBOPT_0xD
                 ; 0000 01D5         Weight_Shiwu = HX711_Buffer;
0012a5 91e0 0278 	LDS  R30,_HX711_Buffer
0012a7 91f0 0279 	LDS  R31,_HX711_Buffer+1
0012a9 9160 027a 	LDS  R22,_HX711_Buffer+2
0012ab 9170 027b 	LDS  R23,_HX711_Buffer+3
0012ad 940e 1a8f 	CALL SUBOPT_0x10
                 ; 0000 01D6         Weight_Shiwu = Weight_Shiwu - Weight_Maopi;
0012af 91a0 0264 	LDS  R26,_Weight_Maopi
0012b1 91b0 0265 	LDS  R27,_Weight_Maopi+1
0012b3 9180 0266 	LDS  R24,_Weight_Maopi+2
0012b5 9190 0267 	LDS  R25,_Weight_Maopi+3
0012b7 940e 1a98 	CALL SUBOPT_0x11
0012b9 940e 1e35 	CALL __SUBD12
0012bb 940e 1a8f 	CALL SUBOPT_0x10
                 ; 0000 01D7 
                 ; 0000 01D8         Weight_Shiwu = ((float)Weight_Shiwu/HX_REF);
0012bd 940e 1aa1 	CALL SUBOPT_0x12
0012bf 940e 1aa7 	CALL SUBOPT_0x13
0012c1 e6a0      	LDI  R26,LOW(_Weight_Shiwu)
0012c2 e0b2      	LDI  R27,HIGH(_Weight_Shiwu)
0012c3 940e 1aae 	CALL SUBOPT_0x14
                 ; 0000 01D9 
                 ; 0000 01DA         scale_array[i] = (float)Weight_Shiwu/30;
0012c5 eaa4      	LDI  R26,LOW(_scale_array)
0012c6 e0b2      	LDI  R27,HIGH(_scale_array)
0012c7 940e 1ab4 	CALL SUBOPT_0x15
0012c9 93ff      	PUSH R31
0012ca 93ef      	PUSH R30
0012cb 940e 1aa1 	CALL SUBOPT_0x12
0012cd 940e 1ab9 	CALL SUBOPT_0x16
0012cf 91af      	POP  R26
0012d0 91bf      	POP  R27
0012d1 940e 1ed2 	CALL __PUTDP1
                 ; 0000 01DB 
                 ; 0000 01DC 
                 ; 0000 01DD     HX711_Buffer1 = 0;
0012d3 940e 1ac0 	CALL SUBOPT_0x17
                 ; 0000 01DE     HX711_Buffer1 = HX711_Read1();
0012d5 df5b      	RCALL _HX711_Read1
0012d6 940e 1aca 	CALL SUBOPT_0x18
                 ; 0000 01DF     HX711_Buffer1 = HX711_Buffer1/100;
0012d8 940e 1ad3 	CALL SUBOPT_0x19
0012da 940e 1a88 	CALL SUBOPT_0xF
0012dc 940e 1aca 	CALL SUBOPT_0x18
                 ; 0000 01E0         Weight_Shiwu1 = HX711_Buffer1;
0012de 91e0 027c 	LDS  R30,_HX711_Buffer1
0012e0 91f0 027d 	LDS  R31,_HX711_Buffer1+1
0012e2 9160 027e 	LDS  R22,_HX711_Buffer1+2
0012e4 9170 027f 	LDS  R23,_HX711_Buffer1+3
0012e6 940e 1adc 	CALL SUBOPT_0x1A
                 ; 0000 01E1         Weight_Shiwu1 = Weight_Shiwu1 - Weight_Maopi1;
0012e8 91a0 026c 	LDS  R26,_Weight_Maopi1
0012ea 91b0 026d 	LDS  R27,_Weight_Maopi1+1
0012ec 9180 026e 	LDS  R24,_Weight_Maopi1+2
0012ee 9190 026f 	LDS  R25,_Weight_Maopi1+3
0012f0 940e 1ae5 	CALL SUBOPT_0x1B
0012f2 940e 1e35 	CALL __SUBD12
0012f4 940e 1adc 	CALL SUBOPT_0x1A
                 ; 0000 01E2 
                 ; 0000 01E3         Weight_Shiwu1 = ((float)Weight_Shiwu1/HX_REF);
0012f6 940e 1aee 	CALL SUBOPT_0x1C
0012f8 940e 1aa7 	CALL SUBOPT_0x13
0012fa e6a8      	LDI  R26,LOW(_Weight_Shiwu1)
0012fb e0b2      	LDI  R27,HIGH(_Weight_Shiwu1)
0012fc 940e 1aae 	CALL SUBOPT_0x14
                 ; 0000 01E4 
                 ; 0000 01E5         scale1_array[i] = (float)Weight_Shiwu1/30;
0012fe eca0      	LDI  R26,LOW(_scale1_array)
0012ff e0b2      	LDI  R27,HIGH(_scale1_array)
001300 940e 1ab4 	CALL SUBOPT_0x15
001302 93ff      	PUSH R31
001303 93ef      	PUSH R30
001304 940e 1aee 	CALL SUBOPT_0x1C
001306 940e 1ab9 	CALL SUBOPT_0x16
001308 91af      	POP  R26
001309 91bf      	POP  R27
00130a 940e 1ed2 	CALL __PUTDP1
                 ; 0000 01E6 
                 ; 0000 01E7 
                 ; 0000 01E8     HX711_Buffer2 = 0;
00130c 940e 1af4 	CALL SUBOPT_0x1D
                 ; 0000 01E9     HX711_Buffer2 = HX711_Read2();
00130e df42      	RCALL _HX711_Read2
00130f 940e 1afe 	CALL SUBOPT_0x1E
                 ; 0000 01EA     HX711_Buffer2 = HX711_Buffer2/100;
001311 940e 1b07 	CALL SUBOPT_0x1F
001313 940e 1a88 	CALL SUBOPT_0xF
001315 940e 1afe 	CALL SUBOPT_0x1E
                 ; 0000 01EB         Weight_Shiwu2 = HX711_Buffer2;
001317 91e0 0280 	LDS  R30,_HX711_Buffer2
001319 91f0 0281 	LDS  R31,_HX711_Buffer2+1
00131b 9160 0282 	LDS  R22,_HX711_Buffer2+2
00131d 9170 0283 	LDS  R23,_HX711_Buffer2+3
00131f 940e 1b10 	CALL SUBOPT_0x20
                 ; 0000 01EC         Weight_Shiwu2 = Weight_Shiwu2 - Weight_Maopi2;
001321 91a0 0274 	LDS  R26,_Weight_Maopi2
001323 91b0 0275 	LDS  R27,_Weight_Maopi2+1
001325 9180 0276 	LDS  R24,_Weight_Maopi2+2
001327 9190 0277 	LDS  R25,_Weight_Maopi2+3
001329 940e 1b19 	CALL SUBOPT_0x21
00132b 940e 1e35 	CALL __SUBD12
00132d 940e 1b10 	CALL SUBOPT_0x20
                 ; 0000 01ED 
                 ; 0000 01EE         Weight_Shiwu2 = ((float)Weight_Shiwu2/HX_REF);
00132f 940e 1b22 	CALL SUBOPT_0x22
001331 940e 1aa7 	CALL SUBOPT_0x13
001333 e7a0      	LDI  R26,LOW(_Weight_Shiwu2)
001334 e0b2      	LDI  R27,HIGH(_Weight_Shiwu2)
001335 940e 1aae 	CALL SUBOPT_0x14
                 ; 0000 01EF 
                 ; 0000 01F0         scale2_array[i] = (float)Weight_Shiwu2/30;
001337 edac      	LDI  R26,LOW(_scale2_array)
001338 e0b2      	LDI  R27,HIGH(_scale2_array)
001339 940e 1ab4 	CALL SUBOPT_0x15
00133b 93ff      	PUSH R31
00133c 93ef      	PUSH R30
00133d 940e 1b22 	CALL SUBOPT_0x22
00133f 940e 1ab9 	CALL SUBOPT_0x16
001341 91af      	POP  R26
001342 91bf      	POP  R27
001343 940e 1ed2 	CALL __PUTDP1
                 ; 0000 01F1     }
                +
001345 5f0f     +SUBI R16 , LOW ( - 1 )
001346 4f1f     +SBCI R17 , HIGH ( - 1 )
                 	__ADDWRN 16,17,1
001347 cf4d      	RJMP _0x4D
                 _0x4E:
                 ; 0000 01F2     sort_array(scale_array,7);
001348 eae4      	LDI  R30,LOW(_scale_array)
001349 e0f2      	LDI  R31,HIGH(_scale_array)
00134a 940e 1b28 	CALL SUBOPT_0x23
                 ; 0000 01F3     scale_sum += scale_array[3];
                +
00134c 91e0 02b0+LDS R30 , _scale_array + ( 12 )
00134e 91f0 02b1+LDS R31 , _scale_array + ( 12 ) + 1
001350 9160 02b2+LDS R22 , _scale_array + ( 12 ) + 2
001352 9170 02b3+LDS R23 , _scale_array + ( 12 ) + 3
                 	__GETD1MN _scale_array,12
001354 940e 1b2e 	CALL SUBOPT_0x24
001356 940e 1d29 	CALL __ADDF12
001358 93e0 0298 	STS  _scale_sum,R30
00135a 93f0 0299 	STS  _scale_sum+1,R31
00135c 9360 029a 	STS  _scale_sum+2,R22
00135e 9370 029b 	STS  _scale_sum+3,R23
                 ; 0000 01F4     sort_array(scale1_array,7);
001360 ece0      	LDI  R30,LOW(_scale1_array)
001361 e0f2      	LDI  R31,HIGH(_scale1_array)
001362 940e 1b28 	CALL SUBOPT_0x23
                 ; 0000 01F5     scale1_sum += scale1_array[3];
                +
001364 91e0 02cc+LDS R30 , _scale1_array + ( 12 )
001366 91f0 02cd+LDS R31 , _scale1_array + ( 12 ) + 1
001368 9160 02ce+LDS R22 , _scale1_array + ( 12 ) + 2
00136a 9170 02cf+LDS R23 , _scale1_array + ( 12 ) + 3
                 	__GETD1MN _scale1_array,12
00136c 940e 1b37 	CALL SUBOPT_0x25
00136e 940e 1d29 	CALL __ADDF12
001370 93e0 029c 	STS  _scale1_sum,R30
001372 93f0 029d 	STS  _scale1_sum+1,R31
001374 9360 029e 	STS  _scale1_sum+2,R22
001376 9370 029f 	STS  _scale1_sum+3,R23
                 ; 0000 01F6     sort_array(scale2_array,7);
001378 edec      	LDI  R30,LOW(_scale2_array)
001379 e0f2      	LDI  R31,HIGH(_scale2_array)
00137a 940e 1b28 	CALL SUBOPT_0x23
                 ; 0000 01F7     scale2_sum += scale2_array[3];
                +
00137c 91e0 02e8+LDS R30 , _scale2_array + ( 12 )
00137e 91f0 02e9+LDS R31 , _scale2_array + ( 12 ) + 1
001380 9160 02ea+LDS R22 , _scale2_array + ( 12 ) + 2
001382 9170 02eb+LDS R23 , _scale2_array + ( 12 ) + 3
                 	__GETD1MN _scale2_array,12
001384 940e 1b40 	CALL SUBOPT_0x26
001386 940e 1d29 	CALL __ADDF12
001388 93e0 02a0 	STS  _scale2_sum,R30
00138a 93f0 02a1 	STS  _scale2_sum+1,R31
00138c 9360 02a2 	STS  _scale2_sum+2,R22
00138e 9370 02a3 	STS  _scale2_sum+3,R23
                 ; 0000 01F8     }
                +
001390 5f2f     +SUBI R18 , LOW ( - 1 )
001391 4f3f     +SBCI R19 , HIGH ( - 1 )
                 	__ADDWRN 18,19,1
001392 cefb      	RJMP _0x4A
                 _0x4B:
                 ; 0000 01F9     scale = scale_sum/2;
001393 940e 1b2e 	CALL SUBOPT_0x24
001395 940e 1b49 	CALL SUBOPT_0x27
001397 93e0 028c 	STS  _scale,R30
001399 93f0 028d 	STS  _scale+1,R31
00139b 9360 028e 	STS  _scale+2,R22
00139d 9370 028f 	STS  _scale+3,R23
                 ; 0000 01FA     scale1 = scale1_sum/2;
00139f 940e 1b37 	CALL SUBOPT_0x25
0013a1 940e 1b49 	CALL SUBOPT_0x27
0013a3 93e0 0290 	STS  _scale1,R30
0013a5 93f0 0291 	STS  _scale1+1,R31
0013a7 9360 0292 	STS  _scale1+2,R22
0013a9 9370 0293 	STS  _scale1+3,R23
                 ; 0000 01FB     scale2 = scale2_sum/2;
0013ab 940e 1b40 	CALL SUBOPT_0x26
0013ad 940e 1b49 	CALL SUBOPT_0x27
0013af 93e0 0294 	STS  _scale2,R30
0013b1 93f0 0295 	STS  _scale2+1,R31
0013b3 9360 0296 	STS  _scale2+2,R22
0013b5 9370 0297 	STS  _scale2+3,R23
                 ; 0000 01FC }
0013b7 940e 1f0e 	CALL __LOADLOCR4
0013b9 9624      	ADIW R28,4
0013ba 9508      	RET
                 ; .FEND
                 ;
                 ;//get offsets :
                 ;
                 ;void get_offset(void)
                 ; 0000 0201 {
                 _get_offset:
                 ; .FSTART _get_offset
                 ; 0000 0202     int i=0;
                 ; 0000 0203 
                 ; 0000 0204     HX711_Buffer = 0;
0013bb 940e 1b50 	CALL SUBOPT_0x28
                 ;	i -> R16,R17
0013bd 940e 1a6c 	CALL SUBOPT_0xC
                 ; 0000 0205 
                 ; 0000 0206    	for( i = 0 ; i < 10 ; i++)
                +
0013bf e000     +LDI R16 , LOW ( 0 )
0013c0 e010     +LDI R17 , HIGH ( 0 )
                 	__GETWRN 16,17,0
                 _0x50:
                +
0013c1 300a     +CPI R16 , LOW ( 10 )
0013c2 e0e0     +LDI R30 , HIGH ( 10 )
0013c3 071e     +CPC R17 , R30
                 	__CPWRN 16,17,10
0013c4 f464      	BRGE _0x51
                 ; 0000 0207 	{
                 ; 0000 0208 		HX711_Buffer = HX711_Buffer + HX711_Read();
0013c5 de4b      	RCALL _HX711_Read
0013c6 940e 1a7f 	CALL SUBOPT_0xE
0013c8 940e 1e30 	CALL __ADDD12
0013ca 940e 1a76 	CALL SUBOPT_0xD
                 ; 0000 0209         delay_us(500);
0013cc 940e 1b55 	CALL SUBOPT_0x29
                 ; 0000 020A 	}
                +
0013ce 5f0f     +SUBI R16 , LOW ( - 1 )
0013cf 4f1f     +SBCI R17 , HIGH ( - 1 )
                 	__ADDWRN 16,17,1
0013d0 cff0      	RJMP _0x50
                 _0x51:
                 ; 0000 020B     HX711_Buffer = HX711_Buffer /10;
0013d1 940e 1a7f 	CALL SUBOPT_0xE
0013d3 940e 1b5a 	CALL SUBOPT_0x2A
0013d5 940e 1a76 	CALL SUBOPT_0xD
                 ; 0000 020C     Weight_Maopi = HX711_Buffer/100;
0013d7 940e 1a7f 	CALL SUBOPT_0xE
0013d9 940e 1a88 	CALL SUBOPT_0xF
0013db 93e0 0264 	STS  _Weight_Maopi,R30
0013dd 93f0 0265 	STS  _Weight_Maopi+1,R31
0013df 9360 0266 	STS  _Weight_Maopi+2,R22
0013e1 9370 0267 	STS  _Weight_Maopi+3,R23
                 ; 0000 020D }
0013e3 c051      	RJMP _0x20C000A
                 ; .FEND
                 ;void get_offset1(void)
                 ; 0000 020F {
                 _get_offset1:
                 ; .FSTART _get_offset1
                 ; 0000 0210     int i=0;
                 ; 0000 0211 
                 ; 0000 0212     HX711_Buffer1 = 0;
0013e4 940e 1b50 	CALL SUBOPT_0x28
                 ;	i -> R16,R17
0013e6 940e 1ac0 	CALL SUBOPT_0x17
                 ; 0000 0213 
                 ; 0000 0214    	for( i = 0 ; i < 10 ; i++)
                +
0013e8 e000     +LDI R16 , LOW ( 0 )
0013e9 e010     +LDI R17 , HIGH ( 0 )
                 	__GETWRN 16,17,0
                 _0x53:
                +
0013ea 300a     +CPI R16 , LOW ( 10 )
0013eb e0e0     +LDI R30 , HIGH ( 10 )
0013ec 071e     +CPC R17 , R30
                 	__CPWRN 16,17,10
0013ed f464      	BRGE _0x54
                 ; 0000 0215 	{
                 ; 0000 0216 		HX711_Buffer1 = HX711_Buffer1 + HX711_Read1();
0013ee de42      	RCALL _HX711_Read1
0013ef 940e 1ad3 	CALL SUBOPT_0x19
0013f1 940e 1e30 	CALL __ADDD12
0013f3 940e 1aca 	CALL SUBOPT_0x18
                 ; 0000 0217         delay_us(500);
0013f5 940e 1b55 	CALL SUBOPT_0x29
                 ; 0000 0218 	}
                +
0013f7 5f0f     +SUBI R16 , LOW ( - 1 )
0013f8 4f1f     +SBCI R17 , HIGH ( - 1 )
                 	__ADDWRN 16,17,1
0013f9 cff0      	RJMP _0x53
                 _0x54:
                 ; 0000 0219     HX711_Buffer1 = HX711_Buffer1 /10;
0013fa 940e 1ad3 	CALL SUBOPT_0x19
0013fc 940e 1b5a 	CALL SUBOPT_0x2A
0013fe 940e 1aca 	CALL SUBOPT_0x18
                 ; 0000 021A     Weight_Maopi1 = HX711_Buffer1/100;
001400 940e 1ad3 	CALL SUBOPT_0x19
001402 940e 1a88 	CALL SUBOPT_0xF
001404 93e0 026c 	STS  _Weight_Maopi1,R30
001406 93f0 026d 	STS  _Weight_Maopi1+1,R31
001408 9360 026e 	STS  _Weight_Maopi1+2,R22
00140a 9370 026f 	STS  _Weight_Maopi1+3,R23
                 ; 0000 021B }
00140c c028      	RJMP _0x20C000A
                 ; .FEND
                 ;void get_offset2(void)
                 ; 0000 021D {
                 _get_offset2:
                 ; .FSTART _get_offset2
                 ; 0000 021E     int i=0;
                 ; 0000 021F 
                 ; 0000 0220     HX711_Buffer2 = 0;
00140d 940e 1b50 	CALL SUBOPT_0x28
                 ;	i -> R16,R17
00140f 940e 1af4 	CALL SUBOPT_0x1D
                 ; 0000 0221 
                 ; 0000 0222    	for( i = 0 ; i < 10 ; i++)
                +
001411 e000     +LDI R16 , LOW ( 0 )
001412 e010     +LDI R17 , HIGH ( 0 )
                 	__GETWRN 16,17,0
                 _0x56:
                +
001413 300a     +CPI R16 , LOW ( 10 )
001414 e0e0     +LDI R30 , HIGH ( 10 )
001415 071e     +CPC R17 , R30
                 	__CPWRN 16,17,10
001416 f464      	BRGE _0x57
                 ; 0000 0223 	{
                 ; 0000 0224 		HX711_Buffer2 = HX711_Buffer2 + HX711_Read2();
001417 de39      	RCALL _HX711_Read2
001418 940e 1b07 	CALL SUBOPT_0x1F
00141a 940e 1e30 	CALL __ADDD12
00141c 940e 1afe 	CALL SUBOPT_0x1E
                 ; 0000 0225         delay_us(500);
00141e 940e 1b55 	CALL SUBOPT_0x29
                 ; 0000 0226 	}
                +
001420 5f0f     +SUBI R16 , LOW ( - 1 )
001421 4f1f     +SBCI R17 , HIGH ( - 1 )
                 	__ADDWRN 16,17,1
001422 cff0      	RJMP _0x56
                 _0x57:
                 ; 0000 0227     HX711_Buffer2 = HX711_Buffer2 /10;
001423 940e 1b07 	CALL SUBOPT_0x1F
001425 940e 1b5a 	CALL SUBOPT_0x2A
001427 940e 1afe 	CALL SUBOPT_0x1E
                 ; 0000 0228     Weight_Maopi2 = HX711_Buffer2/100;
001429 940e 1b07 	CALL SUBOPT_0x1F
00142b 940e 1a88 	CALL SUBOPT_0xF
00142d 93e0 0274 	STS  _Weight_Maopi2,R30
00142f 93f0 0275 	STS  _Weight_Maopi2+1,R31
001431 9360 0276 	STS  _Weight_Maopi2+2,R22
001433 9370 0277 	STS  _Weight_Maopi2+3,R23
                 ; 0000 0229 }
                 _0x20C000A:
001435 9109      	LD   R16,Y+
001436 9119      	LD   R17,Y+
001437 9508      	RET
                 ; .FEND
                 ;
                 ;void send( unsigned char Data1[4])//, unsigned char Data2[12], unsigned char Data3[12])//,unsigned char Data2[12] )
                 ; 0000 022C {
                 _send:
                 ; .FSTART _send
                 ; 0000 022D puts(Data1);
001438 93ba      	ST   -Y,R27
001439 93aa      	ST   -Y,R26
                 ;	Data1 -> Y+0
00143a 81a8      	LD   R26,Y
00143b 81b9      	LDD  R27,Y+1
00143c 940e 153d 	CALL _puts
                 ; 0000 022E /*
                 ; 0000 022F putchar(',');
                 ; 0000 0230 puts(Data2);
                 ; 0000 0231 putchar(',');
                 ; 0000 0232 puts(Data3);*/
                 ; 0000 0233 }
00143e c08c      	RJMP _0x20C0009
                 ; .FEND
                 ;
                 ;
                 ;
                 ;void sort_array(float a[], int size) {
                 ; 0000 0237 void sort_array(float a[], int size) {
                 _sort_array:
                 ; .FSTART _sort_array
                 ; 0000 0238     int i=0;
                 ; 0000 0239     int o=0;
                 ; 0000 023A     for(i=0; i<(size-1); i++) {
00143f 93ba      	ST   -Y,R27
001440 93aa      	ST   -Y,R26
001441 940e 1f07 	CALL __SAVELOCR4
                 ;	a -> Y+6
                 ;	size -> Y+4
                 ;	i -> R16,R17
                 ;	o -> R18,R19
                +
001443 e000     +LDI R16 , LOW ( 0 )
001444 e010     +LDI R17 , HIGH ( 0 )
                 	__GETWRN 16,17,0
                +
001445 e020     +LDI R18 , LOW ( 0 )
001446 e030     +LDI R19 , HIGH ( 0 )
                 	__GETWRN 18,19,0
                +
001447 e000     +LDI R16 , LOW ( 0 )
001448 e010     +LDI R17 , HIGH ( 0 )
                 	__GETWRN 16,17,0
                 _0x59:
001449 81ec      	LDD  R30,Y+4
00144a 81fd      	LDD  R31,Y+4+1
00144b 9731      	SBIW R30,1
00144c 170e      	CP   R16,R30
00144d 071f      	CPC  R17,R31
00144e f00c      	BRLT PC+2
00144f c04b      	RJMP _0x5A
                 ; 0000 023B         for(o=0; o<(size-(i+1)); o++) {
                +
001450 e020     +LDI R18 , LOW ( 0 )
001451 e030     +LDI R19 , HIGH ( 0 )
                 	__GETWRN 18,19,0
                 _0x5C:
001452 01f8      	MOVW R30,R16
001453 9631      	ADIW R30,1
001454 81ac      	LDD  R26,Y+4
001455 81bd      	LDD  R27,Y+4+1
001456 940e 1efa 	CALL __SWAPW12
001458 1bea      	SUB  R30,R26
001459 0bfb      	SBC  R31,R27
00145a 172e      	CP   R18,R30
00145b 073f      	CPC  R19,R31
00145c f5dc      	BRGE _0x5D
                 ; 0000 023C                 if(a[o] > a[o+1]) {
00145d 01f9      	MOVW R30,R18
00145e 940e 1b61 	CALL SUBOPT_0x2B
001460 937f      	PUSH R23
001461 936f      	PUSH R22
001462 93ff      	PUSH R31
001463 93ef      	PUSH R30
001464 01f9      	MOVW R30,R18
001465 9631      	ADIW R30,1
001466 940e 1b61 	CALL SUBOPT_0x2B
001468 91af      	POP  R26
001469 91bf      	POP  R27
00146a 918f      	POP  R24
00146b 919f      	POP  R25
00146c 940e 1e0c 	CALL __CMPF12
00146e f009      	BREQ PC+2
00146f f408      	BRCC PC+2
001470 c024      	RJMP _0x5E
                 ; 0000 023D                     int t = a[o];
                 ; 0000 023E                     a[o] = a[o+1];
001471 9722      	SBIW R28,2
                 ;	a -> Y+8
                 ;	size -> Y+6
                 ;	t -> Y+0
001472 01f9      	MOVW R30,R18
001473 940e 1b6a 	CALL SUBOPT_0x2C
001475 940e 1ec8 	CALL __GETW1P
001477 940e 1cb6 	CALL __CFD1U
001479 83e8      	ST   Y,R30
00147a 83f9      	STD  Y+1,R31
00147b 01f9      	MOVW R30,R18
00147c 85a8      	LDD  R26,Y+8
00147d 85b9      	LDD  R27,Y+8+1
00147e 940e 1ab4 	CALL SUBOPT_0x15
001480 010f      	MOVW R0,R30
001481 01f9      	MOVW R30,R18
001482 9631      	ADIW R30,1
001483 940e 1b6a 	CALL SUBOPT_0x2C
001485 940e 1ecc 	CALL __GETD1P
001487 01d0      	MOVW R26,R0
001488 940e 1ed2 	CALL __PUTDP1
                 ; 0000 023F                     a[o+1] = t;
00148a 01f9      	MOVW R30,R18
00148b 9631      	ADIW R30,1
00148c 940e 1b6a 	CALL SUBOPT_0x2C
00148e 81e8      	LD   R30,Y
00148f 81f9      	LDD  R31,Y+1
001490 940e 1a33 	CALL SUBOPT_0x5
001492 940e 1ed2 	CALL __PUTDP1
                 ; 0000 0240                 }
001494 9622      	ADIW R28,2
                 ; 0000 0241         }
                 _0x5E:
                +
001495 5f2f     +SUBI R18 , LOW ( - 1 )
001496 4f3f     +SBCI R19 , HIGH ( - 1 )
                 	__ADDWRN 18,19,1
001497 cfba      	RJMP _0x5C
                 _0x5D:
                 ; 0000 0242     }
                +
001498 5f0f     +SUBI R16 , LOW ( - 1 )
001499 4f1f     +SBCI R17 , HIGH ( - 1 )
                 	__ADDWRN 16,17,1
00149a cfae      	RJMP _0x59
                 _0x5A:
                 ; 0000 0243 }
00149b 940e 1f0e 	CALL __LOADLOCR4
00149d 9628      	ADIW R28,8
00149e 9508      	RET
                 ; .FEND
                 	#ifndef __SLEEP_DEFINED__
                 	#endif
                 
                 	.DSEG
                 
                 	.CSEG
                 __lcd_write_nibble_G100:
                 ; .FSTART __lcd_write_nibble_G100
00149f 93aa      	ST   -Y,R26
0014a0 b3eb      	IN   R30,0x1B
0014a1 70ef      	ANDI R30,LOW(0xF)
0014a2 2fae      	MOV  R26,R30
0014a3 81e8      	LD   R30,Y
0014a4 7fe0      	ANDI R30,LOW(0xF0)
0014a5 2bea      	OR   R30,R26
0014a6 bbeb      	OUT  0x1B,R30
                +
0014a7 e08d     +LDI R24 , LOW ( 13 )
                +__DELAY_USB_LOOP :
0014a8 958a     +DEC R24
0014a9 f7f1     +BRNE __DELAY_USB_LOOP
                 	__DELAY_USB 13
0014aa 9ada      	SBI  0x1B,2
                +
0014ab e08d     +LDI R24 , LOW ( 13 )
                +__DELAY_USB_LOOP :
0014ac 958a     +DEC R24
0014ad f7f1     +BRNE __DELAY_USB_LOOP
                 	__DELAY_USB 13
0014ae 98da      	CBI  0x1B,2
                +
0014af e08d     +LDI R24 , LOW ( 13 )
                +__DELAY_USB_LOOP :
0014b0 958a     +DEC R24
0014b1 f7f1     +BRNE __DELAY_USB_LOOP
                 	__DELAY_USB 13
0014b2 940c 153b 	JMP  _0x20C0008
                 ; .FEND
                 __lcd_write_data:
                 ; .FSTART __lcd_write_data
0014b4 93aa      	ST   -Y,R26
0014b5 81a8      	LD   R26,Y
0014b6 dfe8      	RCALL __lcd_write_nibble_G100
0014b7 81e8          ld    r30,y
0014b8 95e2          swap  r30
0014b9 83e8          st    y,r30
0014ba 81a8      	LD   R26,Y
0014bb dfe3      	RCALL __lcd_write_nibble_G100
                +
0014bc e885     +LDI R24 , LOW ( 133 )
                +__DELAY_USB_LOOP :
0014bd 958a     +DEC R24
0014be f7f1     +BRNE __DELAY_USB_LOOP
                 	__DELAY_USB 133
0014bf c07b      	RJMP _0x20C0008
                 ; .FEND
                 _lcd_gotoxy:
                 ; .FSTART _lcd_gotoxy
0014c0 93aa      	ST   -Y,R26
0014c1 81e8      	LD   R30,Y
0014c2 e0f0      	LDI  R31,0
0014c3 5ce4      	SUBI R30,LOW(-__base_y_G100)
0014c4 4ffc      	SBCI R31,HIGH(-__base_y_G100)
0014c5 81e0      	LD   R30,Z
0014c6 81a9      	LDD  R26,Y+1
0014c7 0fae      	ADD  R26,R30
0014c8 dfeb      	RCALL __lcd_write_data
0014c9 8089      	LDD  R8,Y+1
0014ca 80b8      	LDD  R11,Y+0
                 _0x20C0009:
0014cb 9622      	ADIW R28,2
0014cc 9508      	RET
                 ; .FEND
                 _lcd_clear:
                 ; .FSTART _lcd_clear
0014cd e0a2      	LDI  R26,LOW(2)
0014ce 940e 1b71 	CALL SUBOPT_0x2D
0014d0 e0ac      	LDI  R26,LOW(12)
0014d1 dfe2      	RCALL __lcd_write_data
0014d2 e0a1      	LDI  R26,LOW(1)
0014d3 940e 1b71 	CALL SUBOPT_0x2D
0014d5 e0e0      	LDI  R30,LOW(0)
0014d6 2ebe      	MOV  R11,R30
0014d7 2e8e      	MOV  R8,R30
0014d8 9508      	RET
                 ; .FEND
                 _lcd_putchar:
                 ; .FSTART _lcd_putchar
0014d9 93aa      	ST   -Y,R26
0014da 81a8      	LD   R26,Y
0014db 30aa      	CPI  R26,LOW(0xA)
0014dc f011      	BREQ _0x2000005
0014dd 148a      	CP   R8,R10
0014de f048      	BRLO _0x2000004
                 _0x2000005:
0014df e0e0      	LDI  R30,LOW(0)
0014e0 93ea      	ST   -Y,R30
0014e1 94b3      	INC  R11
0014e2 2dab      	MOV  R26,R11
0014e3 dfdc      	RCALL _lcd_gotoxy
0014e4 81a8      	LD   R26,Y
0014e5 30aa      	CPI  R26,LOW(0xA)
0014e6 f409      	BRNE _0x2000007
0014e7 c053      	RJMP _0x20C0008
                 _0x2000007:
                 _0x2000004:
0014e8 9483      	INC  R8
0014e9 9ad8      	SBI  0x1B,0
0014ea 81a8      	LD   R26,Y
0014eb dfc8      	RCALL __lcd_write_data
0014ec 98d8      	CBI  0x1B,0
0014ed c04d      	RJMP _0x20C0008
                 ; .FEND
                 _lcd_puts:
                 ; .FSTART _lcd_puts
0014ee 93ba      	ST   -Y,R27
0014ef 93aa      	ST   -Y,R26
0014f0 931a      	ST   -Y,R17
                 _0x2000008:
0014f1 940e 1b77 	CALL SUBOPT_0x2E
0014f3 f019      	BREQ _0x200000A
0014f4 2fa1      	MOV  R26,R17
0014f5 dfe3      	RCALL _lcd_putchar
0014f6 cffa      	RJMP _0x2000008
                 _0x200000A:
0014f7 c050      	RJMP _0x20C0007
                 ; .FEND
                 _lcd_putsf:
                 ; .FSTART _lcd_putsf
0014f8 93ba      	ST   -Y,R27
0014f9 93aa      	ST   -Y,R26
0014fa 931a      	ST   -Y,R17
                 _0x200000B:
0014fb 81e9      	LDD  R30,Y+1
0014fc 81fa      	LDD  R31,Y+1+1
0014fd 9631      	ADIW R30,1
0014fe 83e9      	STD  Y+1,R30
0014ff 83fa      	STD  Y+1+1,R31
001500 9731      	SBIW R30,1
001501 91e4      	LPM  R30,Z
001502 2f1e      	MOV  R17,R30
001503 30e0      	CPI  R30,0
001504 f019      	BREQ _0x200000D
001505 2fa1      	MOV  R26,R17
001506 dfd2      	RCALL _lcd_putchar
001507 cff3      	RJMP _0x200000B
                 _0x200000D:
001508 c03f      	RJMP _0x20C0007
                 ; .FEND
                 _lcd_init:
                 ; .FSTART _lcd_init
001509 93aa      	ST   -Y,R26
00150a b3ea      	IN   R30,0x1A
00150b 6fe0      	ORI  R30,LOW(0xF0)
00150c bbea      	OUT  0x1A,R30
00150d 9ad2      	SBI  0x1A,2
00150e 9ad0      	SBI  0x1A,0
00150f 9ad1      	SBI  0x1A,1
001510 98da      	CBI  0x1B,2
001511 98d8      	CBI  0x1B,0
001512 98d9      	CBI  0x1B,1
001513 80a8      	LDD  R10,Y+0
001514 81e8      	LD   R30,Y
001515 58e0      	SUBI R30,-LOW(128)
                +
001516 93e0 033e+STS __base_y_G100 + ( 2 ) , R30
                 	__PUTB1MN __base_y_G100,2
001518 81e8      	LD   R30,Y
001519 54e0      	SUBI R30,-LOW(192)
                +
00151a 93e0 033f+STS __base_y_G100 + ( 3 ) , R30
                 	__PUTB1MN __base_y_G100,3
00151c e1a4      	LDI  R26,LOW(20)
00151d e0b0      	LDI  R27,0
00151e 940e 1c79 	CALL _delay_ms
001520 940e 1b7f 	CALL SUBOPT_0x2F
001522 940e 1b7f 	CALL SUBOPT_0x2F
001524 940e 1b7f 	CALL SUBOPT_0x2F
001526 e2a0      	LDI  R26,LOW(32)
001527 df77      	RCALL __lcd_write_nibble_G100
                +
001528 ec88     +LDI R24 , LOW ( 200 )
001529 e090     +LDI R25 , HIGH ( 200 )
                +__DELAY_USW_LOOP :
00152a 9701     +SBIW R24 , 1
00152b f7f1     +BRNE __DELAY_USW_LOOP
                 	__DELAY_USW 200
00152c e2a8      	LDI  R26,LOW(40)
00152d df86      	RCALL __lcd_write_data
00152e e0a4      	LDI  R26,LOW(4)
00152f df84      	RCALL __lcd_write_data
001530 e8a5      	LDI  R26,LOW(133)
001531 df82      	RCALL __lcd_write_data
001532 e0a6      	LDI  R26,LOW(6)
001533 df80      	RCALL __lcd_write_data
001534 df98      	RCALL _lcd_clear
001535 c005      	RJMP _0x20C0008
                 ; .FEND
                 	#ifndef __SLEEP_DEFINED__
                 	#endif
                 
                 	.CSEG
                 _putchar:
                 ; .FSTART _putchar
001536 93aa      	ST   -Y,R26
                 putchar0:
001537 9b5d           sbis usr,udre
001538 cffe           rjmp putchar0
001539 81e8           ld   r30,y
00153a b9ec           out  udr,r30
                 _0x20C0008:
00153b 9621      	ADIW R28,1
00153c 9508      	RET
                 ; .FEND
                 _puts:
                 ; .FSTART _puts
00153d 93ba      	ST   -Y,R27
00153e 93aa      	ST   -Y,R26
00153f 931a      	ST   -Y,R17
                 _0x2020003:
001540 940e 1b77 	CALL SUBOPT_0x2E
001542 f019      	BREQ _0x2020005
001543 2fa1      	MOV  R26,R17
001544 dff1      	RCALL _putchar
001545 cffa      	RJMP _0x2020003
                 _0x2020005:
001546 e0aa      	LDI  R26,LOW(10)
001547 dfee      	RCALL _putchar
                 _0x20C0007:
001548 8118      	LDD  R17,Y+0
001549 9623      	ADIW R28,3
00154a 9508      	RET
                 ; .FEND
                 _put_buff_G101:
                 ; .FSTART _put_buff_G101
00154b 93ba      	ST   -Y,R27
00154c 93aa      	ST   -Y,R26
00154d 931a      	ST   -Y,R17
00154e 930a      	ST   -Y,R16
00154f 81aa      	LDD  R26,Y+2
001550 81bb      	LDD  R27,Y+2+1
001551 9612      	ADIW R26,2
001552 940e 1ec8 	CALL __GETW1P
001554 9730      	SBIW R30,0
001555 f129      	BREQ _0x2020010
001556 81aa      	LDD  R26,Y+2
001557 81bb      	LDD  R27,Y+2+1
001558 9614      	ADIW R26,4
001559 940e 1ec8 	CALL __GETW1P
00155b 018f      	MOVW R16,R30
00155c 9730      	SBIW R30,0
00155d f061      	BREQ _0x2020012
                +
00155e 3002     +CPI R16 , LOW ( 2 )
00155f e0e0     +LDI R30 , HIGH ( 2 )
001560 071e     +CPC R17 , R30
                 	__CPWRN 16,17,2
001561 f080      	BRLO _0x2020013
001562 01f8      	MOVW R30,R16
001563 9731      	SBIW R30,1
001564 018f      	MOVW R16,R30
                +
001565 81aa     +LDD R26 , Y + 2
001566 81bb     +LDD R27 , Y + 2 + 1
001567 9614     +ADIW R26 , 4
001568 93ed     +ST X + , R30
001569 93fc     +ST X , R31
                 	__PUTW1SNS 2,4
                 _0x2020012:
00156a 81aa      	LDD  R26,Y+2
00156b 81bb      	LDD  R27,Y+2+1
00156c 9612      	ADIW R26,2
00156d 940e 1b87 	CALL SUBOPT_0x30
00156f 9731      	SBIW R30,1
001570 81ac      	LDD  R26,Y+4
001571 83a0      	STD  Z+0,R26
                 _0x2020013:
001572 81aa      	LDD  R26,Y+2
001573 81bb      	LDD  R27,Y+2+1
001574 940e 1ec8 	CALL __GETW1P
001576 23ff      	TST  R31
001577 f012      	BRMI _0x2020014
001578 940e 1b87 	CALL SUBOPT_0x30
                 _0x2020014:
00157a c006      	RJMP _0x2020015
                 _0x2020010:
00157b 81aa      	LDD  R26,Y+2
00157c 81bb      	LDD  R27,Y+2+1
00157d efef      	LDI  R30,LOW(65535)
00157e efff      	LDI  R31,HIGH(65535)
00157f 93ed      	ST   X+,R30
001580 93fc      	ST   X,R31
                 _0x2020015:
001581 8119      	LDD  R17,Y+1
001582 8108      	LDD  R16,Y+0
                 _0x20C0006:
001583 9625      	ADIW R28,5
001584 9508      	RET
                 ; .FEND
                 __ftoe_G101:
                 ; .FSTART __ftoe_G101
001585 940e 1b8d 	CALL SUBOPT_0x31
001587 e8e0      	LDI  R30,LOW(128)
001588 83ea      	STD  Y+2,R30
001589 e3ef      	LDI  R30,LOW(63)
00158a 83eb      	STD  Y+3,R30
00158b 940e 1f07 	CALL __SAVELOCR4
00158d 85ee      	LDD  R30,Y+14
00158e 85ff      	LDD  R31,Y+14+1
00158f 3fef      	CPI  R30,LOW(0xFFFF)
001590 efaf      	LDI  R26,HIGH(0xFFFF)
001591 07fa      	CPC  R31,R26
001592 f449      	BRNE _0x2020019
001593 85e8      	LDD  R30,Y+8
001594 85f9      	LDD  R31,Y+8+1
001595 93fa      	ST   -Y,R31
001596 93ea      	ST   -Y,R30
                +
001597 eea6     +LDI R26 , LOW ( 2 * _0x2020000 + ( 0 ) )
001598 e2b0     +LDI R27 , HIGH ( 2 * _0x2020000 + ( 0 ) )
                 	__POINTW2FN _0x2020000,0
001599 940e 1997 	CALL _strcpyf
00159b c0b9      	RJMP _0x20C0005
                 _0x2020019:
00159c 3fef      	CPI  R30,LOW(0x7FFF)
00159d e7af      	LDI  R26,HIGH(0x7FFF)
00159e 07fa      	CPC  R31,R26
00159f f449      	BRNE _0x2020018
0015a0 85e8      	LDD  R30,Y+8
0015a1 85f9      	LDD  R31,Y+8+1
0015a2 93fa      	ST   -Y,R31
0015a3 93ea      	ST   -Y,R30
                +
0015a4 eea7     +LDI R26 , LOW ( 2 * _0x2020000 + ( 1 ) )
0015a5 e2b0     +LDI R27 , HIGH ( 2 * _0x2020000 + ( 1 ) )
                 	__POINTW2FN _0x2020000,1
0015a6 940e 1997 	CALL _strcpyf
0015a8 c0ac      	RJMP _0x20C0005
                 _0x2020018:
0015a9 85ab      	LDD  R26,Y+11
0015aa 30a7      	CPI  R26,LOW(0x7)
0015ab f010      	BRLO _0x202001B
0015ac e0e6      	LDI  R30,LOW(6)
0015ad 87eb      	STD  Y+11,R30
                 _0x202001B:
0015ae 851b      	LDD  R17,Y+11
                 _0x202001C:
0015af 2fe1      	MOV  R30,R17
0015b0 5011      	SUBI R17,1
0015b1 30e0      	CPI  R30,0
0015b2 f019      	BREQ _0x202001E
0015b3 940e 1b94 	CALL SUBOPT_0x32
0015b5 cff9      	RJMP _0x202001C
                 _0x202001E:
                +
0015b6 85ec     +LDD R30 , Y + 12
0015b7 85fd     +LDD R31 , Y + 12 + 1
0015b8 856e     +LDD R22 , Y + 12 + 2
0015b9 857f     +LDD R23 , Y + 12 + 3
                 	__GETD1S 12
0015ba 940e 1f01 	CALL __CPD10
0015bc f421      	BRNE _0x202001F
0015bd e030      	LDI  R19,LOW(0)
0015be 940e 1b94 	CALL SUBOPT_0x32
0015c0 c02f      	RJMP _0x2020020
                 _0x202001F:
0015c1 853b      	LDD  R19,Y+11
0015c2 940e 1ba3 	CALL SUBOPT_0x33
0015c4 f009      	BREQ PC+2
0015c5 f408      	BRCC PC+2
0015c6 c00b      	RJMP _0x2020021
0015c7 940e 1b94 	CALL SUBOPT_0x32
                 _0x2020022:
0015c9 940e 1ba3 	CALL SUBOPT_0x33
0015cb f028      	BRLO _0x2020024
0015cc 940e 1bae 	CALL SUBOPT_0x34
0015ce 940e 1bb3 	CALL SUBOPT_0x35
0015d0 cff8      	RJMP _0x2020022
                 _0x2020024:
0015d1 c00d      	RJMP _0x2020025
                 _0x2020021:
                 _0x2020026:
0015d2 940e 1ba3 	CALL SUBOPT_0x33
0015d4 f440      	BRSH _0x2020028
0015d5 940e 1bae 	CALL SUBOPT_0x34
0015d7 940e 1bbf 	CALL SUBOPT_0x36
0015d9 940e 1bc6 	CALL SUBOPT_0x37
0015db 5031      	SUBI R19,LOW(1)
0015dc cff5      	RJMP _0x2020026
                 _0x2020028:
0015dd 940e 1b94 	CALL SUBOPT_0x32
                 _0x2020025:
                +
0015df 85ec     +LDD R30 , Y + 12
0015e0 85fd     +LDD R31 , Y + 12 + 1
0015e1 856e     +LDD R22 , Y + 12 + 2
0015e2 857f     +LDD R23 , Y + 12 + 3
                 	__GETD1S 12
0015e3 940e 1bcb 	CALL SUBOPT_0x38
0015e5 940e 1d29 	CALL __ADDF12
0015e7 940e 1bc6 	CALL SUBOPT_0x37
0015e9 940e 1ba3 	CALL SUBOPT_0x33
0015eb f020      	BRLO _0x2020029
0015ec 940e 1bae 	CALL SUBOPT_0x34
0015ee 940e 1bb3 	CALL SUBOPT_0x35
                 _0x2020029:
                 _0x2020020:
0015f0 e010      	LDI  R17,LOW(0)
                 _0x202002A:
0015f1 85eb      	LDD  R30,Y+11
0015f2 17e1      	CP   R30,R17
0015f3 f1a8      	BRLO _0x202002C
                +
0015f4 81ac     +LDD R26 , Y + 4
0015f5 81bd     +LDD R27 , Y + 4 + 1
0015f6 818e     +LDD R24 , Y + 4 + 2
0015f7 819f     +LDD R25 , Y + 4 + 3
                 	__GETD2S 4
0015f8 940e 1bd0 	CALL SUBOPT_0x39
0015fa 940e 1bcb 	CALL SUBOPT_0x38
0015fc 940e 1a2e 	CALL SUBOPT_0x4
0015fe 940e 19ee 	CALL _floor
                +
001600 83ec     +STD Y + 4 , R30
001601 83fd     +STD Y + 4 + 1 , R31
001602 836e     +STD Y + 4 + 2 , R22
001603 837f     +STD Y + 4 + 3 , R23
                 	__PUTD1S 4
001604 940e 1bae 	CALL SUBOPT_0x34
001606 940e 1dc7 	CALL __DIVF21
001608 940e 1cb6 	CALL __CFD1U
00160a 2f0e      	MOV  R16,R30
00160b 940e 1bd7 	CALL SUBOPT_0x3A
00160d 940e 1bde 	CALL SUBOPT_0x3B
00160f 27ff      	CLR  R31
001610 2766      	CLR  R22
001611 2777      	CLR  R23
001612 940e 1cef 	CALL __CDF1
                +
001614 81ac     +LDD R26 , Y + 4
001615 81bd     +LDD R27 , Y + 4 + 1
001616 818e     +LDD R24 , Y + 4 + 2
001617 819f     +LDD R25 , Y + 4 + 3
                 	__GETD2S 4
001618 940e 1d79 	CALL __MULF12
00161a 940e 1bae 	CALL SUBOPT_0x34
00161c 940e 1be3 	CALL SUBOPT_0x3C
00161e 940e 1bc6 	CALL SUBOPT_0x37
001620 2fe1      	MOV  R30,R17
001621 5f1f      	SUBI R17,-1
001622 30e0      	CPI  R30,0
001623 f669      	BRNE _0x202002A
001624 940e 1bd7 	CALL SUBOPT_0x3A
001626 e2ee      	LDI  R30,LOW(46)
001627 93ec      	ST   X,R30
001628 cfc8      	RJMP _0x202002A
                 _0x202002C:
001629 940e 1be8 	CALL SUBOPT_0x3D
00162b 9731      	SBIW R30,1
00162c 85aa      	LDD  R26,Y+10
00162d 83a0      	STD  Z+0,R26
00162e 3030      	CPI  R19,0
00162f f42c      	BRGE _0x202002E
001630 9531      	NEG  R19
001631 85a8      	LDD  R26,Y+8
001632 85b9      	LDD  R27,Y+8+1
001633 e2ed      	LDI  R30,LOW(45)
001634 c003      	RJMP _0x2020113
                 _0x202002E:
001635 85a8      	LDD  R26,Y+8
001636 85b9      	LDD  R27,Y+8+1
001637 e2eb      	LDI  R30,LOW(43)
                 _0x2020113:
001638 93ec      	ST   X,R30
001639 940e 1be8 	CALL SUBOPT_0x3D
00163b 940e 1be8 	CALL SUBOPT_0x3D
00163d 9731      	SBIW R30,1
00163e 01bf      	MOVW R22,R30
00163f 2fa3      	MOV  R26,R19
001640 e0ea      	LDI  R30,LOW(10)
001641 940e 1e6a 	CALL __DIVB21
001643 5de0      	SUBI R30,-LOW(48)
001644 01db      	MOVW R26,R22
001645 93ec      	ST   X,R30
001646 940e 1be8 	CALL SUBOPT_0x3D
001648 9731      	SBIW R30,1
001649 01bf      	MOVW R22,R30
00164a 2fa3      	MOV  R26,R19
00164b e0ea      	LDI  R30,LOW(10)
00164c 940e 1e99 	CALL __MODB21
00164e 5de0      	SUBI R30,-LOW(48)
00164f 01db      	MOVW R26,R22
001650 93ec      	ST   X,R30
001651 85a8      	LDD  R26,Y+8
001652 85b9      	LDD  R27,Y+8+1
001653 e0e0      	LDI  R30,LOW(0)
001654 93ec      	ST   X,R30
                 _0x20C0005:
001655 940e 1f0e 	CALL __LOADLOCR4
001657 9660      	ADIW R28,16
001658 9508      	RET
                 ; .FEND
                 __print_G101:
                 ; .FSTART __print_G101
001659 93ba      	ST   -Y,R27
00165a 93aa      	ST   -Y,R26
00165b 97ef      	SBIW R28,63
00165c 9761      	SBIW R28,17
00165d 940e 1f05 	CALL __SAVELOCR6
00165f e010      	LDI  R17,0
                +
001660 01fe     +MOVW R30 , R28
001661 5ae8     +SUBI R30 , LOW ( - 88 )
001662 4fff     +SBCI R31 , HIGH ( - 88 )
001663 9001     +LD R0 , Z +
001664 81f0     +LD R31 , Z
001665 2de0     +MOV R30 , R0
                 	__GETW1SX 88
001666 87e8      	STD  Y+8,R30
001667 87f9      	STD  Y+8+1,R31
                +
001668 01fe     +MOVW R30 , R28
001669 5aea     +SUBI R30 , LOW ( - 86 )
00166a 4fff     +SBCI R31 , HIGH ( - 86 )
00166b 9001     +LD R0 , Z +
00166c 81f0     +LD R31 , Z
00166d 2de0     +MOV R30 , R0
                 	__GETW1SX 86
00166e 83ee      	STD  Y+6,R30
00166f 83ff      	STD  Y+6+1,R31
001670 81ae      	LDD  R26,Y+6
001671 81bf      	LDD  R27,Y+6+1
001672 e0e0      	LDI  R30,LOW(0)
001673 e0f0      	LDI  R31,HIGH(0)
001674 93ed      	ST   X+,R30
001675 93fc      	ST   X,R31
                 _0x2020030:
001676 01de      	MOVW R26,R28
001677 5aa4      	SUBI R26,LOW(-(92))
001678 4fbf      	SBCI R27,HIGH(-(92))
001679 940e 1b87 	CALL SUBOPT_0x30
00167b 9731      	SBIW R30,1
00167c 91e4      	LPM  R30,Z
00167d 2f2e      	MOV  R18,R30
00167e 30e0      	CPI  R30,0
00167f f409      	BRNE PC+2
001680 c1e9      	RJMP _0x2020032
001681 2fe1      	MOV  R30,R17
001682 30e0      	CPI  R30,0
001683 f439      	BRNE _0x2020036
001684 3225      	CPI  R18,37
001685 f411      	BRNE _0x2020037
001686 e011      	LDI  R17,LOW(1)
001687 c002      	RJMP _0x2020038
                 _0x2020037:
001688 940e 1bee 	CALL SUBOPT_0x3E
                 _0x2020038:
00168a c1de      	RJMP _0x2020035
                 _0x2020036:
00168b 30e1      	CPI  R30,LOW(0x1)
00168c f4c1      	BRNE _0x2020039
00168d 3225      	CPI  R18,37
00168e f419      	BRNE _0x202003A
00168f 940e 1bee 	CALL SUBOPT_0x3E
001691 c1d6      	RJMP _0x2020114
                 _0x202003A:
001692 e012      	LDI  R17,LOW(2)
001693 e0e0      	LDI  R30,LOW(0)
001694 8bed      	STD  Y+21,R30
001695 e000      	LDI  R16,LOW(0)
001696 322d      	CPI  R18,45
001697 f411      	BRNE _0x202003B
001698 e001      	LDI  R16,LOW(1)
001699 c1cf      	RJMP _0x2020035
                 _0x202003B:
00169a 322b      	CPI  R18,43
00169b f419      	BRNE _0x202003C
00169c e2eb      	LDI  R30,LOW(43)
00169d 8bed      	STD  Y+21,R30
00169e c1ca      	RJMP _0x2020035
                 _0x202003C:
00169f 3220      	CPI  R18,32
0016a0 f419      	BRNE _0x202003D
0016a1 e2e0      	LDI  R30,LOW(32)
0016a2 8bed      	STD  Y+21,R30
0016a3 c1c5      	RJMP _0x2020035
                 _0x202003D:
0016a4 c002      	RJMP _0x202003E
                 _0x2020039:
0016a5 30e2      	CPI  R30,LOW(0x2)
0016a6 f439      	BRNE _0x202003F
                 _0x202003E:
0016a7 e050      	LDI  R21,LOW(0)
0016a8 e013      	LDI  R17,LOW(3)
0016a9 3320      	CPI  R18,48
0016aa f411      	BRNE _0x2020040
0016ab 6800      	ORI  R16,LOW(128)
0016ac c1bc      	RJMP _0x2020035
                 _0x2020040:
0016ad c002      	RJMP _0x2020041
                 _0x202003F:
0016ae 30e3      	CPI  R30,LOW(0x3)
0016af f491      	BRNE _0x2020042
                 _0x2020041:
0016b0 3320      	CPI  R18,48
0016b1 f010      	BRLO _0x2020044
0016b2 332a      	CPI  R18,58
0016b3 f008      	BRLO _0x2020045
                 _0x2020044:
0016b4 c007      	RJMP _0x2020043
                 _0x2020045:
0016b5 e0aa      	LDI  R26,LOW(10)
0016b6 9f5a      	MUL  R21,R26
0016b7 2d50      	MOV  R21,R0
0016b8 2fe2      	MOV  R30,R18
0016b9 53e0      	SUBI R30,LOW(48)
0016ba 0f5e      	ADD  R21,R30
0016bb c1ad      	RJMP _0x2020035
                 _0x2020043:
0016bc e040      	LDI  R20,LOW(0)
0016bd 322e      	CPI  R18,46
0016be f411      	BRNE _0x2020046
0016bf e014      	LDI  R17,LOW(4)
0016c0 c1a8      	RJMP _0x2020035
                 _0x2020046:
0016c1 c00f      	RJMP _0x2020047
                 _0x2020042:
0016c2 30e4      	CPI  R30,LOW(0x4)
0016c3 f499      	BRNE _0x2020049
0016c4 3320      	CPI  R18,48
0016c5 f010      	BRLO _0x202004B
0016c6 332a      	CPI  R18,58
0016c7 f008      	BRLO _0x202004C
                 _0x202004B:
0016c8 c008      	RJMP _0x202004A
                 _0x202004C:
0016c9 6200      	ORI  R16,LOW(32)
0016ca e0aa      	LDI  R26,LOW(10)
0016cb 9f4a      	MUL  R20,R26
0016cc 2d40      	MOV  R20,R0
0016cd 2fe2      	MOV  R30,R18
0016ce 53e0      	SUBI R30,LOW(48)
0016cf 0f4e      	ADD  R20,R30
0016d0 c198      	RJMP _0x2020035
                 _0x202004A:
                 _0x2020047:
0016d1 362c      	CPI  R18,108
0016d2 f419      	BRNE _0x202004D
0016d3 6002      	ORI  R16,LOW(2)
0016d4 e015      	LDI  R17,LOW(5)
0016d5 c193      	RJMP _0x2020035
                 _0x202004D:
0016d6 c003      	RJMP _0x202004E
                 _0x2020049:
0016d7 30e5      	CPI  R30,LOW(0x5)
0016d8 f009      	BREQ PC+2
0016d9 c18f      	RJMP _0x2020035
                 _0x202004E:
0016da 2fe2      	MOV  R30,R18
0016db 36e3      	CPI  R30,LOW(0x63)
0016dc f459      	BRNE _0x2020053
0016dd 940e 1bf5 	CALL SUBOPT_0x3F
0016df 940e 1bfc 	CALL SUBOPT_0x40
0016e1 940e 1bf5 	CALL SUBOPT_0x3F
0016e3 81a4      	LDD  R26,Z+4
0016e4 93aa      	ST   -Y,R26
0016e5 940e 1c03 	CALL SUBOPT_0x41
0016e7 c180      	RJMP _0x2020054
                 _0x2020053:
0016e8 34e5      	CPI  R30,LOW(0x45)
0016e9 f011      	BREQ _0x2020057
0016ea 36e5      	CPI  R30,LOW(0x65)
0016eb f409      	BRNE _0x2020058
                 _0x2020057:
0016ec c003      	RJMP _0x2020059
                 _0x2020058:
0016ed 36e6      	CPI  R30,LOW(0x66)
0016ee f009      	BREQ PC+2
0016ef c048      	RJMP _0x202005A
                 _0x2020059:
0016f0 01fe      	MOVW R30,R28
0016f1 9676      	ADIW R30,22
0016f2 87ee      	STD  Y+14,R30
0016f3 87ff      	STD  Y+14+1,R31
0016f4 940e 1c09 	CALL SUBOPT_0x42
0016f6 940e 1ecc 	CALL __GETD1P
0016f8 940e 1c10 	CALL SUBOPT_0x43
0016fa 940e 1c15 	CALL SUBOPT_0x44
0016fc 85ad      	LDD  R26,Y+13
0016fd 23aa      	TST  R26
0016fe f032      	BRMI _0x202005B
0016ff 89ad      	LDD  R26,Y+21
001700 32ab      	CPI  R26,LOW(0x2B)
001701 f059      	BREQ _0x202005D
001702 32a0      	CPI  R26,LOW(0x20)
001703 f081      	BREQ _0x202005F
001704 c017      	RJMP _0x2020060
                 _0x202005B:
001705 940e 1c17 	CALL SUBOPT_0x45
001707 940e 1c83 	CALL __ANEGF1
001709 940e 1c10 	CALL SUBOPT_0x43
00170b e2ed      	LDI  R30,LOW(45)
00170c 8bed      	STD  Y+21,R30
                 _0x202005D:
00170d ff07      	SBRS R16,7
00170e c005      	RJMP _0x2020061
00170f 89ed      	LDD  R30,Y+21
001710 93ea      	ST   -Y,R30
001711 940e 1c03 	CALL SUBOPT_0x41
001713 c008      	RJMP _0x2020062
                 _0x2020061:
                 _0x202005F:
001714 85ee      	LDD  R30,Y+14
001715 85ff      	LDD  R31,Y+14+1
001716 9631      	ADIW R30,1
001717 87ee      	STD  Y+14,R30
001718 87ff      	STD  Y+14+1,R31
001719 9731      	SBIW R30,1
00171a 89ad      	LDD  R26,Y+21
00171b 83a0      	STD  Z+0,R26
                 _0x2020062:
                 _0x2020060:
00171c ff05      	SBRS R16,5
00171d e046      	LDI  R20,LOW(6)
00171e 3626      	CPI  R18,102
00171f f451      	BRNE _0x2020064
001720 940e 1c17 	CALL SUBOPT_0x45
001722 940e 1eea 	CALL __PUTPARD1
001724 934a      	ST   -Y,R20
001725 89ab      	LDD  R26,Y+19
001726 89bc      	LDD  R27,Y+19+1
001727 940e 18d5 	CALL _ftoa
001729 c009      	RJMP _0x2020065
                 _0x2020064:
00172a 940e 1c17 	CALL SUBOPT_0x45
00172c 940e 1eea 	CALL __PUTPARD1
00172e 934a      	ST   -Y,R20
00172f 932a      	ST   -Y,R18
001730 89ac      	LDD  R26,Y+20
001731 89bd      	LDD  R27,Y+20+1
001732 de52      	RCALL __ftoe_G101
                 _0x2020065:
001733 01fe      	MOVW R30,R28
001734 9676      	ADIW R30,22
001735 940e 1c1c 	CALL SUBOPT_0x46
001737 c01e      	RJMP _0x2020066
                 _0x202005A:
001738 37e3      	CPI  R30,LOW(0x73)
001739 f439      	BRNE _0x2020068
00173a 940e 1c15 	CALL SUBOPT_0x44
00173c 940e 1c24 	CALL SUBOPT_0x47
00173e 940e 1c1c 	CALL SUBOPT_0x46
001740 c00e      	RJMP _0x2020069
                 _0x2020068:
001741 37e0      	CPI  R30,LOW(0x70)
001742 f4c1      	BRNE _0x202006B
001743 940e 1c15 	CALL SUBOPT_0x44
001745 940e 1c24 	CALL SUBOPT_0x47
001747 87ee      	STD  Y+14,R30
001748 87ff      	STD  Y+14+1,R31
001749 85ae      	LDD  R26,Y+14
00174a 85bf      	LDD  R27,Y+14+1
00174b 940e 19b0 	CALL _strlenf
00174d 2f1e      	MOV  R17,R30
00174e 6008      	ORI  R16,LOW(8)
                 _0x2020069:
00174f 770f      	ANDI R16,LOW(127)
001750 3040      	CPI  R20,0
001751 f011      	BREQ _0x202006D
001752 1741      	CP   R20,R17
001753 f008      	BRLO _0x202006E
                 _0x202006D:
001754 c001      	RJMP _0x202006C
                 _0x202006E:
001755 2f14      	MOV  R17,R20
                 _0x202006C:
                 _0x2020066:
001756 e040      	LDI  R20,LOW(0)
001757 e0e0      	LDI  R30,LOW(0)
001758 8bec      	STD  Y+20,R30
001759 e030      	LDI  R19,LOW(0)
00175a c06d      	RJMP _0x202006F
                 _0x202006B:
00175b 36e4      	CPI  R30,LOW(0x64)
00175c f011      	BREQ _0x2020072
00175d 36e9      	CPI  R30,LOW(0x69)
00175e f411      	BRNE _0x2020073
                 _0x2020072:
00175f 6004      	ORI  R16,LOW(4)
001760 c002      	RJMP _0x2020074
                 _0x2020073:
001761 37e5      	CPI  R30,LOW(0x75)
001762 f4a1      	BRNE _0x2020075
                 _0x2020074:
001763 e0ea      	LDI  R30,LOW(10)
001764 8bec      	STD  Y+20,R30
001765 ff01      	SBRS R16,1
001766 c008      	RJMP _0x2020076
                +
001767 e0e0     +LDI R30 , LOW ( 0x3B9ACA00 )
001768 ecfa     +LDI R31 , HIGH ( 0x3B9ACA00 )
001769 e96a     +LDI R22 , BYTE3 ( 0x3B9ACA00 )
00176a e37b     +LDI R23 , BYTE4 ( 0x3B9ACA00 )
                 	__GETD1N 0x3B9ACA00
00176b 940e 1c29 	CALL SUBOPT_0x48
00176d e01a      	LDI  R17,LOW(10)
00176e c022      	RJMP _0x2020077
                 _0x2020076:
                +
00176f e1e0     +LDI R30 , LOW ( 0x2710 )
001770 e2f7     +LDI R31 , HIGH ( 0x2710 )
001771 e060     +LDI R22 , BYTE3 ( 0x2710 )
001772 e070     +LDI R23 , BYTE4 ( 0x2710 )
                 	__GETD1N 0x2710
001773 940e 1c29 	CALL SUBOPT_0x48
001775 e015      	LDI  R17,LOW(5)
001776 c01a      	RJMP _0x2020077
                 _0x2020075:
001777 35e8      	CPI  R30,LOW(0x58)
001778 f411      	BRNE _0x2020079
001779 6008      	ORI  R16,LOW(8)
00177a c003      	RJMP _0x202007A
                 _0x2020079:
00177b 37e8      	CPI  R30,LOW(0x78)
00177c f009      	BREQ PC+2
00177d c0ea      	RJMP _0x20200B8
                 _0x202007A:
00177e e1e0      	LDI  R30,LOW(16)
00177f 8bec      	STD  Y+20,R30
001780 ff01      	SBRS R16,1
001781 c008      	RJMP _0x202007C
                +
001782 e0e0     +LDI R30 , LOW ( 0x10000000 )
001783 e0f0     +LDI R31 , HIGH ( 0x10000000 )
001784 e060     +LDI R22 , BYTE3 ( 0x10000000 )
001785 e170     +LDI R23 , BYTE4 ( 0x10000000 )
                 	__GETD1N 0x10000000
001786 940e 1c29 	CALL SUBOPT_0x48
001788 e018      	LDI  R17,LOW(8)
001789 c007      	RJMP _0x2020077
                 _0x202007C:
                +
00178a e0e0     +LDI R30 , LOW ( 0x1000 )
00178b e1f0     +LDI R31 , HIGH ( 0x1000 )
00178c e060     +LDI R22 , BYTE3 ( 0x1000 )
00178d e070     +LDI R23 , BYTE4 ( 0x1000 )
                 	__GETD1N 0x1000
00178e 940e 1c29 	CALL SUBOPT_0x48
001790 e014      	LDI  R17,LOW(4)
                 _0x2020077:
001791 3040      	CPI  R20,0
001792 f011      	BREQ _0x202007D
001793 770f      	ANDI R16,LOW(127)
001794 c001      	RJMP _0x202007E
                 _0x202007D:
001795 e041      	LDI  R20,LOW(1)
                 _0x202007E:
001796 ff01      	SBRS R16,1
001797 c008      	RJMP _0x202007F
001798 940e 1c15 	CALL SUBOPT_0x44
00179a 940e 1c09 	CALL SUBOPT_0x42
00179c 9614      	ADIW R26,4
00179d 940e 1ecc 	CALL __GETD1P
00179f c00f      	RJMP _0x2020115
                 _0x202007F:
0017a0 ff02      	SBRS R16,2
0017a1 c007      	RJMP _0x2020081
0017a2 940e 1c15 	CALL SUBOPT_0x44
0017a4 940e 1c24 	CALL SUBOPT_0x47
0017a6 940e 1e57 	CALL __CWD1
0017a8 c006      	RJMP _0x2020115
                 _0x2020081:
0017a9 940e 1c15 	CALL SUBOPT_0x44
0017ab 940e 1c24 	CALL SUBOPT_0x47
0017ad 2766      	CLR  R22
0017ae 2777      	CLR  R23
                 _0x2020115:
                +
0017af 87ea     +STD Y + 10 , R30
0017b0 87fb     +STD Y + 10 + 1 , R31
0017b1 876c     +STD Y + 10 + 2 , R22
0017b2 877d     +STD Y + 10 + 3 , R23
                 	__PUTD1S 10
0017b3 ff02      	SBRS R16,2
0017b4 c012      	RJMP _0x2020083
0017b5 85ad      	LDD  R26,Y+13
0017b6 23aa      	TST  R26
0017b7 f442      	BRPL _0x2020084
0017b8 940e 1c17 	CALL SUBOPT_0x45
0017ba 940e 1e3f 	CALL __ANEGD1
0017bc 940e 1c10 	CALL SUBOPT_0x43
0017be e2ed      	LDI  R30,LOW(45)
0017bf 8bed      	STD  Y+21,R30
                 _0x2020084:
0017c0 89ed      	LDD  R30,Y+21
0017c1 30e0      	CPI  R30,0
0017c2 f019      	BREQ _0x2020085
0017c3 5f1f      	SUBI R17,-LOW(1)
0017c4 5f4f      	SUBI R20,-LOW(1)
0017c5 c001      	RJMP _0x2020086
                 _0x2020085:
0017c6 7f0b      	ANDI R16,LOW(251)
                 _0x2020086:
                 _0x2020083:
0017c7 2f34      	MOV  R19,R20
                 _0x202006F:
0017c8 fd00      	SBRC R16,0
0017c9 c014      	RJMP _0x2020087
                 _0x2020088:
0017ca 1715      	CP   R17,R21
0017cb f410      	BRSH _0x202008B
0017cc 1735      	CP   R19,R21
0017cd f008      	BRLO _0x202008C
                 _0x202008B:
0017ce c00f      	RJMP _0x202008A
                 _0x202008C:
0017cf ff07      	SBRS R16,7
0017d0 c008      	RJMP _0x202008D
0017d1 ff02      	SBRS R16,2
0017d2 c004      	RJMP _0x202008E
0017d3 7f0b      	ANDI R16,LOW(251)
0017d4 892d      	LDD  R18,Y+21
0017d5 5011      	SUBI R17,LOW(1)
0017d6 c001      	RJMP _0x202008F
                 _0x202008E:
0017d7 e320      	LDI  R18,LOW(48)
                 _0x202008F:
0017d8 c001      	RJMP _0x2020090
                 _0x202008D:
0017d9 e220      	LDI  R18,LOW(32)
                 _0x2020090:
0017da 940e 1bee 	CALL SUBOPT_0x3E
0017dc 5051      	SUBI R21,LOW(1)
0017dd cfec      	RJMP _0x2020088
                 _0x202008A:
                 _0x2020087:
                 _0x2020091:
0017de 1714      	CP   R17,R20
0017df f490      	BRSH _0x2020093
0017e0 6100      	ORI  R16,LOW(16)
0017e1 ff02      	SBRS R16,2
0017e2 c006      	RJMP _0x2020094
0017e3 940e 1c2e 	CALL SUBOPT_0x49
0017e5 f009      	BREQ _0x2020095
0017e6 5051      	SUBI R21,LOW(1)
                 _0x2020095:
0017e7 5011      	SUBI R17,LOW(1)
0017e8 5041      	SUBI R20,LOW(1)
                 _0x2020094:
0017e9 e3e0      	LDI  R30,LOW(48)
0017ea 93ea      	ST   -Y,R30
0017eb 940e 1c03 	CALL SUBOPT_0x41
0017ed 3050      	CPI  R21,0
0017ee f009      	BREQ _0x2020096
0017ef 5051      	SUBI R21,LOW(1)
                 _0x2020096:
0017f0 5041      	SUBI R20,LOW(1)
0017f1 cfec      	RJMP _0x2020091
                 _0x2020093:
0017f2 2f31      	MOV  R19,R17
0017f3 89ec      	LDD  R30,Y+20
0017f4 30e0      	CPI  R30,0
0017f5 f4b9      	BRNE _0x2020097
                 _0x2020098:
0017f6 3030      	CPI  R19,0
0017f7 f0a1      	BREQ _0x202009A
0017f8 ff03      	SBRS R16,3
0017f9 c006      	RJMP _0x202009B
0017fa 85ee      	LDD  R30,Y+14
0017fb 85ff      	LDD  R31,Y+14+1
0017fc 9125      	LPM  R18,Z+
0017fd 87ee      	STD  Y+14,R30
0017fe 87ff      	STD  Y+14+1,R31
0017ff c005      	RJMP _0x202009C
                 _0x202009B:
001800 85ae      	LDD  R26,Y+14
001801 85bf      	LDD  R27,Y+14+1
001802 912d      	LD   R18,X+
001803 87ae      	STD  Y+14,R26
001804 87bf      	STD  Y+14+1,R27
                 _0x202009C:
001805 940e 1bee 	CALL SUBOPT_0x3E
001807 3050      	CPI  R21,0
001808 f009      	BREQ _0x202009D
001809 5051      	SUBI R21,LOW(1)
                 _0x202009D:
00180a 5031      	SUBI R19,LOW(1)
00180b cfea      	RJMP _0x2020098
                 _0x202009A:
00180c c051      	RJMP _0x202009E
                 _0x2020097:
                 _0x20200A0:
00180d 940e 1c40 	CALL SUBOPT_0x4A
00180f 940e 1e6f 	CALL __DIVD21U
001811 2f2e      	MOV  R18,R30
001812 302a      	CPI  R18,10
001813 f030      	BRLO _0x20200A2
001814 ff03      	SBRS R16,3
001815 c002      	RJMP _0x20200A3
001816 5c29      	SUBI R18,-LOW(55)
001817 c001      	RJMP _0x20200A4
                 _0x20200A3:
001818 5a29      	SUBI R18,-LOW(87)
                 _0x20200A4:
001819 c001      	RJMP _0x20200A5
                 _0x20200A2:
00181a 5d20      	SUBI R18,-LOW(48)
                 _0x20200A5:
00181b fd04      	SBRC R16,4
00181c c021      	RJMP _0x20200A7
00181d 3321      	CPI  R18,49
00181e f460      	BRSH _0x20200A9
                +
00181f 89a8     +LDD R26 , Y + 16
001820 89b9     +LDD R27 , Y + 16 + 1
001821 898a     +LDD R24 , Y + 16 + 2
001822 899b     +LDD R25 , Y + 16 + 3
                 	__GETD2S 16
                +
001823 30a1     +CPI R26 , LOW ( 0x1 )
001824 e0e0     +LDI R30 , HIGH ( 0x1 )
001825 07be     +CPC R27 , R30
001826 e0e0     +LDI R30 , BYTE3 ( 0x1 )
001827 078e     +CPC R24 , R30
001828 e0e0     +LDI R30 , BYTE4 ( 0x1 )
001829 079e     +CPC R25 , R30
                 	__CPD2N 0x1
00182a f409      	BRNE _0x20200A8
                 _0x20200A9:
00182b c00b      	RJMP _0x20200AB
                 _0x20200A8:
00182c 1743      	CP   R20,R19
00182d f440      	BRSH _0x2020116
00182e 1753      	CP   R21,R19
00182f f010      	BRLO _0x20200AE
001830 ff00      	SBRS R16,0
001831 c001      	RJMP _0x20200AF
                 _0x20200AE:
001832 c010      	RJMP _0x20200AD
                 _0x20200AF:
001833 e220      	LDI  R18,LOW(32)
001834 ff07      	SBRS R16,7
001835 c008      	RJMP _0x20200B0
                 _0x2020116:
001836 e320      	LDI  R18,LOW(48)
                 _0x20200AB:
001837 6100      	ORI  R16,LOW(16)
001838 ff02      	SBRS R16,2
001839 c004      	RJMP _0x20200B1
00183a 940e 1c2e 	CALL SUBOPT_0x49
00183c f009      	BREQ _0x20200B2
00183d 5051      	SUBI R21,LOW(1)
                 _0x20200B2:
                 _0x20200B1:
                 _0x20200B0:
                 _0x20200A7:
00183e 940e 1bee 	CALL SUBOPT_0x3E
001840 3050      	CPI  R21,0
001841 f009      	BREQ _0x20200B3
001842 5051      	SUBI R21,LOW(1)
                 _0x20200B3:
                 _0x20200AD:
001843 5031      	SUBI R19,LOW(1)
001844 940e 1c40 	CALL SUBOPT_0x4A
001846 940e 1ea5 	CALL __MODD21U
001848 940e 1c10 	CALL SUBOPT_0x43
00184a 89ec      	LDD  R30,Y+20
                +
00184b 89a8     +LDD R26 , Y + 16
00184c 89b9     +LDD R27 , Y + 16 + 1
00184d 898a     +LDD R24 , Y + 16 + 2
00184e 899b     +LDD R25 , Y + 16 + 3
                 	__GETD2S 16
00184f 27ff      	CLR  R31
001850 2766      	CLR  R22
001851 2777      	CLR  R23
001852 940e 1e6f 	CALL __DIVD21U
001854 940e 1c29 	CALL SUBOPT_0x48
                +
001856 89e8     +LDD R30 , Y + 16
001857 89f9     +LDD R31 , Y + 16 + 1
001858 896a     +LDD R22 , Y + 16 + 2
001859 897b     +LDD R23 , Y + 16 + 3
                 	__GETD1S 16
00185a 940e 1f01 	CALL __CPD10
00185c f009      	BREQ _0x20200A1
00185d cfaf      	RJMP _0x20200A0
                 _0x20200A1:
                 _0x202009E:
00185e ff00      	SBRS R16,0
00185f c008      	RJMP _0x20200B4
                 _0x20200B5:
001860 3050      	CPI  R21,0
001861 f031      	BREQ _0x20200B7
001862 5051      	SUBI R21,LOW(1)
001863 e2e0      	LDI  R30,LOW(32)
001864 93ea      	ST   -Y,R30
001865 940e 1c03 	CALL SUBOPT_0x41
001867 cff8      	RJMP _0x20200B5
                 _0x20200B7:
                 _0x20200B4:
                 _0x20200B8:
                 _0x2020054:
                 _0x2020114:
001868 e010      	LDI  R17,LOW(0)
                 _0x2020035:
001869 ce0c      	RJMP _0x2020030
                 _0x2020032:
00186a 81ae      	LDD  R26,Y+6
00186b 81bf      	LDD  R27,Y+6+1
00186c 940e 1ec8 	CALL __GETW1P
00186e 940e 1f0c 	CALL __LOADLOCR6
001870 96ef      	ADIW R28,63
001871 966f      	ADIW R28,31
001872 9508      	RET
                 ; .FEND
                 _sprintf:
                 ; .FSTART _sprintf
001873 92ff      	PUSH R15
001874 2ef8      	MOV  R15,R24
001875 9726      	SBIW R28,6
001876 940e 1f07 	CALL __SAVELOCR4
001878 940e 1c49 	CALL SUBOPT_0x4B
00187a 9730      	SBIW R30,0
00187b f419      	BRNE _0x20200B9
00187c efef      	LDI  R30,LOW(65535)
00187d efff      	LDI  R31,HIGH(65535)
00187e c023      	RJMP _0x20C0004
                 _0x20200B9:
00187f 01de      	MOVW R26,R28
001880 9616      	ADIW R26,6
001881 940e 1e2c 	CALL __ADDW2R15
001883 018d      	MOVW R16,R26
001884 940e 1c49 	CALL SUBOPT_0x4B
001886 83ee      	STD  Y+6,R30
001887 83ff      	STD  Y+6+1,R31
001888 e0e0      	LDI  R30,LOW(0)
001889 87e8      	STD  Y+8,R30
00188a 87e9      	STD  Y+8+1,R30
00188b 01de      	MOVW R26,R28
00188c 961a      	ADIW R26,10
00188d 940e 1e2c 	CALL __ADDW2R15
00188f 940e 1ec8 	CALL __GETW1P
001891 93fa      	ST   -Y,R31
001892 93ea      	ST   -Y,R30
001893 931a      	ST   -Y,R17
001894 930a      	ST   -Y,R16
001895 e4eb      	LDI  R30,LOW(_put_buff_G101)
001896 e1f5      	LDI  R31,HIGH(_put_buff_G101)
001897 93fa      	ST   -Y,R31
001898 93ea      	ST   -Y,R30
001899 01de      	MOVW R26,R28
00189a 961a      	ADIW R26,10
00189b ddbd      	RCALL __print_G101
00189c 019f      	MOVW R18,R30
00189d 81ae      	LDD  R26,Y+6
00189e 81bf      	LDD  R27,Y+6+1
00189f e0e0      	LDI  R30,LOW(0)
0018a0 93ec      	ST   X,R30
0018a1 01f9      	MOVW R30,R18
                 _0x20C0004:
0018a2 940e 1f0e 	CALL __LOADLOCR4
0018a4 962a      	ADIW R28,10
0018a5 90ff      	POP  R15
0018a6 9508      	RET
                 ; .FEND
                 
                 	.CSEG
                 _itoa:
                 ; .FSTART _itoa
0018a7 93ba      	ST   -Y,R27
0018a8 93aa      	ST   -Y,R26
0018a9 91a9          ld   r26,y+
0018aa 91b9          ld   r27,y+
0018ab 91e9          ld   r30,y+
0018ac 91f9          ld   r31,y+
0018ad 9630          adiw r30,0
0018ae f42a          brpl __itoa0
0018af 95e0          com  r30
0018b0 95f0          com  r31
0018b1 9631          adiw r30,1
0018b2 e26d          ldi  r22,'-'
0018b3 936d          st   x+,r22
                 __itoa0:
0018b4 94e8          clt
0018b5 e180          ldi  r24,low(10000)
0018b6 e297          ldi  r25,high(10000)
0018b7 d00d          rcall __itoa1
0018b8 ee88          ldi  r24,low(1000)
0018b9 e093          ldi  r25,high(1000)
0018ba d00a          rcall __itoa1
0018bb e684          ldi  r24,100
0018bc 2799          clr  r25
0018bd d007          rcall __itoa1
0018be e08a          ldi  r24,10
0018bf d005          rcall __itoa1
0018c0 2f6e          mov  r22,r30
0018c1 d010          rcall __itoa5
0018c2 2766          clr  r22
0018c3 936c          st   x,r22
0018c4 9508          ret
                 
                 __itoa1:
0018c5 2766          clr	 r22
                 __itoa2:
0018c6 17e8          cp   r30,r24
0018c7 07f9          cpc  r31,r25
0018c8 f020          brlo __itoa3
0018c9 9563          inc  r22
0018ca 1be8          sub  r30,r24
0018cb 0bf9          sbc  r31,r25
0018cc f7c9          brne __itoa2
                 __itoa3:
0018cd 2366          tst  r22
0018ce f411          brne __itoa4
0018cf f016          brts __itoa5
0018d0 9508          ret
                 __itoa4:
0018d1 9468          set
                 __itoa5:
0018d2 5d60          subi r22,-0x30
0018d3 936d          st   x+,r22
0018d4 9508          ret
                 ; .FEND
                 _ftoa:
                 ; .FSTART _ftoa
0018d5 940e 1b8d 	CALL SUBOPT_0x31
0018d7 e0e0      	LDI  R30,LOW(0)
0018d8 83ea      	STD  Y+2,R30
0018d9 e3ef      	LDI  R30,LOW(63)
0018da 83eb      	STD  Y+3,R30
0018db 931a      	ST   -Y,R17
0018dc 930a      	ST   -Y,R16
0018dd 85eb      	LDD  R30,Y+11
0018de 85fc      	LDD  R31,Y+11+1
0018df 3fef      	CPI  R30,LOW(0xFFFF)
0018e0 efaf      	LDI  R26,HIGH(0xFFFF)
0018e1 07fa      	CPC  R31,R26
0018e2 f439      	BRNE _0x204000D
0018e3 940e 1c50 	CALL SUBOPT_0x4C
                +
0018e5 eeae     +LDI R26 , LOW ( 2 * _0x2040000 + ( 0 ) )
0018e6 e2b0     +LDI R27 , HIGH ( 2 * _0x2040000 + ( 0 ) )
                 	__POINTW2FN _0x2040000,0
0018e7 940e 1997 	CALL _strcpyf
0018e9 c0a9      	RJMP _0x20C0003
                 _0x204000D:
0018ea 3fef      	CPI  R30,LOW(0x7FFF)
0018eb e7af      	LDI  R26,HIGH(0x7FFF)
0018ec 07fa      	CPC  R31,R26
0018ed f439      	BRNE _0x204000C
0018ee 940e 1c50 	CALL SUBOPT_0x4C
                +
0018f0 eeaf     +LDI R26 , LOW ( 2 * _0x2040000 + ( 1 ) )
0018f1 e2b0     +LDI R27 , HIGH ( 2 * _0x2040000 + ( 1 ) )
                 	__POINTW2FN _0x2040000,1
0018f2 940e 1997 	CALL _strcpyf
0018f4 c09e      	RJMP _0x20C0003
                 _0x204000C:
0018f5 85ac      	LDD  R26,Y+12
0018f6 23aa      	TST  R26
0018f7 f462      	BRPL _0x204000F
                +
0018f8 85e9     +LDD R30 , Y + 9
0018f9 85fa     +LDD R31 , Y + 9 + 1
0018fa 856b     +LDD R22 , Y + 9 + 2
0018fb 857c     +LDD R23 , Y + 9 + 3
                 	__GETD1S 9
0018fc 940e 1c83 	CALL __ANEGF1
0018fe 940e 1c55 	CALL SUBOPT_0x4D
001900 940e 1c5a 	CALL SUBOPT_0x4E
001902 e2ed      	LDI  R30,LOW(45)
001903 93ec      	ST   X,R30
                 _0x204000F:
001904 85a8      	LDD  R26,Y+8
001905 30a7      	CPI  R26,LOW(0x7)
001906 f010      	BRLO _0x2040010
001907 e0e6      	LDI  R30,LOW(6)
001908 87e8      	STD  Y+8,R30
                 _0x2040010:
001909 8518      	LDD  R17,Y+8
                 _0x2040011:
00190a 2fe1      	MOV  R30,R17
00190b 5011      	SUBI R17,1
00190c 30e0      	CPI  R30,0
00190d f039      	BREQ _0x2040013
00190e 940e 1c61 	CALL SUBOPT_0x4F
001910 940e 1bd0 	CALL SUBOPT_0x39
001912 940e 1c66 	CALL SUBOPT_0x50
001914 cff5      	RJMP _0x2040011
                 _0x2040013:
001915 940e 1c6b 	CALL SUBOPT_0x51
001917 940e 1d29 	CALL __ADDF12
001919 940e 1c55 	CALL SUBOPT_0x4D
00191b e010      	LDI  R17,LOW(0)
                +
00191c e0e0     +LDI R30 , LOW ( 0x3F800000 )
00191d e0f0     +LDI R31 , HIGH ( 0x3F800000 )
00191e e860     +LDI R22 , BYTE3 ( 0x3F800000 )
00191f e37f     +LDI R23 , BYTE4 ( 0x3F800000 )
                 	__GETD1N 0x3F800000
001920 940e 1c66 	CALL SUBOPT_0x50
                 _0x2040014:
001922 940e 1c6b 	CALL SUBOPT_0x51
001924 940e 1e0c 	CALL __CMPF12
001926 f088      	BRLO _0x2040016
001927 940e 1c61 	CALL SUBOPT_0x4F
001929 940e 1bbf 	CALL SUBOPT_0x36
00192b 940e 1c66 	CALL SUBOPT_0x50
00192d 5f1f      	SUBI R17,-LOW(1)
00192e 3217      	CPI  R17,39
00192f f038      	BRLO _0x2040017
001930 940e 1c50 	CALL SUBOPT_0x4C
                +
001932 efa3     +LDI R26 , LOW ( 2 * _0x2040000 + ( 5 ) )
001933 e2b0     +LDI R27 , HIGH ( 2 * _0x2040000 + ( 5 ) )
                 	__POINTW2FN _0x2040000,5
001934 940e 1997 	CALL _strcpyf
001936 c05c      	RJMP _0x20C0003
                 _0x2040017:
001937 cfea      	RJMP _0x2040014
                 _0x2040016:
001938 3010      	CPI  R17,0
001939 f429      	BRNE _0x2040018
00193a 940e 1c5a 	CALL SUBOPT_0x4E
00193c e3e0      	LDI  R30,LOW(48)
00193d 93ec      	ST   X,R30
00193e c029      	RJMP _0x2040019
                 _0x2040018:
                 _0x204001A:
00193f 2fe1      	MOV  R30,R17
001940 5011      	SUBI R17,1
001941 30e0      	CPI  R30,0
001942 f129      	BREQ _0x204001C
001943 940e 1c61 	CALL SUBOPT_0x4F
001945 940e 1bd0 	CALL SUBOPT_0x39
001947 940e 1bcb 	CALL SUBOPT_0x38
001949 940e 1a2e 	CALL SUBOPT_0x4
00194b 940e 19ee 	CALL _floor
00194d 940e 1c66 	CALL SUBOPT_0x50
00194f 940e 1c6b 	CALL SUBOPT_0x51
001951 940e 1dc7 	CALL __DIVF21
001953 940e 1cb6 	CALL __CFD1U
001955 2f0e      	MOV  R16,R30
001956 940e 1c5a 	CALL SUBOPT_0x4E
001958 940e 1bde 	CALL SUBOPT_0x3B
00195a e0f0      	LDI  R31,0
00195b 940e 1c61 	CALL SUBOPT_0x4F
00195d 940e 1a33 	CALL SUBOPT_0x5
00195f 940e 1d79 	CALL __MULF12
001961 940e 1c74 	CALL SUBOPT_0x52
001963 940e 1be3 	CALL SUBOPT_0x3C
001965 940e 1c55 	CALL SUBOPT_0x4D
001967 cfd7      	RJMP _0x204001A
                 _0x204001C:
                 _0x2040019:
001968 85e8      	LDD  R30,Y+8
001969 30e0      	CPI  R30,0
00196a f121      	BREQ _0x20C0002
00196b 940e 1c5a 	CALL SUBOPT_0x4E
00196d e2ee      	LDI  R30,LOW(46)
00196e 93ec      	ST   X,R30
                 _0x204001E:
00196f 85e8      	LDD  R30,Y+8
001970 50e1      	SUBI R30,LOW(1)
001971 87e8      	STD  Y+8,R30
001972 5fef      	SUBI R30,-LOW(1)
001973 f0d9      	BREQ _0x2040020
001974 940e 1c74 	CALL SUBOPT_0x52
001976 940e 1bbf 	CALL SUBOPT_0x36
001978 940e 1c55 	CALL SUBOPT_0x4D
                +
00197a 85e9     +LDD R30 , Y + 9
00197b 85fa     +LDD R31 , Y + 9 + 1
00197c 856b     +LDD R22 , Y + 9 + 2
00197d 857c     +LDD R23 , Y + 9 + 3
                 	__GETD1S 9
00197e 940e 1cb6 	CALL __CFD1U
001980 2f0e      	MOV  R16,R30
001981 940e 1c5a 	CALL SUBOPT_0x4E
001983 940e 1bde 	CALL SUBOPT_0x3B
001985 e0f0      	LDI  R31,0
001986 940e 1c74 	CALL SUBOPT_0x52
001988 940e 1a33 	CALL SUBOPT_0x5
00198a 940e 1be3 	CALL SUBOPT_0x3C
00198c 940e 1c55 	CALL SUBOPT_0x4D
00198e cfe0      	RJMP _0x204001E
                 _0x2040020:
                 _0x20C0002:
00198f 81ae      	LDD  R26,Y+6
001990 81bf      	LDD  R27,Y+6+1
001991 e0e0      	LDI  R30,LOW(0)
001992 93ec      	ST   X,R30
                 _0x20C0003:
001993 8119      	LDD  R17,Y+1
001994 8108      	LDD  R16,Y+0
001995 962d      	ADIW R28,13
001996 9508      	RET
                 ; .FEND
                 
                 	.DSEG
                 
                 	.CSEG
                 
                 	.CSEG
                 _strcpyf:
                 ; .FSTART _strcpyf
001997 93ba      	ST   -Y,R27
001998 93aa      	ST   -Y,R26
001999 91e9          ld   r30,y+
00199a 91f9          ld   r31,y+
00199b 91a9          ld   r26,y+
00199c 91b9          ld   r27,y+
00199d 01cd          movw r24,r26
                 strcpyf0:
00199e 9005      	lpm  r0,z+
00199f 920d          st   x+,r0
0019a0 2000          tst  r0
0019a1 f7e1          brne strcpyf0
0019a2 01fc          movw r30,r24
0019a3 9508          ret
                 ; .FEND
                 _strlen:
                 ; .FSTART _strlen
0019a4 93ba      	ST   -Y,R27
0019a5 93aa      	ST   -Y,R26
0019a6 91a9          ld   r26,y+
0019a7 91b9          ld   r27,y+
0019a8 27ee          clr  r30
0019a9 27ff          clr  r31
                 strlen0:
0019aa 916d          ld   r22,x+
0019ab 2366          tst  r22
0019ac f011          breq strlen1
0019ad 9631          adiw r30,1
0019ae cffb          rjmp strlen0
                 strlen1:
0019af 9508          ret
                 ; .FEND
                 _strlenf:
                 ; .FSTART _strlenf
0019b0 93ba      	ST   -Y,R27
0019b1 93aa      	ST   -Y,R26
0019b2 27aa          clr  r26
0019b3 27bb          clr  r27
0019b4 91e9          ld   r30,y+
0019b5 91f9          ld   r31,y+
                 strlenf0:
0019b6 9005      	lpm  r0,z+
0019b7 2000          tst  r0
0019b8 f011          breq strlenf1
0019b9 9611          adiw r26,1
0019ba cffb          rjmp strlenf0
                 strlenf1:
0019bb 01fd          movw r30,r26
0019bc 9508          ret
                 ; .FEND
                 
                 	.CSEG
                 
                 	.CSEG
                 _ftrunc:
                 ; .FSTART _ftrunc
0019bd 940e 1eef 	CALL __PUTPARD2
0019bf 817b         ldd  r23,y+3
0019c0 816a         ldd  r22,y+2
0019c1 81f9         ldd  r31,y+1
0019c2 81e8         ld   r30,y
0019c3 fb77         bst  r23,7
0019c4 0f77         lsl  r23
0019c5 fd67         sbrc r22,7
0019c6 6071         sbr  r23,1
0019c7 2f97         mov  r25,r23
0019c8 579e         subi r25,0x7e
0019c9 f081         breq __ftrunc0
0019ca f078         brcs __ftrunc0
0019cb 3198         cpi  r25,24
0019cc f490         brsh __ftrunc1
0019cd 27aa         clr  r26
0019ce 27bb         clr  r27
0019cf 2788         clr  r24
                 __ftrunc2:
0019d0 9408         sec
0019d1 9587         ror  r24
0019d2 95b7         ror  r27
0019d3 95a7         ror  r26
0019d4 959a         dec  r25
0019d5 f7d1         brne __ftrunc2
0019d6 23ea         and  r30,r26
0019d7 23fb         and  r31,r27
0019d8 2368         and  r22,r24
0019d9 c005         rjmp __ftrunc1
                 __ftrunc0:
0019da 94e8         clt
0019db 2777         clr  r23
0019dc 27ee         clr  r30
0019dd 27ff         clr  r31
0019de 2766         clr  r22
                 __ftrunc1:
0019df 776f         cbr  r22,0x80
0019e0 9576         lsr  r23
0019e1 f408         brcc __ftrunc3
0019e2 6860         sbr  r22,0x80
                 __ftrunc3:
0019e3 f977         bld  r23,7
0019e4 91a9         ld   r26,y+
0019e5 91b9         ld   r27,y+
0019e6 9189         ld   r24,y+
0019e7 9199         ld   r25,y+
0019e8 17ea         cp   r30,r26
0019e9 07fb         cpc  r31,r27
0019ea 0768         cpc  r22,r24
0019eb 0779         cpc  r23,r25
0019ec fb97         bst  r25,7
0019ed 9508         ret
                 ; .FEND
                 _floor:
                 ; .FSTART _floor
0019ee 940e 1eef 	CALL __PUTPARD2
0019f0 940e 1ee0 	CALL __GETD2S0
0019f2 940e 19bd 	CALL _ftrunc
0019f4 940e 1ee5 	CALL __PUTD1S0
0019f6 f419          brne __floor1
                 __floor0:
0019f7 940e 1edb 	CALL __GETD1S0
0019f9 c009      	RJMP _0x20C0001
                 __floor1:
0019fa f7e6          brtc __floor0
0019fb 940e 1edb 	CALL __GETD1S0
                +
0019fd e0a0     +LDI R26 , LOW ( 0x3F800000 )
0019fe e0b0     +LDI R27 , HIGH ( 0x3F800000 )
0019ff e880     +LDI R24 , BYTE3 ( 0x3F800000 )
001a00 e39f     +LDI R25 , BYTE4 ( 0x3F800000 )
                 	__GETD2N 0x3F800000
001a01 940e 1d22 	CALL __SUBF12
                 _0x20C0001:
001a03 9624      	ADIW R28,4
001a04 9508      	RET
                 ; .FEND
                 
                 	.DSEG
                 _Weight_Shiwu:
000260           	.BYTE 0x4
                 _Weight_Maopi:
000264           	.BYTE 0x4
                 _Weight_Shiwu1:
000268           	.BYTE 0x4
                 _Weight_Maopi1:
00026c           	.BYTE 0x4
                 _Weight_Shiwu2:
000270           	.BYTE 0x4
                 _Weight_Maopi2:
000274           	.BYTE 0x4
                 _HX711_Buffer:
000278           	.BYTE 0x4
                 _HX711_Buffer1:
00027c           	.BYTE 0x4
                 _HX711_Buffer2:
000280           	.BYTE 0x4
                 _scale_total:
000284           	.BYTE 0x4
                 _scale_total_prev:
000288           	.BYTE 0x4
                 _scale:
00028c           	.BYTE 0x4
                 _scale1:
000290           	.BYTE 0x4
                 _scale2:
000294           	.BYTE 0x4
                 _scale_sum:
000298           	.BYTE 0x4
                 _scale1_sum:
00029c           	.BYTE 0x4
                 _scale2_sum:
0002a0           	.BYTE 0x4
                 _scale_array:
0002a4           	.BYTE 0x1C
                 _scale1_array:
0002c0           	.BYTE 0x1C
                 _scale2_array:
0002dc           	.BYTE 0x1C
                 _buffer4:
0002f8           	.BYTE 0x4
                 _buffer:
0002fc           	.BYTE 0x20
                 _str1:
00031c           	.BYTE 0x8
                 _rx_buffer:
000324           	.BYTE 0x18
                 __base_y_G100:
00033c           	.BYTE 0x4
                 __seed_G102:
000340           	.BYTE 0x4
                 
                 	.CSEG
                 ;OPTIMIZER ADDED SUBROUTINE, CALLED 2 TIMES, CODE SIZE REDUCTION:8 WORDS
                 SUBOPT_0x0:
001a05 920a      	ST   -Y,R0
001a06 921a      	ST   -Y,R1
001a07 92fa      	ST   -Y,R15
001a08 936a      	ST   -Y,R22
001a09 937a      	ST   -Y,R23
001a0a 938a      	ST   -Y,R24
001a0b 939a      	ST   -Y,R25
001a0c 93aa      	ST   -Y,R26
001a0d 93ba      	ST   -Y,R27
001a0e 93ea      	ST   -Y,R30
001a0f 93fa      	ST   -Y,R31
001a10 b7ef      	IN   R30,SREG
001a11 93ea      	ST   -Y,R30
001a12 9508      	RET
                 
                 ;OPTIMIZER ADDED SUBROUTINE, CALLED 2 TIMES, CODE SIZE REDUCTION:3 WORDS
                 SUBOPT_0x1:
001a13 91a0 0284 	LDS  R26,_scale_total
001a15 91b0 0285 	LDS  R27,_scale_total+1
001a17 9180 0286 	LDS  R24,_scale_total+2
001a19 9190 0287 	LDS  R25,_scale_total+3
001a1b 9508      	RET
                 
                 ;OPTIMIZER ADDED SUBROUTINE, CALLED 2 TIMES, CODE SIZE REDUCTION:3 WORDS
                 SUBOPT_0x2:
001a1c 93e0 0284 	STS  _scale_total,R30
001a1e 93f0 0285 	STS  _scale_total+1,R31
001a20 9360 0286 	STS  _scale_total+2,R22
001a22 9370 0287 	STS  _scale_total+3,R23
001a24 9508      	RET
                 
                 ;OPTIMIZER ADDED SUBROUTINE, CALLED 4 TIMES, CODE SIZE REDUCTION:15 WORDS
                 SUBOPT_0x3:
001a25 91e0 0284 	LDS  R30,_scale_total
001a27 91f0 0285 	LDS  R31,_scale_total+1
001a29 9160 0286 	LDS  R22,_scale_total+2
001a2b 9170 0287 	LDS  R23,_scale_total+3
001a2d 9508      	RET
                 
                 ;OPTIMIZER ADDED SUBROUTINE, CALLED 3 TIMES, CODE SIZE REDUCTION:1 WORDS
                 SUBOPT_0x4:
001a2e 940e 1d29 	CALL __ADDF12
001a30 01df      	MOVW R26,R30
001a31 01cb      	MOVW R24,R22
001a32 9508      	RET
                 
                 ;OPTIMIZER ADDED SUBROUTINE, CALLED 4 TIMES, CODE SIZE REDUCTION:3 WORDS
                 SUBOPT_0x5:
001a33 940e 1e57 	CALL __CWD1
001a35 940e 1cef 	CALL __CDF1
001a37 9508      	RET
                 
                 ;OPTIMIZER ADDED SUBROUTINE, CALLED 2 TIMES, CODE SIZE REDUCTION:3 WORDS
                 SUBOPT_0x6:
001a38 91e0 0290 	LDS  R30,_scale1
001a3a 91f0 0291 	LDS  R31,_scale1+1
001a3c 9160 0292 	LDS  R22,_scale1+2
001a3e 9170 0293 	LDS  R23,_scale1+3
001a40 9508      	RET
                 
                 ;OPTIMIZER ADDED SUBROUTINE, CALLED 3 TIMES, CODE SIZE REDUCTION:3 WORDS
                 SUBOPT_0x7:
001a41 e0e0      	LDI  R30,LOW(0)
                +
001a42 83e9     +STD Y + 1 , R30
001a43 83ea     +STD Y + 1 + 1 , R30
001a44 83eb     +STD Y + 1 + 2 , R30
001a45 83ec     +STD Y + 1 + 3 , R30
                 	__CLRD1S 1
001a46 9508      	RET
                 
                 ;OPTIMIZER ADDED SUBROUTINE, CALLED 9 TIMES, CODE SIZE REDUCTION:13 WORDS
                 SUBOPT_0x8:
                +
001a47 81e9     +LDD R30 , Y + 1
001a48 81fa     +LDD R31 , Y + 1 + 1
001a49 816b     +LDD R22 , Y + 1 + 2
001a4a 817c     +LDD R23 , Y + 1 + 3
                 	__GETD1S 1
001a4b 9508      	RET
                 
                 ;OPTIMIZER ADDED SUBROUTINE, CALLED 3 TIMES, CODE SIZE REDUCTION:5 WORDS
                 SUBOPT_0x9:
001a4c 940e 1e4c 	CALL __LSLD1
                +
001a4e 83e9     +STD Y + 1 , R30
001a4f 83fa     +STD Y + 1 + 1 , R31
001a50 836b     +STD Y + 1 + 2 , R22
001a51 837c     +STD Y + 1 + 3 , R23
                 	__PUTD1S 1
001a52 9508      	RET
                 
                 ;OPTIMIZER ADDED SUBROUTINE, CALLED 3 TIMES, CODE SIZE REDUCTION:13 WORDS
                 SUBOPT_0xA:
001a53 dff3      	RCALL SUBOPT_0x8
                +
001a54 5fef     +SUBI R30 , LOW ( - 1 )
001a55 4fff     +SBCI R31 , HIGH ( - 1 )
001a56 4f6f     +SBCI R22 , BYTE3 ( - 1 )
001a57 4f7f     +SBCI R23 , BYTE4 ( - 1 )
                 	__SUBD1N -1
                +
001a58 83e9     +STD Y + 1 , R30
001a59 83fa     +STD Y + 1 + 1 , R31
001a5a 836b     +STD Y + 1 + 2 , R22
001a5b 837c     +STD Y + 1 + 3 , R23
                 	__PUTD1S 1
001a5c 9508      	RET
                 
                 ;OPTIMIZER ADDED SUBROUTINE, CALLED 3 TIMES, CODE SIZE REDUCTION:21 WORDS
                 SUBOPT_0xB:
                +
001a5d 81a9     +LDD R26 , Y + 1
001a5e 81ba     +LDD R27 , Y + 1 + 1
001a5f 818b     +LDD R24 , Y + 1 + 2
001a60 819c     +LDD R25 , Y + 1 + 3
                 	__GETD2S 1
                +
001a61 e0e0     +LDI R30 , LOW ( 0x800000 )
001a62 e0f0     +LDI R31 , HIGH ( 0x800000 )
001a63 e860     +LDI R22 , BYTE3 ( 0x800000 )
001a64 e070     +LDI R23 , BYTE4 ( 0x800000 )
                 	__GETD1N 0x800000
001a65 940e 1e3a 	CALL __XORD12
                +
001a67 83e9     +STD Y + 1 , R30
001a68 83fa     +STD Y + 1 + 1 , R31
001a69 836b     +STD Y + 1 + 2 , R22
001a6a 837c     +STD Y + 1 + 3 , R23
                 	__PUTD1S 1
001a6b 9508      	RET
                 
                 ;OPTIMIZER ADDED SUBROUTINE, CALLED 2 TIMES, CODE SIZE REDUCTION:4 WORDS
                 SUBOPT_0xC:
001a6c e0e0      	LDI  R30,LOW(0)
001a6d 93e0 0278 	STS  _HX711_Buffer,R30
001a6f 93e0 0279 	STS  _HX711_Buffer+1,R30
001a71 93e0 027a 	STS  _HX711_Buffer+2,R30
001a73 93e0 027b 	STS  _HX711_Buffer+3,R30
001a75 9508      	RET
                 
                 ;OPTIMIZER ADDED SUBROUTINE, CALLED 4 TIMES, CODE SIZE REDUCTION:15 WORDS
                 SUBOPT_0xD:
001a76 93e0 0278 	STS  _HX711_Buffer,R30
001a78 93f0 0279 	STS  _HX711_Buffer+1,R31
001a7a 9360 027a 	STS  _HX711_Buffer+2,R22
001a7c 9370 027b 	STS  _HX711_Buffer+3,R23
001a7e 9508      	RET
                 
                 ;OPTIMIZER ADDED SUBROUTINE, CALLED 4 TIMES, CODE SIZE REDUCTION:15 WORDS
                 SUBOPT_0xE:
001a7f 91a0 0278 	LDS  R26,_HX711_Buffer
001a81 91b0 0279 	LDS  R27,_HX711_Buffer+1
001a83 9180 027a 	LDS  R24,_HX711_Buffer+2
001a85 9190 027b 	LDS  R25,_HX711_Buffer+3
001a87 9508      	RET
                 
                 ;OPTIMIZER ADDED SUBROUTINE, CALLED 6 TIMES, CODE SIZE REDUCTION:17 WORDS
                 SUBOPT_0xF:
                +
001a88 e6e4     +LDI R30 , LOW ( 0x64 )
001a89 e0f0     +LDI R31 , HIGH ( 0x64 )
001a8a e060     +LDI R22 , BYTE3 ( 0x64 )
001a8b e070     +LDI R23 , BYTE4 ( 0x64 )
                 	__GETD1N 0x64
001a8c 940e 1e94 	CALL __DIVD21
001a8e 9508      	RET
                 
                 ;OPTIMIZER ADDED SUBROUTINE, CALLED 2 TIMES, CODE SIZE REDUCTION:3 WORDS
                 SUBOPT_0x10:
001a8f 93e0 0260 	STS  _Weight_Shiwu,R30
001a91 93f0 0261 	STS  _Weight_Shiwu+1,R31
001a93 9360 0262 	STS  _Weight_Shiwu+2,R22
001a95 9370 0263 	STS  _Weight_Shiwu+3,R23
001a97 9508      	RET
                 
                 ;OPTIMIZER ADDED SUBROUTINE, CALLED 3 TIMES, CODE SIZE REDUCTION:9 WORDS
                 SUBOPT_0x11:
001a98 91e0 0260 	LDS  R30,_Weight_Shiwu
001a9a 91f0 0261 	LDS  R31,_Weight_Shiwu+1
001a9c 9160 0262 	LDS  R22,_Weight_Shiwu+2
001a9e 9170 0263 	LDS  R23,_Weight_Shiwu+3
001aa0 9508      	RET
                 
                 ;OPTIMIZER ADDED SUBROUTINE, CALLED 2 TIMES, CODE SIZE REDUCTION:1 WORDS
                 SUBOPT_0x12:
001aa1 dff6      	RCALL SUBOPT_0x11
001aa2 940e 1cef 	CALL __CDF1
001aa4 01df      	MOVW R26,R30
001aa5 01cb      	MOVW R24,R22
001aa6 9508      	RET
                 
                 ;OPTIMIZER ADDED SUBROUTINE, CALLED 3 TIMES, CODE SIZE REDUCTION:5 WORDS
                 SUBOPT_0x13:
                +
001aa7 e4ed     +LDI R30 , LOW ( 0x3EB8A04D )
001aa8 eaf0     +LDI R31 , HIGH ( 0x3EB8A04D )
001aa9 eb68     +LDI R22 , BYTE3 ( 0x3EB8A04D )
001aaa e37e     +LDI R23 , BYTE4 ( 0x3EB8A04D )
                 	__GETD1N 0x3EB8A04D
001aab 940e 1dc7 	CALL __DIVF21
001aad 9508      	RET
                 
                 ;OPTIMIZER ADDED SUBROUTINE, CALLED 3 TIMES, CODE SIZE REDUCTION:3 WORDS
                 SUBOPT_0x14:
001aae 940e 1cb8 	CALL __CFD1
001ab0 940e 1ed2 	CALL __PUTDP1
001ab2 01f8      	MOVW R30,R16
001ab3 9508      	RET
                 
                 ;OPTIMIZER ADDED SUBROUTINE, CALLED 4 TIMES, CODE SIZE REDUCTION:3 WORDS
                 SUBOPT_0x15:
001ab4 940e 1e47 	CALL __LSLW2
001ab6 0fea      	ADD  R30,R26
001ab7 1ffb      	ADC  R31,R27
001ab8 9508      	RET
                 
                 ;OPTIMIZER ADDED SUBROUTINE, CALLED 3 TIMES, CODE SIZE REDUCTION:5 WORDS
                 SUBOPT_0x16:
                +
001ab9 e0e0     +LDI R30 , LOW ( 0x41F00000 )
001aba e0f0     +LDI R31 , HIGH ( 0x41F00000 )
001abb ef60     +LDI R22 , BYTE3 ( 0x41F00000 )
001abc e471     +LDI R23 , BYTE4 ( 0x41F00000 )
                 	__GETD1N 0x41F00000
001abd 940e 1dc7 	CALL __DIVF21
001abf 9508      	RET
                 
                 ;OPTIMIZER ADDED SUBROUTINE, CALLED 2 TIMES, CODE SIZE REDUCTION:4 WORDS
                 SUBOPT_0x17:
001ac0 e0e0      	LDI  R30,LOW(0)
001ac1 93e0 027c 	STS  _HX711_Buffer1,R30
001ac3 93e0 027d 	STS  _HX711_Buffer1+1,R30
001ac5 93e0 027e 	STS  _HX711_Buffer1+2,R30
001ac7 93e0 027f 	STS  _HX711_Buffer1+3,R30
001ac9 9508      	RET
                 
                 ;OPTIMIZER ADDED SUBROUTINE, CALLED 4 TIMES, CODE SIZE REDUCTION:15 WORDS
                 SUBOPT_0x18:
001aca 93e0 027c 	STS  _HX711_Buffer1,R30
001acc 93f0 027d 	STS  _HX711_Buffer1+1,R31
001ace 9360 027e 	STS  _HX711_Buffer1+2,R22
001ad0 9370 027f 	STS  _HX711_Buffer1+3,R23
001ad2 9508      	RET
                 
                 ;OPTIMIZER ADDED SUBROUTINE, CALLED 4 TIMES, CODE SIZE REDUCTION:15 WORDS
                 SUBOPT_0x19:
001ad3 91a0 027c 	LDS  R26,_HX711_Buffer1
001ad5 91b0 027d 	LDS  R27,_HX711_Buffer1+1
001ad7 9180 027e 	LDS  R24,_HX711_Buffer1+2
001ad9 9190 027f 	LDS  R25,_HX711_Buffer1+3
001adb 9508      	RET
                 
                 ;OPTIMIZER ADDED SUBROUTINE, CALLED 2 TIMES, CODE SIZE REDUCTION:3 WORDS
                 SUBOPT_0x1A:
001adc 93e0 0268 	STS  _Weight_Shiwu1,R30
001ade 93f0 0269 	STS  _Weight_Shiwu1+1,R31
001ae0 9360 026a 	STS  _Weight_Shiwu1+2,R22
001ae2 9370 026b 	STS  _Weight_Shiwu1+3,R23
001ae4 9508      	RET
                 
                 ;OPTIMIZER ADDED SUBROUTINE, CALLED 3 TIMES, CODE SIZE REDUCTION:9 WORDS
                 SUBOPT_0x1B:
001ae5 91e0 0268 	LDS  R30,_Weight_Shiwu1
001ae7 91f0 0269 	LDS  R31,_Weight_Shiwu1+1
001ae9 9160 026a 	LDS  R22,_Weight_Shiwu1+2
001aeb 9170 026b 	LDS  R23,_Weight_Shiwu1+3
001aed 9508      	RET
                 
                 ;OPTIMIZER ADDED SUBROUTINE, CALLED 2 TIMES, CODE SIZE REDUCTION:1 WORDS
                 SUBOPT_0x1C:
001aee dff6      	RCALL SUBOPT_0x1B
001aef 940e 1cef 	CALL __CDF1
001af1 01df      	MOVW R26,R30
001af2 01cb      	MOVW R24,R22
001af3 9508      	RET
                 
                 ;OPTIMIZER ADDED SUBROUTINE, CALLED 2 TIMES, CODE SIZE REDUCTION:4 WORDS
                 SUBOPT_0x1D:
001af4 e0e0      	LDI  R30,LOW(0)
001af5 93e0 0280 	STS  _HX711_Buffer2,R30
001af7 93e0 0281 	STS  _HX711_Buffer2+1,R30
001af9 93e0 0282 	STS  _HX711_Buffer2+2,R30
001afb 93e0 0283 	STS  _HX711_Buffer2+3,R30
001afd 9508      	RET
                 
                 ;OPTIMIZER ADDED SUBROUTINE, CALLED 4 TIMES, CODE SIZE REDUCTION:15 WORDS
                 SUBOPT_0x1E:
001afe 93e0 0280 	STS  _HX711_Buffer2,R30
001b00 93f0 0281 	STS  _HX711_Buffer2+1,R31
001b02 9360 0282 	STS  _HX711_Buffer2+2,R22
001b04 9370 0283 	STS  _HX711_Buffer2+3,R23
001b06 9508      	RET
                 
                 ;OPTIMIZER ADDED SUBROUTINE, CALLED 4 TIMES, CODE SIZE REDUCTION:15 WORDS
                 SUBOPT_0x1F:
001b07 91a0 0280 	LDS  R26,_HX711_Buffer2
001b09 91b0 0281 	LDS  R27,_HX711_Buffer2+1
001b0b 9180 0282 	LDS  R24,_HX711_Buffer2+2
001b0d 9190 0283 	LDS  R25,_HX711_Buffer2+3
001b0f 9508      	RET
                 
                 ;OPTIMIZER ADDED SUBROUTINE, CALLED 2 TIMES, CODE SIZE REDUCTION:3 WORDS
                 SUBOPT_0x20:
001b10 93e0 0270 	STS  _Weight_Shiwu2,R30
001b12 93f0 0271 	STS  _Weight_Shiwu2+1,R31
001b14 9360 0272 	STS  _Weight_Shiwu2+2,R22
001b16 9370 0273 	STS  _Weight_Shiwu2+3,R23
001b18 9508      	RET
                 
                 ;OPTIMIZER ADDED SUBROUTINE, CALLED 3 TIMES, CODE SIZE REDUCTION:9 WORDS
                 SUBOPT_0x21:
001b19 91e0 0270 	LDS  R30,_Weight_Shiwu2
001b1b 91f0 0271 	LDS  R31,_Weight_Shiwu2+1
001b1d 9160 0272 	LDS  R22,_Weight_Shiwu2+2
001b1f 9170 0273 	LDS  R23,_Weight_Shiwu2+3
001b21 9508      	RET
                 
                 ;OPTIMIZER ADDED SUBROUTINE, CALLED 2 TIMES, CODE SIZE REDUCTION:1 WORDS
                 SUBOPT_0x22:
001b22 dff6      	RCALL SUBOPT_0x21
001b23 940e 1cef 	CALL __CDF1
001b25 01df      	MOVW R26,R30
001b26 01cb      	MOVW R24,R22
001b27 9508      	RET
                 
                 ;OPTIMIZER ADDED SUBROUTINE, CALLED 3 TIMES, CODE SIZE REDUCTION:5 WORDS
                 SUBOPT_0x23:
001b28 93fa      	ST   -Y,R31
001b29 93ea      	ST   -Y,R30
001b2a e0a7      	LDI  R26,LOW(7)
001b2b e0b0      	LDI  R27,0
001b2c 940c 143f 	JMP  _sort_array
                 
                 ;OPTIMIZER ADDED SUBROUTINE, CALLED 2 TIMES, CODE SIZE REDUCTION:3 WORDS
                 SUBOPT_0x24:
001b2e 91a0 0298 	LDS  R26,_scale_sum
001b30 91b0 0299 	LDS  R27,_scale_sum+1
001b32 9180 029a 	LDS  R24,_scale_sum+2
001b34 9190 029b 	LDS  R25,_scale_sum+3
001b36 9508      	RET
                 
                 ;OPTIMIZER ADDED SUBROUTINE, CALLED 2 TIMES, CODE SIZE REDUCTION:3 WORDS
                 SUBOPT_0x25:
001b37 91a0 029c 	LDS  R26,_scale1_sum
001b39 91b0 029d 	LDS  R27,_scale1_sum+1
001b3b 9180 029e 	LDS  R24,_scale1_sum+2
001b3d 9190 029f 	LDS  R25,_scale1_sum+3
001b3f 9508      	RET
                 
                 ;OPTIMIZER ADDED SUBROUTINE, CALLED 2 TIMES, CODE SIZE REDUCTION:3 WORDS
                 SUBOPT_0x26:
001b40 91a0 02a0 	LDS  R26,_scale2_sum
001b42 91b0 02a1 	LDS  R27,_scale2_sum+1
001b44 9180 02a2 	LDS  R24,_scale2_sum+2
001b46 9190 02a3 	LDS  R25,_scale2_sum+3
001b48 9508      	RET
                 
                 ;OPTIMIZER ADDED SUBROUTINE, CALLED 3 TIMES, CODE SIZE REDUCTION:5 WORDS
                 SUBOPT_0x27:
                +
001b49 e0e0     +LDI R30 , LOW ( 0x40000000 )
001b4a e0f0     +LDI R31 , HIGH ( 0x40000000 )
001b4b e060     +LDI R22 , BYTE3 ( 0x40000000 )
001b4c e470     +LDI R23 , BYTE4 ( 0x40000000 )
                 	__GETD1N 0x40000000
001b4d 940e 1dc7 	CALL __DIVF21
001b4f 9508      	RET
                 
                 ;OPTIMIZER ADDED SUBROUTINE, CALLED 3 TIMES, CODE SIZE REDUCTION:1 WORDS
                 SUBOPT_0x28:
001b50 931a      	ST   -Y,R17
001b51 930a      	ST   -Y,R16
                +
001b52 e000     +LDI R16 , LOW ( 0 )
001b53 e010     +LDI R17 , HIGH ( 0 )
                 	__GETWRN 16,17,0
001b54 9508      	RET
                 
                 ;OPTIMIZER ADDED SUBROUTINE, CALLED 3 TIMES, CODE SIZE REDUCTION:1 WORDS
                 SUBOPT_0x29:
                +
001b55 ee88     +LDI R24 , LOW ( 1000 )
001b56 e093     +LDI R25 , HIGH ( 1000 )
                +__DELAY_USW_LOOP :
001b57 9701     +SBIW R24 , 1
001b58 f7f1     +BRNE __DELAY_USW_LOOP
                 	__DELAY_USW 1000
001b59 9508      	RET
                 
                 ;OPTIMIZER ADDED SUBROUTINE, CALLED 3 TIMES, CODE SIZE REDUCTION:5 WORDS
                 SUBOPT_0x2A:
                +
001b5a e0ea     +LDI R30 , LOW ( 0xA )
001b5b e0f0     +LDI R31 , HIGH ( 0xA )
001b5c e060     +LDI R22 , BYTE3 ( 0xA )
001b5d e070     +LDI R23 , BYTE4 ( 0xA )
                 	__GETD1N 0xA
001b5e 940e 1e94 	CALL __DIVD21
001b60 9508      	RET
                 
                 ;OPTIMIZER ADDED SUBROUTINE, CALLED 2 TIMES, CODE SIZE REDUCTION:3 WORDS
                 SUBOPT_0x2B:
001b61 81ae      	LDD  R26,Y+6
001b62 81bf      	LDD  R27,Y+6+1
001b63 940e 1e47 	CALL __LSLW2
001b65 0fae      	ADD  R26,R30
001b66 1fbf      	ADC  R27,R31
001b67 940e 1ecc 	CALL __GETD1P
001b69 9508      	RET
                 
                 ;OPTIMIZER ADDED SUBROUTINE, CALLED 3 TIMES, CODE SIZE REDUCTION:5 WORDS
                 SUBOPT_0x2C:
001b6a 85a8      	LDD  R26,Y+8
001b6b 85b9      	LDD  R27,Y+8+1
001b6c 940e 1e47 	CALL __LSLW2
001b6e 0fae      	ADD  R26,R30
001b6f 1fbf      	ADC  R27,R31
001b70 9508      	RET
                 
                 ;OPTIMIZER ADDED SUBROUTINE, CALLED 2 TIMES, CODE SIZE REDUCTION:1 WORDS
                 SUBOPT_0x2D:
001b71 940e 14b4 	CALL __lcd_write_data
001b73 e0a3      	LDI  R26,LOW(3)
001b74 e0b0      	LDI  R27,0
001b75 940c 1c79 	JMP  _delay_ms
                 
                 ;OPTIMIZER ADDED SUBROUTINE, CALLED 2 TIMES, CODE SIZE REDUCTION:2 WORDS
                 SUBOPT_0x2E:
001b77 81a9      	LDD  R26,Y+1
001b78 81ba      	LDD  R27,Y+1+1
001b79 91ed      	LD   R30,X+
001b7a 83a9      	STD  Y+1,R26
001b7b 83ba      	STD  Y+1+1,R27
001b7c 2f1e      	MOV  R17,R30
001b7d 30e0      	CPI  R30,0
001b7e 9508      	RET
                 
                 ;OPTIMIZER ADDED SUBROUTINE, CALLED 3 TIMES, CODE SIZE REDUCTION:7 WORDS
                 SUBOPT_0x2F:
001b7f e3a0      	LDI  R26,LOW(48)
001b80 940e 149f 	CALL __lcd_write_nibble_G100
                +
001b82 ec88     +LDI R24 , LOW ( 200 )
001b83 e090     +LDI R25 , HIGH ( 200 )
                +__DELAY_USW_LOOP :
001b84 9701     +SBIW R24 , 1
001b85 f7f1     +BRNE __DELAY_USW_LOOP
                 	__DELAY_USW 200
001b86 9508      	RET
                 
                 ;OPTIMIZER ADDED SUBROUTINE, CALLED 3 TIMES, CODE SIZE REDUCTION:3 WORDS
                 SUBOPT_0x30:
001b87 91ed      	LD   R30,X+
001b88 91fd      	LD   R31,X+
001b89 9631      	ADIW R30,1
001b8a 93fe      	ST   -X,R31
001b8b 93ee      	ST   -X,R30
001b8c 9508      	RET
                 
                 ;OPTIMIZER ADDED SUBROUTINE, CALLED 2 TIMES, CODE SIZE REDUCTION:2 WORDS
                 SUBOPT_0x31:
001b8d 93ba      	ST   -Y,R27
001b8e 93aa      	ST   -Y,R26
001b8f 9724      	SBIW R28,4
001b90 e0e0      	LDI  R30,LOW(0)
001b91 83e8      	ST   Y,R30
001b92 83e9      	STD  Y+1,R30
001b93 9508      	RET
                 
                 ;OPTIMIZER ADDED SUBROUTINE, CALLED 4 TIMES, CODE SIZE REDUCTION:33 WORDS
                 SUBOPT_0x32:
                +
001b94 81ac     +LDD R26 , Y + 4
001b95 81bd     +LDD R27 , Y + 4 + 1
001b96 818e     +LDD R24 , Y + 4 + 2
001b97 819f     +LDD R25 , Y + 4 + 3
                 	__GETD2S 4
                +
001b98 e0e0     +LDI R30 , LOW ( 0x41200000 )
001b99 e0f0     +LDI R31 , HIGH ( 0x41200000 )
001b9a e260     +LDI R22 , BYTE3 ( 0x41200000 )
001b9b e471     +LDI R23 , BYTE4 ( 0x41200000 )
                 	__GETD1N 0x41200000
001b9c 940e 1d79 	CALL __MULF12
                +
001b9e 83ec     +STD Y + 4 , R30
001b9f 83fd     +STD Y + 4 + 1 , R31
001ba0 836e     +STD Y + 4 + 2 , R22
001ba1 837f     +STD Y + 4 + 3 , R23
                 	__PUTD1S 4
001ba2 9508      	RET
                 
                 ;OPTIMIZER ADDED SUBROUTINE, CALLED 4 TIMES, CODE SIZE REDUCTION:21 WORDS
                 SUBOPT_0x33:
                +
001ba3 81ec     +LDD R30 , Y + 4
001ba4 81fd     +LDD R31 , Y + 4 + 1
001ba5 816e     +LDD R22 , Y + 4 + 2
001ba6 817f     +LDD R23 , Y + 4 + 3
                 	__GETD1S 4
                +
001ba7 85ac     +LDD R26 , Y + 12
001ba8 85bd     +LDD R27 , Y + 12 + 1
001ba9 858e     +LDD R24 , Y + 12 + 2
001baa 859f     +LDD R25 , Y + 12 + 3
                 	__GETD2S 12
001bab 940e 1e0c 	CALL __CMPF12
001bad 9508      	RET
                 
                 ;OPTIMIZER ADDED SUBROUTINE, CALLED 5 TIMES, CODE SIZE REDUCTION:5 WORDS
                 SUBOPT_0x34:
                +
001bae 85ac     +LDD R26 , Y + 12
001baf 85bd     +LDD R27 , Y + 12 + 1
001bb0 858e     +LDD R24 , Y + 12 + 2
001bb1 859f     +LDD R25 , Y + 12 + 3
                 	__GETD2S 12
001bb2 9508      	RET
                 
                 ;OPTIMIZER ADDED SUBROUTINE, CALLED 2 TIMES, CODE SIZE REDUCTION:6 WORDS
                 SUBOPT_0x35:
                +
001bb3 eced     +LDI R30 , LOW ( 0x3DCCCCCD )
001bb4 ecfc     +LDI R31 , HIGH ( 0x3DCCCCCD )
001bb5 ec6c     +LDI R22 , BYTE3 ( 0x3DCCCCCD )
001bb6 e37d     +LDI R23 , BYTE4 ( 0x3DCCCCCD )
                 	__GETD1N 0x3DCCCCCD
001bb7 940e 1d79 	CALL __MULF12
                +
001bb9 87ec     +STD Y + 12 , R30
001bba 87fd     +STD Y + 12 + 1 , R31
001bbb 876e     +STD Y + 12 + 2 , R22
001bbc 877f     +STD Y + 12 + 3 , R23
                 	__PUTD1S 12
001bbd 5f3f      	SUBI R19,-LOW(1)
001bbe 9508      	RET
                 
                 ;OPTIMIZER ADDED SUBROUTINE, CALLED 3 TIMES, CODE SIZE REDUCTION:5 WORDS
                 SUBOPT_0x36:
                +
001bbf e0e0     +LDI R30 , LOW ( 0x41200000 )
001bc0 e0f0     +LDI R31 , HIGH ( 0x41200000 )
001bc1 e260     +LDI R22 , BYTE3 ( 0x41200000 )
001bc2 e471     +LDI R23 , BYTE4 ( 0x41200000 )
                 	__GETD1N 0x41200000
001bc3 940e 1d79 	CALL __MULF12
001bc5 9508      	RET
                 
                 ;OPTIMIZER ADDED SUBROUTINE, CALLED 3 TIMES, CODE SIZE REDUCTION:1 WORDS
                 SUBOPT_0x37:
                +
001bc6 87ec     +STD Y + 12 , R30
001bc7 87fd     +STD Y + 12 + 1 , R31
001bc8 876e     +STD Y + 12 + 2 , R22
001bc9 877f     +STD Y + 12 + 3 , R23
                 	__PUTD1S 12
001bca 9508      	RET
                 
                 ;OPTIMIZER ADDED SUBROUTINE, CALLED 3 TIMES, CODE SIZE REDUCTION:1 WORDS
                 SUBOPT_0x38:
                +
001bcb e0a0     +LDI R26 , LOW ( 0x3F000000 )
001bcc e0b0     +LDI R27 , HIGH ( 0x3F000000 )
001bcd e080     +LDI R24 , BYTE3 ( 0x3F000000 )
001bce e39f     +LDI R25 , BYTE4 ( 0x3F000000 )
                 	__GETD2N 0x3F000000
001bcf 9508      	RET
                 
                 ;OPTIMIZER ADDED SUBROUTINE, CALLED 3 TIMES, CODE SIZE REDUCTION:5 WORDS
                 SUBOPT_0x39:
                +
001bd0 eced     +LDI R30 , LOW ( 0x3DCCCCCD )
001bd1 ecfc     +LDI R31 , HIGH ( 0x3DCCCCCD )
001bd2 ec6c     +LDI R22 , BYTE3 ( 0x3DCCCCCD )
001bd3 e37d     +LDI R23 , BYTE4 ( 0x3DCCCCCD )
                 	__GETD1N 0x3DCCCCCD
001bd4 940e 1d79 	CALL __MULF12
001bd6 9508      	RET
                 
                 ;OPTIMIZER ADDED SUBROUTINE, CALLED 2 TIMES, CODE SIZE REDUCTION:1 WORDS
                 SUBOPT_0x3A:
001bd7 85a8      	LDD  R26,Y+8
001bd8 85b9      	LDD  R27,Y+8+1
001bd9 9611      	ADIW R26,1
001bda 87a8      	STD  Y+8,R26
001bdb 87b9      	STD  Y+8+1,R27
001bdc 9711      	SBIW R26,1
001bdd 9508      	RET
                 
                 ;OPTIMIZER ADDED SUBROUTINE, CALLED 3 TIMES, CODE SIZE REDUCTION:1 WORDS
                 SUBOPT_0x3B:
001bde 2fe0      	MOV  R30,R16
001bdf 5de0      	SUBI R30,-LOW(48)
001be0 93ec      	ST   X,R30
001be1 2fe0      	MOV  R30,R16
001be2 9508      	RET
                 
                 ;OPTIMIZER ADDED SUBROUTINE, CALLED 3 TIMES, CODE SIZE REDUCTION:1 WORDS
                 SUBOPT_0x3C:
001be3 940e 1ef4 	CALL __SWAPD12
001be5 940e 1d22 	CALL __SUBF12
001be7 9508      	RET
                 
                 ;OPTIMIZER ADDED SUBROUTINE, CALLED 4 TIMES, CODE SIZE REDUCTION:6 WORDS
                 SUBOPT_0x3D:
001be8 85e8      	LDD  R30,Y+8
001be9 85f9      	LDD  R31,Y+8+1
001bea 9631      	ADIW R30,1
001beb 87e8      	STD  Y+8,R30
001bec 87f9      	STD  Y+8+1,R31
001bed 9508      	RET
                 
                 ;OPTIMIZER ADDED SUBROUTINE, CALLED 5 TIMES, CODE SIZE REDUCTION:13 WORDS
                 SUBOPT_0x3E:
001bee 932a      	ST   -Y,R18
001bef 81af      	LDD  R26,Y+7
001bf0 85b8      	LDD  R27,Y+7+1
001bf1 85e9      	LDD  R30,Y+9
001bf2 85fa      	LDD  R31,Y+9+1
001bf3 9509      	ICALL
001bf4 9508      	RET
                 
                 ;OPTIMIZER ADDED SUBROUTINE, CALLED 8 TIMES, CODE SIZE REDUCTION:25 WORDS
                 SUBOPT_0x3F:
                +
001bf5 01fe     +MOVW R30 , R28
001bf6 5ae6     +SUBI R30 , LOW ( - 90 )
001bf7 4fff     +SBCI R31 , HIGH ( - 90 )
001bf8 9001     +LD R0 , Z +
001bf9 81f0     +LD R31 , Z
001bfa 2de0     +MOV R30 , R0
                 	__GETW1SX 90
001bfb 9508      	RET
                 
                 ;OPTIMIZER ADDED SUBROUTINE, CALLED 7 TIMES, CODE SIZE REDUCTION:21 WORDS
                 SUBOPT_0x40:
001bfc 9734      	SBIW R30,4
                +
001bfd 01de     +MOVW R26 , R28
001bfe 5aa6     +SUBI R26 , LOW ( - 90 )
001bff 4fbf     +SBCI R27 , HIGH ( - 90 )
001c00 93ed     +ST X + , R30
001c01 93fc     +ST X , R31
                 	__PUTW1SX 90
001c02 9508      	RET
                 
                 ;OPTIMIZER ADDED SUBROUTINE, CALLED 4 TIMES, CODE SIZE REDUCTION:6 WORDS
                 SUBOPT_0x41:
001c03 81af      	LDD  R26,Y+7
001c04 85b8      	LDD  R27,Y+7+1
001c05 85e9      	LDD  R30,Y+9
001c06 85fa      	LDD  R31,Y+9+1
001c07 9509      	ICALL
001c08 9508      	RET
                 
                 ;OPTIMIZER ADDED SUBROUTINE, CALLED 6 TIMES, CODE SIZE REDUCTION:17 WORDS
                 SUBOPT_0x42:
                +
001c09 01de     +MOVW R26 , R28
001c0a 5aa6     +SUBI R26 , LOW ( - 90 )
001c0b 4fbf     +SBCI R27 , HIGH ( - 90 )
001c0c 900d     +LD R0 , X +
001c0d 91bc     +LD R27 , X
001c0e 2da0     +MOV R26 , R0
                 	__GETW2SX 90
001c0f 9508      	RET
                 
                 ;OPTIMIZER ADDED SUBROUTINE, CALLED 4 TIMES, CODE SIZE REDUCTION:3 WORDS
                 SUBOPT_0x43:
                +
001c10 87ea     +STD Y + 10 , R30
001c11 87fb     +STD Y + 10 + 1 , R31
001c12 876c     +STD Y + 10 + 2 , R22
001c13 877d     +STD Y + 10 + 3 , R23
                 	__PUTD1S 10
001c14 9508      	RET
                 
                 ;OPTIMIZER ADDED SUBROUTINE, CALLED 6 TIMES, CODE SIZE REDUCTION:7 WORDS
                 SUBOPT_0x44:
001c15 dfdf      	RCALL SUBOPT_0x3F
001c16 cfe5      	RJMP SUBOPT_0x40
                 
                 ;OPTIMIZER ADDED SUBROUTINE, CALLED 4 TIMES, CODE SIZE REDUCTION:3 WORDS
                 SUBOPT_0x45:
                +
001c17 85ea     +LDD R30 , Y + 10
001c18 85fb     +LDD R31 , Y + 10 + 1
001c19 856c     +LDD R22 , Y + 10 + 2
001c1a 857d     +LDD R23 , Y + 10 + 3
                 	__GETD1S 10
001c1b 9508      	RET
                 
                 ;OPTIMIZER ADDED SUBROUTINE, CALLED 2 TIMES, CODE SIZE REDUCTION:2 WORDS
                 SUBOPT_0x46:
001c1c 87ee      	STD  Y+14,R30
001c1d 87ff      	STD  Y+14+1,R31
001c1e 85ae      	LDD  R26,Y+14
001c1f 85bf      	LDD  R27,Y+14+1
001c20 940e 19a4 	CALL _strlen
001c22 2f1e      	MOV  R17,R30
001c23 9508      	RET
                 
                 ;OPTIMIZER ADDED SUBROUTINE, CALLED 4 TIMES, CODE SIZE REDUCTION:6 WORDS
                 SUBOPT_0x47:
001c24 dfe4      	RCALL SUBOPT_0x42
001c25 9614      	ADIW R26,4
001c26 940e 1ec8 	CALL __GETW1P
001c28 9508      	RET
                 
                 ;OPTIMIZER ADDED SUBROUTINE, CALLED 5 TIMES, CODE SIZE REDUCTION:5 WORDS
                 SUBOPT_0x48:
                +
001c29 8be8     +STD Y + 16 , R30
001c2a 8bf9     +STD Y + 16 + 1 , R31
001c2b 8b6a     +STD Y + 16 + 2 , R22
001c2c 8b7b     +STD Y + 16 + 3 , R23
                 	__PUTD1S 16
001c2d 9508      	RET
                 
                 ;OPTIMIZER ADDED SUBROUTINE, CALLED 2 TIMES, CODE SIZE REDUCTION:12 WORDS
                 SUBOPT_0x49:
001c2e 7f0b      	ANDI R16,LOW(251)
001c2f 89ed      	LDD  R30,Y+21
001c30 93ea      	ST   -Y,R30
                +
001c31 01de     +MOVW R26 , R28
001c32 5aa9     +SUBI R26 , LOW ( - 87 )
001c33 4fbf     +SBCI R27 , HIGH ( - 87 )
001c34 900d     +LD R0 , X +
001c35 91bc     +LD R27 , X
001c36 2da0     +MOV R26 , R0
                 	__GETW2SX 87
                +
001c37 01fe     +MOVW R30 , R28
001c38 5ae7     +SUBI R30 , LOW ( - 89 )
001c39 4fff     +SBCI R31 , HIGH ( - 89 )
001c3a 9001     +LD R0 , Z +
001c3b 81f0     +LD R31 , Z
001c3c 2de0     +MOV R30 , R0
                 	__GETW1SX 89
001c3d 9509      	ICALL
001c3e 3050      	CPI  R21,0
001c3f 9508      	RET
                 
                 ;OPTIMIZER ADDED SUBROUTINE, CALLED 2 TIMES, CODE SIZE REDUCTION:3 WORDS
                 SUBOPT_0x4A:
                +
001c40 89e8     +LDD R30 , Y + 16
001c41 89f9     +LDD R31 , Y + 16 + 1
001c42 896a     +LDD R22 , Y + 16 + 2
001c43 897b     +LDD R23 , Y + 16 + 3
                 	__GETD1S 16
                +
001c44 85aa     +LDD R26 , Y + 10
001c45 85bb     +LDD R27 , Y + 10 + 1
001c46 858c     +LDD R24 , Y + 10 + 2
001c47 859d     +LDD R25 , Y + 10 + 3
                 	__GETD2S 10
001c48 9508      	RET
                 
                 ;OPTIMIZER ADDED SUBROUTINE, CALLED 2 TIMES, CODE SIZE REDUCTION:1 WORDS
                 SUBOPT_0x4B:
001c49 01de      	MOVW R26,R28
001c4a 961c      	ADIW R26,12
001c4b 940e 1e2c 	CALL __ADDW2R15
001c4d 940e 1ec8 	CALL __GETW1P
001c4f 9508      	RET
                 
                 ;OPTIMIZER ADDED SUBROUTINE, CALLED 3 TIMES, CODE SIZE REDUCTION:1 WORDS
                 SUBOPT_0x4C:
001c50 81ee      	LDD  R30,Y+6
001c51 81ff      	LDD  R31,Y+6+1
001c52 93fa      	ST   -Y,R31
001c53 93ea      	ST   -Y,R30
001c54 9508      	RET
                 
                 ;OPTIMIZER ADDED SUBROUTINE, CALLED 5 TIMES, CODE SIZE REDUCTION:5 WORDS
                 SUBOPT_0x4D:
                +
001c55 87e9     +STD Y + 9 , R30
001c56 87fa     +STD Y + 9 + 1 , R31
001c57 876b     +STD Y + 9 + 2 , R22
001c58 877c     +STD Y + 9 + 3 , R23
                 	__PUTD1S 9
001c59 9508      	RET
                 
                 ;OPTIMIZER ADDED SUBROUTINE, CALLED 5 TIMES, CODE SIZE REDUCTION:13 WORDS
                 SUBOPT_0x4E:
001c5a 81ae      	LDD  R26,Y+6
001c5b 81bf      	LDD  R27,Y+6+1
001c5c 9611      	ADIW R26,1
001c5d 83ae      	STD  Y+6,R26
001c5e 83bf      	STD  Y+6+1,R27
001c5f 9711      	SBIW R26,1
001c60 9508      	RET
                 
                 ;OPTIMIZER ADDED SUBROUTINE, CALLED 4 TIMES, CODE SIZE REDUCTION:3 WORDS
                 SUBOPT_0x4F:
                +
001c61 81aa     +LDD R26 , Y + 2
001c62 81bb     +LDD R27 , Y + 2 + 1
001c63 818c     +LDD R24 , Y + 2 + 2
001c64 819d     +LDD R25 , Y + 2 + 3
                 	__GETD2S 2
001c65 9508      	RET
                 
                 ;OPTIMIZER ADDED SUBROUTINE, CALLED 4 TIMES, CODE SIZE REDUCTION:3 WORDS
                 SUBOPT_0x50:
                +
001c66 83ea     +STD Y + 2 , R30
001c67 83fb     +STD Y + 2 + 1 , R31
001c68 836c     +STD Y + 2 + 2 , R22
001c69 837d     +STD Y + 2 + 3 , R23
                 	__PUTD1S 2
001c6a 9508      	RET
                 
                 ;OPTIMIZER ADDED SUBROUTINE, CALLED 3 TIMES, CODE SIZE REDUCTION:9 WORDS
                 SUBOPT_0x51:
                +
001c6b 81ea     +LDD R30 , Y + 2
001c6c 81fb     +LDD R31 , Y + 2 + 1
001c6d 816c     +LDD R22 , Y + 2 + 2
001c6e 817d     +LDD R23 , Y + 2 + 3
                 	__GETD1S 2
                +
001c6f 85a9     +LDD R26 , Y + 9
001c70 85ba     +LDD R27 , Y + 9 + 1
001c71 858b     +LDD R24 , Y + 9 + 2
001c72 859c     +LDD R25 , Y + 9 + 3
                 	__GETD2S 9
001c73 9508      	RET
                 
                 ;OPTIMIZER ADDED SUBROUTINE, CALLED 3 TIMES, CODE SIZE REDUCTION:1 WORDS
                 SUBOPT_0x52:
                +
001c74 85a9     +LDD R26 , Y + 9
001c75 85ba     +LDD R27 , Y + 9 + 1
001c76 858b     +LDD R24 , Y + 9 + 2
001c77 859c     +LDD R25 , Y + 9 + 3
                 	__GETD2S 9
001c78 9508      	RET
                 
                 
                 	.CSEG
                 _delay_ms:
001c79 9610      	adiw r26,0
001c7a f039      	breq __delay_ms1
                 __delay_ms0:
                +
001c7b ed80     +LDI R24 , LOW ( 0x7D0 )
001c7c e097     +LDI R25 , HIGH ( 0x7D0 )
                +__DELAY_USW_LOOP :
001c7d 9701     +SBIW R24 , 1
001c7e f7f1     +BRNE __DELAY_USW_LOOP
                 	__DELAY_USW 0x7D0
001c7f 95a8      	wdr
001c80 9711      	sbiw r26,1
001c81 f7c9      	brne __delay_ms0
                 __delay_ms1:
001c82 9508      	ret
                 
                 __ANEGF1:
001c83 9730      	SBIW R30,0
001c84 4060      	SBCI R22,0
001c85 4070      	SBCI R23,0
001c86 f009      	BREQ __ANEGF10
001c87 5870      	SUBI R23,0x80
                 __ANEGF10:
001c88 9508      	RET
                 
                 __ROUND_REPACK:
001c89 2355      	TST  R21
001c8a f442      	BRPL __REPACK
001c8b 3850      	CPI  R21,0x80
001c8c f411      	BRNE __ROUND_REPACK0
001c8d ffe0      	SBRS R30,0
001c8e c004      	RJMP __REPACK
                 __ROUND_REPACK0:
001c8f 9631      	ADIW R30,1
001c90 1f69      	ADC  R22,R25
001c91 1f79      	ADC  R23,R25
001c92 f06b      	BRVS __REPACK1
                 
                 __REPACK:
001c93 e850      	LDI  R21,0x80
001c94 2757      	EOR  R21,R23
001c95 f411      	BRNE __REPACK0
001c96 935f      	PUSH R21
001c97 c0cf      	RJMP __ZERORES
                 __REPACK0:
001c98 3f5f      	CPI  R21,0xFF
001c99 f031      	BREQ __REPACK1
001c9a 0f66      	LSL  R22
001c9b 0c00      	LSL  R0
001c9c 9557      	ROR  R21
001c9d 9567      	ROR  R22
001c9e 2f75      	MOV  R23,R21
001c9f 9508      	RET
                 __REPACK1:
001ca0 935f      	PUSH R21
001ca1 2000      	TST  R0
001ca2 f00a      	BRMI __REPACK2
001ca3 c0cf      	RJMP __MAXRES
                 __REPACK2:
001ca4 c0c8      	RJMP __MINRES
                 
                 __UNPACK:
001ca5 e850      	LDI  R21,0x80
001ca6 2e19      	MOV  R1,R25
001ca7 2215      	AND  R1,R21
001ca8 0f88      	LSL  R24
001ca9 1f99      	ROL  R25
001caa 2795      	EOR  R25,R21
001cab 0f55      	LSL  R21
001cac 9587      	ROR  R24
                 
                 __UNPACK1:
001cad e850      	LDI  R21,0x80
001cae 2e07      	MOV  R0,R23
001caf 2205      	AND  R0,R21
001cb0 0f66      	LSL  R22
001cb1 1f77      	ROL  R23
001cb2 2775      	EOR  R23,R21
001cb3 0f55      	LSL  R21
001cb4 9567      	ROR  R22
001cb5 9508      	RET
                 
                 __CFD1U:
001cb6 9468      	SET
001cb7 c001      	RJMP __CFD1U0
                 __CFD1:
001cb8 94e8      	CLT
                 __CFD1U0:
001cb9 935f      	PUSH R21
001cba dff2      	RCALL __UNPACK1
001cbb 3870      	CPI  R23,0x80
001cbc f018      	BRLO __CFD10
001cbd 3f7f      	CPI  R23,0xFF
001cbe f408      	BRCC __CFD10
001cbf c0a7      	RJMP __ZERORES
                 __CFD10:
001cc0 e156      	LDI  R21,22
001cc1 1b57      	SUB  R21,R23
001cc2 f4aa      	BRPL __CFD11
001cc3 9551      	NEG  R21
001cc4 3058      	CPI  R21,8
001cc5 f40e      	BRTC __CFD19
001cc6 3059      	CPI  R21,9
                 __CFD19:
001cc7 f030      	BRLO __CFD17
001cc8 efef      	SER  R30
001cc9 efff      	SER  R31
001cca ef6f      	SER  R22
001ccb e77f      	LDI  R23,0x7F
001ccc f977      	BLD  R23,7
001ccd c01a      	RJMP __CFD15
                 __CFD17:
001cce 2777      	CLR  R23
001ccf 2355      	TST  R21
001cd0 f0b9      	BREQ __CFD15
                 __CFD18:
001cd1 0fee      	LSL  R30
001cd2 1fff      	ROL  R31
001cd3 1f66      	ROL  R22
001cd4 1f77      	ROL  R23
001cd5 955a      	DEC  R21
001cd6 f7d1      	BRNE __CFD18
001cd7 c010      	RJMP __CFD15
                 __CFD11:
001cd8 2777      	CLR  R23
                 __CFD12:
001cd9 3058      	CPI  R21,8
001cda f028      	BRLO __CFD13
001cdb 2fef      	MOV  R30,R31
001cdc 2ff6      	MOV  R31,R22
001cdd 2f67      	MOV  R22,R23
001cde 5058      	SUBI R21,8
001cdf cff9      	RJMP __CFD12
                 __CFD13:
001ce0 2355      	TST  R21
001ce1 f031      	BREQ __CFD15
                 __CFD14:
001ce2 9576      	LSR  R23
001ce3 9567      	ROR  R22
001ce4 95f7      	ROR  R31
001ce5 95e7      	ROR  R30
001ce6 955a      	DEC  R21
001ce7 f7d1      	BRNE __CFD14
                 __CFD15:
001ce8 2000      	TST  R0
001ce9 f40a      	BRPL __CFD16
001cea d154      	RCALL __ANEGD1
                 __CFD16:
001ceb 915f      	POP  R21
001cec 9508      	RET
                 
                 __CDF1U:
001ced 9468      	SET
001cee c001      	RJMP __CDF1U0
                 __CDF1:
001cef 94e8      	CLT
                 __CDF1U0:
001cf0 9730      	SBIW R30,0
001cf1 4060      	SBCI R22,0
001cf2 4070      	SBCI R23,0
001cf3 f0b1      	BREQ __CDF10
001cf4 2400      	CLR  R0
001cf5 f026      	BRTS __CDF11
001cf6 2377      	TST  R23
001cf7 f412      	BRPL __CDF11
001cf8 9400      	COM  R0
001cf9 d145      	RCALL __ANEGD1
                 __CDF11:
001cfa 2e17      	MOV  R1,R23
001cfb e17e      	LDI  R23,30
001cfc 2011      	TST  R1
                 __CDF12:
001cfd f032      	BRMI __CDF13
001cfe 957a      	DEC  R23
001cff 0fee      	LSL  R30
001d00 1fff      	ROL  R31
001d01 1f66      	ROL  R22
001d02 1c11      	ROL  R1
001d03 cff9      	RJMP __CDF12
                 __CDF13:
001d04 2fef      	MOV  R30,R31
001d05 2ff6      	MOV  R31,R22
001d06 2d61      	MOV  R22,R1
001d07 935f      	PUSH R21
001d08 df8a      	RCALL __REPACK
001d09 915f      	POP  R21
                 __CDF10:
001d0a 9508      	RET
                 
                 __SWAPACC:
001d0b 934f      	PUSH R20
001d0c 01af      	MOVW R20,R30
001d0d 01fd      	MOVW R30,R26
001d0e 01da      	MOVW R26,R20
001d0f 01ab      	MOVW R20,R22
001d10 01bc      	MOVW R22,R24
001d11 01ca      	MOVW R24,R20
001d12 2d40      	MOV  R20,R0
001d13 2c01      	MOV  R0,R1
001d14 2e14      	MOV  R1,R20
001d15 914f      	POP  R20
001d16 9508      	RET
                 
                 __UADD12:
001d17 0fea      	ADD  R30,R26
001d18 1ffb      	ADC  R31,R27
001d19 1f68      	ADC  R22,R24
001d1a 9508      	RET
                 
                 __NEGMAN1:
001d1b 95e0      	COM  R30
001d1c 95f0      	COM  R31
001d1d 9560      	COM  R22
001d1e 5fef      	SUBI R30,-1
001d1f 4fff      	SBCI R31,-1
001d20 4f6f      	SBCI R22,-1
001d21 9508      	RET
                 
                 __SUBF12:
001d22 935f      	PUSH R21
001d23 df81      	RCALL __UNPACK
001d24 3890      	CPI  R25,0x80
001d25 f171      	BREQ __ADDF129
001d26 e850      	LDI  R21,0x80
001d27 2615      	EOR  R1,R21
                 
001d28 c004      	RJMP __ADDF120
                 
                 __ADDF12:
001d29 935f      	PUSH R21
001d2a df7a      	RCALL __UNPACK
001d2b 3890      	CPI  R25,0x80
001d2c f139      	BREQ __ADDF129
                 
                 __ADDF120:
001d2d 3870      	CPI  R23,0x80
001d2e f121      	BREQ __ADDF128
                 __ADDF121:
001d2f 2f57      	MOV  R21,R23
001d30 1b59      	SUB  R21,R25
001d31 f12b      	BRVS __ADDF1211
001d32 f412      	BRPL __ADDF122
001d33 dfd7      	RCALL __SWAPACC
001d34 cffa      	RJMP __ADDF121
                 __ADDF122:
001d35 3158      	CPI  R21,24
001d36 f018      	BRLO __ADDF123
001d37 27aa      	CLR  R26
001d38 27bb      	CLR  R27
001d39 2788      	CLR  R24
                 __ADDF123:
001d3a 3058      	CPI  R21,8
001d3b f028      	BRLO __ADDF124
001d3c 2fab      	MOV  R26,R27
001d3d 2fb8      	MOV  R27,R24
001d3e 2788      	CLR  R24
001d3f 5058      	SUBI R21,8
001d40 cff9      	RJMP __ADDF123
                 __ADDF124:
001d41 2355      	TST  R21
001d42 f029      	BREQ __ADDF126
                 __ADDF125:
001d43 9586      	LSR  R24
001d44 95b7      	ROR  R27
001d45 95a7      	ROR  R26
001d46 955a      	DEC  R21
001d47 f7d9      	BRNE __ADDF125
                 __ADDF126:
001d48 2d50      	MOV  R21,R0
001d49 2551      	EOR  R21,R1
001d4a f072      	BRMI __ADDF127
001d4b dfcb      	RCALL __UADD12
001d4c f438      	BRCC __ADDF129
001d4d 9567      	ROR  R22
001d4e 95f7      	ROR  R31
001d4f 95e7      	ROR  R30
001d50 9573      	INC  R23
001d51 f413      	BRVC __ADDF129
001d52 c020      	RJMP __MAXRES
                 __ADDF128:
001d53 dfb7      	RCALL __SWAPACC
                 __ADDF129:
001d54 df3e      	RCALL __REPACK
001d55 915f      	POP  R21
001d56 9508      	RET
                 __ADDF1211:
001d57 f7d8      	BRCC __ADDF128
001d58 cffb      	RJMP __ADDF129
                 __ADDF127:
001d59 1bea      	SUB  R30,R26
001d5a 0bfb      	SBC  R31,R27
001d5b 0b68      	SBC  R22,R24
001d5c f051      	BREQ __ZERORES
001d5d f410      	BRCC __ADDF1210
001d5e 9400      	COM  R0
001d5f dfbb      	RCALL __NEGMAN1
                 __ADDF1210:
001d60 2366      	TST  R22
001d61 f392      	BRMI __ADDF129
001d62 0fee      	LSL  R30
001d63 1fff      	ROL  R31
001d64 1f66      	ROL  R22
001d65 957a      	DEC  R23
001d66 f7cb      	BRVC __ADDF1210
                 
                 __ZERORES:
001d67 27ee      	CLR  R30
001d68 27ff      	CLR  R31
001d69 2766      	CLR  R22
001d6a 2777      	CLR  R23
001d6b 915f      	POP  R21
001d6c 9508      	RET
                 
                 __MINRES:
001d6d efef      	SER  R30
001d6e efff      	SER  R31
001d6f e76f      	LDI  R22,0x7F
001d70 ef7f      	SER  R23
001d71 915f      	POP  R21
001d72 9508      	RET
                 
                 __MAXRES:
001d73 efef      	SER  R30
001d74 efff      	SER  R31
001d75 e76f      	LDI  R22,0x7F
001d76 e77f      	LDI  R23,0x7F
001d77 915f      	POP  R21
001d78 9508      	RET
                 
                 __MULF12:
001d79 935f      	PUSH R21
001d7a df2a      	RCALL __UNPACK
001d7b 3870      	CPI  R23,0x80
001d7c f351      	BREQ __ZERORES
001d7d 3890      	CPI  R25,0x80
001d7e f341      	BREQ __ZERORES
001d7f 2401      	EOR  R0,R1
001d80 9408      	SEC
001d81 1f79      	ADC  R23,R25
001d82 f423      	BRVC __MULF124
001d83 f31c      	BRLT __ZERORES
                 __MULF125:
001d84 2000      	TST  R0
001d85 f33a      	BRMI __MINRES
001d86 cfec      	RJMP __MAXRES
                 __MULF124:
001d87 920f      	PUSH R0
001d88 931f      	PUSH R17
001d89 932f      	PUSH R18
001d8a 933f      	PUSH R19
001d8b 934f      	PUSH R20
001d8c 2711      	CLR  R17
001d8d 2722      	CLR  R18
001d8e 2799      	CLR  R25
001d8f 9f68      	MUL  R22,R24
001d90 01a0      	MOVW R20,R0
001d91 9f8f      	MUL  R24,R31
001d92 2d30      	MOV  R19,R0
001d93 0d41      	ADD  R20,R1
001d94 1f59      	ADC  R21,R25
001d95 9f6b      	MUL  R22,R27
001d96 0d30      	ADD  R19,R0
001d97 1d41      	ADC  R20,R1
001d98 1f59      	ADC  R21,R25
001d99 9f8e      	MUL  R24,R30
001d9a d027      	RCALL __MULF126
001d9b 9fbf      	MUL  R27,R31
001d9c d025      	RCALL __MULF126
001d9d 9f6a      	MUL  R22,R26
001d9e d023      	RCALL __MULF126
001d9f 9fbe      	MUL  R27,R30
001da0 d01d      	RCALL __MULF127
001da1 9faf      	MUL  R26,R31
001da2 d01b      	RCALL __MULF127
001da3 9fae      	MUL  R26,R30
001da4 0d11      	ADD  R17,R1
001da5 1f29      	ADC  R18,R25
001da6 1f39      	ADC  R19,R25
001da7 1f49      	ADC  R20,R25
001da8 1f59      	ADC  R21,R25
001da9 2fe3      	MOV  R30,R19
001daa 2ff4      	MOV  R31,R20
001dab 2f65      	MOV  R22,R21
001dac 2f52      	MOV  R21,R18
001dad 914f      	POP  R20
001dae 913f      	POP  R19
001daf 912f      	POP  R18
001db0 911f      	POP  R17
001db1 900f      	POP  R0
001db2 2366      	TST  R22
001db3 f02a      	BRMI __MULF122
001db4 0f55      	LSL  R21
001db5 1fee      	ROL  R30
001db6 1fff      	ROL  R31
001db7 1f66      	ROL  R22
001db8 c002      	RJMP __MULF123
                 __MULF122:
001db9 9573      	INC  R23
001dba f24b      	BRVS __MULF125
                 __MULF123:
001dbb decd      	RCALL __ROUND_REPACK
001dbc 915f      	POP  R21
001dbd 9508      	RET
                 
                 __MULF127:
001dbe 0d10      	ADD  R17,R0
001dbf 1d21      	ADC  R18,R1
001dc0 1f39      	ADC  R19,R25
001dc1 c002      	RJMP __MULF128
                 __MULF126:
001dc2 0d20      	ADD  R18,R0
001dc3 1d31      	ADC  R19,R1
                 __MULF128:
001dc4 1f49      	ADC  R20,R25
001dc5 1f59      	ADC  R21,R25
001dc6 9508      	RET
                 
                 __DIVF21:
001dc7 935f      	PUSH R21
001dc8 dedc      	RCALL __UNPACK
001dc9 3870      	CPI  R23,0x80
001dca f421      	BRNE __DIVF210
001dcb 2011      	TST  R1
                 __DIVF211:
001dcc f40a      	BRPL __DIVF219
001dcd cf9f      	RJMP __MINRES
                 __DIVF219:
001dce cfa4      	RJMP __MAXRES
                 __DIVF210:
001dcf 3890      	CPI  R25,0x80
001dd0 f409      	BRNE __DIVF218
                 __DIVF217:
001dd1 cf95      	RJMP __ZERORES
                 __DIVF218:
001dd2 2401      	EOR  R0,R1
001dd3 9408      	SEC
001dd4 0b97      	SBC  R25,R23
001dd5 f41b      	BRVC __DIVF216
001dd6 f3d4      	BRLT __DIVF217
001dd7 2000      	TST  R0
001dd8 cff3      	RJMP __DIVF211
                 __DIVF216:
001dd9 2f79      	MOV  R23,R25
001dda 931f      	PUSH R17
001ddb 932f      	PUSH R18
001ddc 933f      	PUSH R19
001ddd 934f      	PUSH R20
001dde 2411      	CLR  R1
001ddf 2711      	CLR  R17
001de0 2722      	CLR  R18
001de1 2733      	CLR  R19
001de2 2744      	CLR  R20
001de3 2755      	CLR  R21
001de4 e290      	LDI  R25,32
                 __DIVF212:
001de5 17ae      	CP   R26,R30
001de6 07bf      	CPC  R27,R31
001de7 0786      	CPC  R24,R22
001de8 0741      	CPC  R20,R17
001de9 f030      	BRLO __DIVF213
001dea 1bae      	SUB  R26,R30
001deb 0bbf      	SBC  R27,R31
001dec 0b86      	SBC  R24,R22
001ded 0b41      	SBC  R20,R17
001dee 9408      	SEC
001def c001      	RJMP __DIVF214
                 __DIVF213:
001df0 9488      	CLC
                 __DIVF214:
001df1 1f55      	ROL  R21
001df2 1f22      	ROL  R18
001df3 1f33      	ROL  R19
001df4 1c11      	ROL  R1
001df5 1faa      	ROL  R26
001df6 1fbb      	ROL  R27
001df7 1f88      	ROL  R24
001df8 1f44      	ROL  R20
001df9 959a      	DEC  R25
001dfa f751      	BRNE __DIVF212
001dfb 01f9      	MOVW R30,R18
001dfc 2d61      	MOV  R22,R1
001dfd 914f      	POP  R20
001dfe 913f      	POP  R19
001dff 912f      	POP  R18
001e00 911f      	POP  R17
001e01 2366      	TST  R22
001e02 f032      	BRMI __DIVF215
001e03 0f55      	LSL  R21
001e04 1fee      	ROL  R30
001e05 1fff      	ROL  R31
001e06 1f66      	ROL  R22
001e07 957a      	DEC  R23
001e08 f243      	BRVS __DIVF217
                 __DIVF215:
001e09 de7f      	RCALL __ROUND_REPACK
001e0a 915f      	POP  R21
001e0b 9508      	RET
                 
                 __CMPF12:
001e0c 2399      	TST  R25
001e0d f09a      	BRMI __CMPF120
001e0e 2377      	TST  R23
001e0f f042      	BRMI __CMPF121
001e10 1797      	CP   R25,R23
001e11 f048      	BRLO __CMPF122
001e12 f429      	BRNE __CMPF121
001e13 17ae      	CP   R26,R30
001e14 07bf      	CPC  R27,R31
001e15 0786      	CPC  R24,R22
001e16 f020      	BRLO __CMPF122
001e17 f031      	BREQ __CMPF123
                 __CMPF121:
001e18 9498      	CLZ
001e19 9488      	CLC
001e1a 9508      	RET
                 __CMPF122:
001e1b 9498      	CLZ
001e1c 9408      	SEC
001e1d 9508      	RET
                 __CMPF123:
001e1e 9418      	SEZ
001e1f 9488      	CLC
001e20 9508      	RET
                 __CMPF120:
001e21 2377      	TST  R23
001e22 f7c2      	BRPL __CMPF122
001e23 1797      	CP   R25,R23
001e24 f398      	BRLO __CMPF121
001e25 f7a9      	BRNE __CMPF122
001e26 17ea      	CP   R30,R26
001e27 07fb      	CPC  R31,R27
001e28 0768      	CPC  R22,R24
001e29 f388      	BRLO __CMPF122
001e2a f399      	BREQ __CMPF123
001e2b cfec      	RJMP __CMPF121
                 
                 __ADDW2R15:
001e2c 2400      	CLR  R0
001e2d 0daf      	ADD  R26,R15
001e2e 1db0      	ADC  R27,R0
001e2f 9508      	RET
                 
                 __ADDD12:
001e30 0fea      	ADD  R30,R26
001e31 1ffb      	ADC  R31,R27
001e32 1f68      	ADC  R22,R24
001e33 1f79      	ADC  R23,R25
001e34 9508      	RET
                 
                 __SUBD12:
001e35 1bea      	SUB  R30,R26
001e36 0bfb      	SBC  R31,R27
001e37 0b68      	SBC  R22,R24
001e38 0b79      	SBC  R23,R25
001e39 9508      	RET
                 
                 __XORD12:
001e3a 27ea      	EOR  R30,R26
001e3b 27fb      	EOR  R31,R27
001e3c 2768      	EOR  R22,R24
001e3d 2779      	EOR  R23,R25
001e3e 9508      	RET
                 
                 __ANEGD1:
001e3f 95f0      	COM  R31
001e40 9560      	COM  R22
001e41 9570      	COM  R23
001e42 95e1      	NEG  R30
001e43 4fff      	SBCI R31,-1
001e44 4f6f      	SBCI R22,-1
001e45 4f7f      	SBCI R23,-1
001e46 9508      	RET
                 
                 __LSLW2:
001e47 0fee      	LSL  R30
001e48 1fff      	ROL  R31
001e49 0fee      	LSL  R30
001e4a 1fff      	ROL  R31
001e4b 9508      	RET
                 
                 __LSLD1:
001e4c 0fee      	LSL  R30
001e4d 1fff      	ROL  R31
001e4e 1f66      	ROL  R22
001e4f 1f77      	ROL  R23
001e50 9508      	RET
                 
                 __CBD1:
001e51 2ffe      	MOV  R31,R30
001e52 0fff      	ADD  R31,R31
001e53 0bff      	SBC  R31,R31
001e54 2f6f      	MOV  R22,R31
001e55 2f7f      	MOV  R23,R31
001e56 9508      	RET
                 
                 __CWD1:
001e57 2f6f      	MOV  R22,R31
001e58 0f66      	ADD  R22,R22
001e59 0b66      	SBC  R22,R22
001e5a 2f76      	MOV  R23,R22
001e5b 9508      	RET
                 
                 __DIVB21U:
001e5c 2400      	CLR  R0
001e5d e098      	LDI  R25,8
                 __DIVB21U1:
001e5e 0faa      	LSL  R26
001e5f 1c00      	ROL  R0
001e60 1a0e      	SUB  R0,R30
001e61 f410      	BRCC __DIVB21U2
001e62 0e0e      	ADD  R0,R30
001e63 c001      	RJMP __DIVB21U3
                 __DIVB21U2:
001e64 60a1      	SBR  R26,1
                 __DIVB21U3:
001e65 959a      	DEC  R25
001e66 f7b9      	BRNE __DIVB21U1
001e67 2fea      	MOV  R30,R26
001e68 2da0      	MOV  R26,R0
001e69 9508      	RET
                 
                 __DIVB21:
001e6a d03e      	RCALL __CHKSIGNB
001e6b dff0      	RCALL __DIVB21U
001e6c f40e      	BRTC __DIVB211
001e6d 95e1      	NEG  R30
                 __DIVB211:
001e6e 9508      	RET
                 
                 __DIVD21U:
001e6f 933f      	PUSH R19
001e70 934f      	PUSH R20
001e71 935f      	PUSH R21
001e72 2400      	CLR  R0
001e73 2411      	CLR  R1
001e74 2744      	CLR  R20
001e75 2755      	CLR  R21
001e76 e230      	LDI  R19,32
                 __DIVD21U1:
001e77 0faa      	LSL  R26
001e78 1fbb      	ROL  R27
001e79 1f88      	ROL  R24
001e7a 1f99      	ROL  R25
001e7b 1c00      	ROL  R0
001e7c 1c11      	ROL  R1
001e7d 1f44      	ROL  R20
001e7e 1f55      	ROL  R21
001e7f 1a0e      	SUB  R0,R30
001e80 0a1f      	SBC  R1,R31
001e81 0b46      	SBC  R20,R22
001e82 0b57      	SBC  R21,R23
001e83 f428      	BRCC __DIVD21U2
001e84 0e0e      	ADD  R0,R30
001e85 1e1f      	ADC  R1,R31
001e86 1f46      	ADC  R20,R22
001e87 1f57      	ADC  R21,R23
001e88 c001      	RJMP __DIVD21U3
                 __DIVD21U2:
001e89 60a1      	SBR  R26,1
                 __DIVD21U3:
001e8a 953a      	DEC  R19
001e8b f759      	BRNE __DIVD21U1
001e8c 01fd      	MOVW R30,R26
001e8d 01bc      	MOVW R22,R24
001e8e 01d0      	MOVW R26,R0
001e8f 01ca      	MOVW R24,R20
001e90 915f      	POP  R21
001e91 914f      	POP  R20
001e92 913f      	POP  R19
001e93 9508      	RET
                 
                 __DIVD21:
001e94 d020      	RCALL __CHKSIGND
001e95 dfd9      	RCALL __DIVD21U
001e96 f40e      	BRTC __DIVD211
001e97 dfa7      	RCALL __ANEGD1
                 __DIVD211:
001e98 9508      	RET
                 
                 __MODB21:
001e99 94e8      	CLT
001e9a ffa7      	SBRS R26,7
001e9b c002      	RJMP __MODB211
001e9c 95a1      	NEG  R26
001e9d 9468      	SET
                 __MODB211:
001e9e fde7      	SBRC R30,7
001e9f 95e1      	NEG  R30
001ea0 dfbb      	RCALL __DIVB21U
001ea1 2fea      	MOV  R30,R26
001ea2 f40e      	BRTC __MODB212
001ea3 95e1      	NEG  R30
                 __MODB212:
001ea4 9508      	RET
                 
                 __MODD21U:
001ea5 dfc9      	RCALL __DIVD21U
001ea6 01fd      	MOVW R30,R26
001ea7 01bc      	MOVW R22,R24
001ea8 9508      	RET
                 
                 __CHKSIGNB:
001ea9 94e8      	CLT
001eaa ffe7      	SBRS R30,7
001eab c002      	RJMP __CHKSB1
001eac 95e1      	NEG  R30
001ead 9468      	SET
                 __CHKSB1:
001eae ffa7      	SBRS R26,7
001eaf c004      	RJMP __CHKSB2
001eb0 95a1      	NEG  R26
001eb1 f800      	BLD  R0,0
001eb2 9403      	INC  R0
001eb3 fa00      	BST  R0,0
                 __CHKSB2:
001eb4 9508      	RET
                 
                 __CHKSIGND:
001eb5 94e8      	CLT
001eb6 ff77      	SBRS R23,7
001eb7 c002      	RJMP __CHKSD1
001eb8 df86      	RCALL __ANEGD1
001eb9 9468      	SET
                 __CHKSD1:
001eba ff97      	SBRS R25,7
001ebb c00b      	RJMP __CHKSD2
001ebc 2400      	CLR  R0
001ebd 95a0      	COM  R26
001ebe 95b0      	COM  R27
001ebf 9580      	COM  R24
001ec0 9590      	COM  R25
001ec1 9611      	ADIW R26,1
001ec2 1d80      	ADC  R24,R0
001ec3 1d90      	ADC  R25,R0
001ec4 f800      	BLD  R0,0
001ec5 9403      	INC  R0
001ec6 fa00      	BST  R0,0
                 __CHKSD2:
001ec7 9508      	RET
                 
                 __GETW1P:
001ec8 91ed      	LD   R30,X+
001ec9 91fc      	LD   R31,X
001eca 9711      	SBIW R26,1
001ecb 9508      	RET
                 
                 __GETD1P:
001ecc 91ed      	LD   R30,X+
001ecd 91fd      	LD   R31,X+
001ece 916d      	LD   R22,X+
001ecf 917c      	LD   R23,X
001ed0 9713      	SBIW R26,3
001ed1 9508      	RET
                 
                 __PUTDP1:
001ed2 93ed      	ST   X+,R30
001ed3 93fd      	ST   X+,R31
001ed4 936d      	ST   X+,R22
001ed5 937c      	ST   X,R23
001ed6 9508      	RET
                 
                 __GETW1PF:
001ed7 9005      	LPM  R0,Z+
001ed8 91f4      	LPM  R31,Z
001ed9 2de0      	MOV  R30,R0
001eda 9508      	RET
                 
                 __GETD1S0:
001edb 81e8      	LD   R30,Y
001edc 81f9      	LDD  R31,Y+1
001edd 816a      	LDD  R22,Y+2
001ede 817b      	LDD  R23,Y+3
001edf 9508      	RET
                 
                 __GETD2S0:
001ee0 81a8      	LD   R26,Y
001ee1 81b9      	LDD  R27,Y+1
001ee2 818a      	LDD  R24,Y+2
001ee3 819b      	LDD  R25,Y+3
001ee4 9508      	RET
                 
                 __PUTD1S0:
001ee5 83e8      	ST   Y,R30
001ee6 83f9      	STD  Y+1,R31
001ee7 836a      	STD  Y+2,R22
001ee8 837b      	STD  Y+3,R23
001ee9 9508      	RET
                 
                 __PUTPARD1:
001eea 937a      	ST   -Y,R23
001eeb 936a      	ST   -Y,R22
001eec 93fa      	ST   -Y,R31
001eed 93ea      	ST   -Y,R30
001eee 9508      	RET
                 
                 __PUTPARD2:
001eef 939a      	ST   -Y,R25
001ef0 938a      	ST   -Y,R24
001ef1 93ba      	ST   -Y,R27
001ef2 93aa      	ST   -Y,R26
001ef3 9508      	RET
                 
                 __SWAPD12:
001ef4 2e18      	MOV  R1,R24
001ef5 2f86      	MOV  R24,R22
001ef6 2d61      	MOV  R22,R1
001ef7 2e19      	MOV  R1,R25
001ef8 2f97      	MOV  R25,R23
001ef9 2d71      	MOV  R23,R1
                 
                 __SWAPW12:
001efa 2e1b      	MOV  R1,R27
001efb 2fbf      	MOV  R27,R31
001efc 2df1      	MOV  R31,R1
                 
                 __SWAPB12:
001efd 2e1a      	MOV  R1,R26
001efe 2fae      	MOV  R26,R30
001eff 2de1      	MOV  R30,R1
001f00 9508      	RET
                 
                 __CPD10:
001f01 9730      	SBIW R30,0
001f02 4060      	SBCI R22,0
001f03 4070      	SBCI R23,0
001f04 9508      	RET
                 
                 __SAVELOCR6:
001f05 935a      	ST   -Y,R21
                 __SAVELOCR5:
001f06 934a      	ST   -Y,R20
                 __SAVELOCR4:
001f07 933a      	ST   -Y,R19
                 __SAVELOCR3:
001f08 932a      	ST   -Y,R18
                 __SAVELOCR2:
001f09 931a      	ST   -Y,R17
001f0a 930a      	ST   -Y,R16
001f0b 9508      	RET
                 
                 __LOADLOCR6:
001f0c 815d      	LDD  R21,Y+5
                 __LOADLOCR5:
001f0d 814c      	LDD  R20,Y+4
                 __LOADLOCR4:
001f0e 813b      	LDD  R19,Y+3
                 __LOADLOCR3:
001f0f 812a      	LDD  R18,Y+2
                 __LOADLOCR2:
001f10 8119      	LDD  R17,Y+1
001f11 8108      	LD   R16,Y
001f12 9508      	RET
                 
                 ;END OF CODE MARKER
                 __END_OF_CODE:


RESOURCE USE INFORMATION
------------------------

Notice:
The register and instruction counts are symbol table hit counts,
and hence implicitly used resources are not counted, eg, the
'lpm' instruction without operands implicitly uses r0 and z,
none of which are counted.

x,y,z are separate entities in the symbol table and are
counted separately from r26..r31 here.

.dseg memory usage only counts static data declared with .byte

ATmega32A register use summary:
r0 :  74 r1 :  36 r2 :   1 r3 :   0 r4 :   4 r5 :   1 r6 :   0 r7 :   4 
r8 :   4 r9 :   3 r10:   2 r11:   4 r12:   0 r13:   0 r14:   0 r15:   6 
r16:  80 r17: 108 r18:  63 r19:  42 r20:  50 r21:  90 r22: 172 r23: 147 
r24: 107 r25:  92 r26: 270 r27: 145 r28:  39 r29:   1 r30: 598 r31: 233 
x  :  47 y  : 481 z  :  28 
Registers used: 30 out of 35 (85.7%)

ATmega32A instruction use summary:
.lds  :   0 .lds.l:   0 .sts  :   0 .sts.l:   0 adc   :  30 add   :  20 
adiw  :  46 and   :   5 andi  :   8 asr   :   0 bclr  :   0 bld   :   5 
brbc  :   0 brbs  :   0 brcc  :   9 brcs  :   1 break :   0 breq  :  50 
brge  :   5 brhc  :   0 brhs  :   0 brid  :   0 brie  :   0 brlo  :  30 
brlt  :   4 brmi  :  11 brne  :  65 brpl  :  11 brsh  :   9 brtc  :   5 
brts  :   2 brvc  :   4 brvs  :   4 bset  :   0 bst   :   4 call  : 392 
cbi   :  14 cbr   :   1 clc   :   3 clh   :   0 cli   :   1 cln   :   0 
clr   :  62 cls   :   0 clt   :   7 clv   :   0 clz   :   2 com   :  14 
cp    :  19 cpc   :  27 cpi   :  91 cpse  :   0 dec   :  15 des   :   0 
eor   :  11 fmul  :   0 fmuls :   0 fmulsu:   0 icall :   3 ijmp  :   0 
in    :   9 inc   :   9 jmp   :  28 ld    :  76 ldd   : 216 ldi   : 339 
lds   : 104 lpm   :  17 lsl   :  18 lsr   :   3 mov   :  89 movw  :  70 
mul   :  13 muls  :   0 mulsu :   0 neg   :   9 nop   :   0 or    :   1 
ori   :  10 out   :  47 pop   :  32 push  :  32 rcall :  68 ret   : 149 
reti  :   2 rjmp  : 165 rol   :  38 ror   :  15 sbc   :  16 sbci  :  32 
sbi   :  14 sbic  :   3 sbis  :   4 sbiw  :  36 sbr   :   4 sbrc  :   4 
sbrs  :  22 sec   :   5 seh   :   0 sei   :   1 sen   :   0 ser   :   8 
ses   :   0 set   :   7 sev   :   0 sez   :   1 sleep :   0 spm   :   0 
st    : 145 std   : 105 sts   :  94 sub   :   9 subi  :  62 swap  :   1 
tst   :  26 wdr   :   1 
Instructions used: 83 out of 116 (71.6%)

ATmega32A memory use summary [bytes]:
Segment   Begin    End      Code   Data   Used    Size   Use%
---------------------------------------------------------------
[.cseg] 0x000000 0x003e26   7528   8382  15910   32768  48.6%
[.dseg] 0x000060 0x000344      0    228    228    2048  11.1%
[.eseg] 0x000000 0x000000      0      0      0    1024   0.0%

Assembly complete, 0 errors, 11 warnings
